---
triple:          'arm64-apple-darwin'
binary-path:     '/Users/cdavis/Desktop/Work/Research/TendexVortexPlotting/6/cppScripts/BFieldTest'
relocations:
  - { offsetInCU: 0x44, offset: 0x44, size: 0x8, addend: 0x0, symName: __ZN5EigenL4lastE, symObjAddr: 0x208FF, symBinAddr: 0x100008000, symSize: 0x0 }
  - { offsetInCU: 0x9B9, offset: 0x9B9, size: 0x8, addend: 0x0, symName: __ZN5Eigen8internal28check_static_allocation_sizeIfLi9EEEvv, symObjAddr: 0xC9C, symBinAddr: 0x10000374C, symSize: 0x4 }
  - { offsetInCU: 0x9E6, offset: 0x9E6, size: 0x8, addend: 0x0, symName: __ZN5Eigen8internal22ignore_unused_variableIlEEvRKT_, symObjAddr: 0x10D0, symBinAddr: 0x100003B80, symSize: 0x10 }
  - { offsetInCU: 0xA2D, offset: 0xA2D, size: 0x8, addend: 0x0, symName: __ZN5EigenL6lastp1E, symObjAddr: 0x20900, symBinAddr: 0x100008001, symSize: 0x0 }
  - { offsetInCU: 0xA46, offset: 0xA46, size: 0x8, addend: 0x0, symName: __ZN5EigenL3allE, symObjAddr: 0x20903, symBinAddr: 0x100008004, symSize: 0x0 }
  - { offsetInCU: 0xA5F, offset: 0xA5F, size: 0x8, addend: 0x0, symName: __ZN5EigenL3fixILi1EEE, symObjAddr: 0x20902, symBinAddr: 0x100008003, symSize: 0x0 }
  - { offsetInCU: 0x655C, offset: 0x655C, size: 0x8, addend: 0x0, symName: __Z3powB7v160006IdiENSt3__19enable_ifIXaasr3std13is_arithmeticIT_EE5valuesr3std13is_arithmeticIT0_EE5valueENS0_9__promoteIS2_S3_vEEE4type4typeES2_S3_, symObjAddr: 0x8F0, symBinAddr: 0x1000033A0, symSize: 0x38 }
  - { offsetInCU: 0x8BE0, offset: 0x8BE0, size: 0x8, addend: 0x0, symName: __ZN5Eigen8symbolic10SymbolExprINS_8internal17symbolic_last_tagEEC1Ev, symObjAddr: 0x0, symBinAddr: 0x100002AB0, symSize: 0x2C }
  - { offsetInCU: 0x8C08, offset: 0x8C08, size: 0x8, addend: 0x0, symName: __ZNK5Eigen8symbolic8BaseExprINS0_10SymbolExprINS_8internal17symbolic_last_tagEEEEplILi1EEENS0_7AddExprIS5_NS0_9ValueExprINS3_8FixedIntIXT_EEEEEEESB_, symObjAddr: 0x2C, symBinAddr: 0x100002ADC, symSize: 0x48 }
  - { offsetInCU: 0x8C40, offset: 0x8C40, size: 0x8, addend: 0x0, symName: __ZNK5Eigen8internal8FixedIntILi1EEclEv, symObjAddr: 0x74, symBinAddr: 0x100002B24, symSize: 0x10 }
  - { offsetInCU: 0x8C64, offset: 0x8C64, size: 0x8, addend: 0x0, symName: __ZN5Eigen8internal5all_tC1Ev, symObjAddr: 0x84, symBinAddr: 0x100002B34, symSize: 0x2C }
  - { offsetInCU: 0x8C8C, offset: 0x8C8C, size: 0x8, addend: 0x0, symName: _sech, symObjAddr: 0xB0, symBinAddr: 0x100002B60, symSize: 0x30 }
  - { offsetInCU: 0x8CB4, offset: 0x8CB4, size: 0x8, addend: 0x0, symName: _coth, symObjAddr: 0xE0, symBinAddr: 0x100002B90, symSize: 0x30 }
  - { offsetInCU: 0x8CDC, offset: 0x8CDC, size: 0x8, addend: 0x0, symName: _f, symObjAddr: 0x110, symBinAddr: 0x100002BC0, symSize: 0x7B4 }
  - { offsetInCU: 0x8E76, offset: 0x8E76, size: 0x8, addend: 0x0, symName: __ZN5Eigen6MatrixIfLi3ELi3ELi0ELi3ELi3EEC1Ev, symObjAddr: 0x8C4, symBinAddr: 0x100003374, symSize: 0x2C }
  - { offsetInCU: 0x8E9E, offset: 0x8E9E, size: 0x8, addend: 0x0, symName: __ZN5Eigen15DenseCoeffsBaseINS_6MatrixIfLi3ELi3ELi0ELi3ELi3EEELi1EEclEll, symObjAddr: 0x928, symBinAddr: 0x1000033D8, symSize: 0xF4 }
  - { offsetInCU: 0x8EE0, offset: 0x8EE0, size: 0x8, addend: 0x0, symName: _main, symObjAddr: 0xA1C, symBinAddr: 0x1000034CC, symSize: 0x14 }
  - { offsetInCU: 0x8EF9, offset: 0x8EF9, size: 0x8, addend: 0x0, symName: __ZN5Eigen8internal8FixedIntILi1EEC1Ev, symObjAddr: 0xA30, symBinAddr: 0x1000034E0, symSize: 0x2C }
  - { offsetInCU: 0x8F21, offset: 0x8F21, size: 0x8, addend: 0x0, symName: __ZN5Eigen8internal5all_tC2Ev, symObjAddr: 0xA5C, symBinAddr: 0x10000350C, symSize: 0x14 }
  - { offsetInCU: 0x8F49, offset: 0x8F49, size: 0x8, addend: 0x0, symName: __ZN5Eigen8symbolic10SymbolExprINS_8internal17symbolic_last_tagEEC2Ev, symObjAddr: 0xA70, symBinAddr: 0x100003520, symSize: 0x14 }
  - { offsetInCU: 0x8F71, offset: 0x8F71, size: 0x8, addend: 0x0, symName: __ZN5Eigen8internal8FixedIntILi1EEC2Ev, symObjAddr: 0xA84, symBinAddr: 0x100003534, symSize: 0x14 }
  - { offsetInCU: 0x8F99, offset: 0x8F99, size: 0x8, addend: 0x0, symName: __ZNK5Eigen8symbolic8BaseExprINS0_10SymbolExprINS_8internal17symbolic_last_tagEEEE7derivedEv, symObjAddr: 0xA98, symBinAddr: 0x100003548, symSize: 0x14 }
  - { offsetInCU: 0x8FBD, offset: 0x8FBD, size: 0x8, addend: 0x0, symName: __ZN5Eigen8symbolic9ValueExprINS_8internal8FixedIntILi1EEEEC1Ev, symObjAddr: 0xAAC, symBinAddr: 0x10000355C, symSize: 0x2C }
  - { offsetInCU: 0x8FE5, offset: 0x8FE5, size: 0x8, addend: 0x0, symName: __ZN5Eigen8symbolic7AddExprINS0_10SymbolExprINS_8internal17symbolic_last_tagEEENS0_9ValueExprINS3_8FixedIntILi1EEEEEEC1ERKS5_RKS9_, symObjAddr: 0xAD8, symBinAddr: 0x100003588, symSize: 0x3C }
  - { offsetInCU: 0x9029, offset: 0x9029, size: 0x8, addend: 0x0, symName: __ZN5Eigen8symbolic9ValueExprINS_8internal8FixedIntILi1EEEEC2Ev, symObjAddr: 0xB14, symBinAddr: 0x1000035C4, symSize: 0x14 }
  - { offsetInCU: 0x9051, offset: 0x9051, size: 0x8, addend: 0x0, symName: __ZN5Eigen8symbolic7AddExprINS0_10SymbolExprINS_8internal17symbolic_last_tagEEENS0_9ValueExprINS3_8FixedIntILi1EEEEEEC2ERKS5_RKS9_, symObjAddr: 0xB28, symBinAddr: 0x1000035D8, symSize: 0x1C }
  - { offsetInCU: 0x9095, offset: 0x9095, size: 0x8, addend: 0x0, symName: __ZN5Eigen6MatrixIfLi3ELi3ELi0ELi3ELi3EEC2Ev, symObjAddr: 0xB44, symBinAddr: 0x1000035F4, symSize: 0x30 }
  - { offsetInCU: 0x90BD, offset: 0x90BD, size: 0x8, addend: 0x0, symName: __ZN5Eigen15PlainObjectBaseINS_6MatrixIfLi3ELi3ELi0ELi3ELi3EEEEC2Ev, symObjAddr: 0xB74, symBinAddr: 0x100003624, symSize: 0x34 }
  - { offsetInCU: 0x90E5, offset: 0x90E5, size: 0x8, addend: 0x0, symName: __ZN5Eigen15PlainObjectBaseINS_6MatrixIfLi3ELi3ELi0ELi3ELi3EEEE22_check_template_paramsEv, symObjAddr: 0xBA8, symBinAddr: 0x100003658, symSize: 0x4 }
  - { offsetInCU: 0x90F8, offset: 0x90F8, size: 0x8, addend: 0x0, symName: __ZN5Eigen10MatrixBaseINS_6MatrixIfLi3ELi3ELi0ELi3ELi3EEEEC2Ev, symObjAddr: 0xBAC, symBinAddr: 0x10000365C, symSize: 0x2C }
  - { offsetInCU: 0x9120, offset: 0x9120, size: 0x8, addend: 0x0, symName: __ZN5Eigen12DenseStorageIfLi9ELi3ELi3ELi0EEC1Ev, symObjAddr: 0xBD8, symBinAddr: 0x100003688, symSize: 0x2C }
  - { offsetInCU: 0x9148, offset: 0x9148, size: 0x8, addend: 0x0, symName: __ZN5Eigen9DenseBaseINS_6MatrixIfLi3ELi3ELi0ELi3ELi3EEEEC2Ev, symObjAddr: 0xC04, symBinAddr: 0x1000036B4, symSize: 0x14 }
  - { offsetInCU: 0x9170, offset: 0x9170, size: 0x8, addend: 0x0, symName: __ZN5Eigen12DenseStorageIfLi9ELi3ELi3ELi0EEC2Ev, symObjAddr: 0xC18, symBinAddr: 0x1000036C8, symSize: 0x2C }
  - { offsetInCU: 0x9198, offset: 0x9198, size: 0x8, addend: 0x0, symName: __ZN5Eigen8internal11plain_arrayIfLi9ELi0ELi0EEC1Ev, symObjAddr: 0xC44, symBinAddr: 0x1000036F4, symSize: 0x2C }
  - { offsetInCU: 0x91C0, offset: 0x91C0, size: 0x8, addend: 0x0, symName: __ZN5Eigen8internal11plain_arrayIfLi9ELi0ELi0EEC2Ev, symObjAddr: 0xC70, symBinAddr: 0x100003720, symSize: 0x2C }
  - { offsetInCU: 0x91E8, offset: 0x91E8, size: 0x8, addend: 0x0, symName: __ZNK5Eigen9EigenBaseINS_6MatrixIfLi3ELi3ELi0ELi3ELi3EEEE4rowsEv, symObjAddr: 0xCA0, symBinAddr: 0x100003750, symSize: 0x38 }
  - { offsetInCU: 0x920C, offset: 0x920C, size: 0x8, addend: 0x0, symName: __ZNK5Eigen9EigenBaseINS_6MatrixIfLi3ELi3ELi0ELi3ELi3EEEE4colsEv, symObjAddr: 0xCD8, symBinAddr: 0x100003788, symSize: 0x28 }
  - { offsetInCU: 0x9230, offset: 0x9230, size: 0x8, addend: 0x0, symName: __ZN5Eigen15DenseCoeffsBaseINS_6MatrixIfLi3ELi3ELi0ELi3ELi3EEELi1EE8coeffRefEll, symObjAddr: 0xD00, symBinAddr: 0x1000037B0, symSize: 0x80 }
  - { offsetInCU: 0x9272, offset: 0x9272, size: 0x8, addend: 0x0, symName: __ZNK5Eigen9EigenBaseINS_6MatrixIfLi3ELi3ELi0ELi3ELi3EEEE7derivedEv, symObjAddr: 0xD80, symBinAddr: 0x100003830, symSize: 0x14 }
  - { offsetInCU: 0x9296, offset: 0x9296, size: 0x8, addend: 0x0, symName: __ZNK5Eigen15PlainObjectBaseINS_6MatrixIfLi3ELi3ELi0ELi3ELi3EEEE4rowsEv, symObjAddr: 0xDA0, symBinAddr: 0x100003850, symSize: 0x20 }
  - { offsetInCU: 0x92BA, offset: 0x92BA, size: 0x8, addend: 0x0, symName: __ZN5Eigen12DenseStorageIfLi9ELi3ELi3ELi0EE4rowsEv, symObjAddr: 0xDC0, symBinAddr: 0x100003870, symSize: 0x8 }
  - { offsetInCU: 0x92CD, offset: 0x92CD, size: 0x8, addend: 0x0, symName: __ZNK5Eigen15PlainObjectBaseINS_6MatrixIfLi3ELi3ELi0ELi3ELi3EEEE4colsEv, symObjAddr: 0xDC8, symBinAddr: 0x100003878, symSize: 0x20 }
  - { offsetInCU: 0x92F1, offset: 0x92F1, size: 0x8, addend: 0x0, symName: __ZN5Eigen12DenseStorageIfLi9ELi3ELi3ELi0EE4colsEv, symObjAddr: 0xDE8, symBinAddr: 0x100003898, symSize: 0x8 }
  - { offsetInCU: 0x9304, offset: 0x9304, size: 0x8, addend: 0x0, symName: __ZN5Eigen9EigenBaseINS_6MatrixIfLi3ELi3ELi0ELi3ELi3EEEE7derivedEv, symObjAddr: 0xDF0, symBinAddr: 0x1000038A0, symSize: 0x14 }
  - { offsetInCU: 0x9328, offset: 0x9328, size: 0x8, addend: 0x0, symName: __ZN5Eigen8internal9evaluatorINS_6MatrixIfLi3ELi3ELi0ELi3ELi3EEEEC1ERKS3_, symObjAddr: 0xE04, symBinAddr: 0x1000038B4, symSize: 0x34 }
  - { offsetInCU: 0x935F, offset: 0x935F, size: 0x8, addend: 0x0, symName: __ZN5Eigen8internal9evaluatorINS_15PlainObjectBaseINS_6MatrixIfLi3ELi3ELi0ELi3ELi3EEEEEE8coeffRefEll, symObjAddr: 0xE38, symBinAddr: 0x1000038E8, symSize: 0x5C }
  - { offsetInCU: 0x939F, offset: 0x939F, size: 0x8, addend: 0x0, symName: __ZN5Eigen8internal9evaluatorINS_6MatrixIfLi3ELi3ELi0ELi3ELi3EEEED1Ev, symObjAddr: 0xE94, symBinAddr: 0x100003944, symSize: 0x2C }
  - { offsetInCU: 0x93CA, offset: 0x93CA, size: 0x8, addend: 0x0, symName: __ZN5Eigen8internal9evaluatorINS_6MatrixIfLi3ELi3ELi0ELi3ELi3EEEEC2ERKS3_, symObjAddr: 0xEC0, symBinAddr: 0x100003970, symSize: 0x34 }
  - { offsetInCU: 0x9401, offset: 0x9401, size: 0x8, addend: 0x0, symName: __ZN5Eigen8internal9evaluatorINS_15PlainObjectBaseINS_6MatrixIfLi3ELi3ELi0ELi3ELi3EEEEEEC2ERKS5_, symObjAddr: 0xEF4, symBinAddr: 0x1000039A4, symSize: 0x80 }
  - { offsetInCU: 0x9437, offset: 0x9437, size: 0x8, addend: 0x0, symName: __ZN5Eigen8internal14evaluator_baseINS_6MatrixIfLi3ELi3ELi0ELi3ELi3EEEEC2Ev, symObjAddr: 0xF74, symBinAddr: 0x100003A24, symSize: 0x14 }
  - { offsetInCU: 0x945F, offset: 0x945F, size: 0x8, addend: 0x0, symName: __ZNK5Eigen15PlainObjectBaseINS_6MatrixIfLi3ELi3ELi0ELi3ELi3EEEE4dataEv, symObjAddr: 0xF88, symBinAddr: 0x100003A38, symSize: 0x24 }
  - { offsetInCU: 0x9483, offset: 0x9483, size: 0x8, addend: 0x0, symName: __ZNK5Eigen15DenseCoeffsBaseINS_6MatrixIfLi3ELi3ELi0ELi3ELi3EEELi3EE11outerStrideEv, symObjAddr: 0xFAC, symBinAddr: 0x100003A5C, symSize: 0x28 }
  - { offsetInCU: 0x94A7, offset: 0x94A7, size: 0x8, addend: 0x0, symName: __ZN5Eigen8internal30plainobjectbase_evaluator_dataIfLi3EEC1EPKfl, symObjAddr: 0xFD4, symBinAddr: 0x100003A84, symSize: 0x3C }
  - { offsetInCU: 0x94EB, offset: 0x94EB, size: 0x8, addend: 0x0, symName: __ZN5Eigen8internal14evaluator_baseINS_6MatrixIfLi3ELi3ELi0ELi3ELi3EEEED2Ev, symObjAddr: 0x1010, symBinAddr: 0x100003AC0, symSize: 0x14 }
  - { offsetInCU: 0x9513, offset: 0x9513, size: 0x8, addend: 0x0, symName: __ZNK5Eigen12DenseStorageIfLi9ELi3ELi3ELi0EE4dataEv, symObjAddr: 0x1024, symBinAddr: 0x100003AD4, symSize: 0x14 }
  - { offsetInCU: 0x9537, offset: 0x9537, size: 0x8, addend: 0x0, symName: __ZNK5Eigen6MatrixIfLi3ELi3ELi0ELi3ELi3EE11outerStrideEv, symObjAddr: 0x1038, symBinAddr: 0x100003AE8, symSize: 0x34 }
  - { offsetInCU: 0x955B, offset: 0x955B, size: 0x8, addend: 0x0, symName: __ZNK5Eigen9DenseBaseINS_6MatrixIfLi3ELi3ELi0ELi3ELi3EEEE9innerSizeEv, symObjAddr: 0x106C, symBinAddr: 0x100003B1C, symSize: 0x24 }
  - { offsetInCU: 0x957F, offset: 0x957F, size: 0x8, addend: 0x0, symName: __ZN5Eigen8internal30plainobjectbase_evaluator_dataIfLi3EEC2EPKfl, symObjAddr: 0x1090, symBinAddr: 0x100003B40, symSize: 0x40 }
  - { offsetInCU: 0x95C3, offset: 0x95C3, size: 0x8, addend: 0x0, symName: __ZNK5Eigen8internal30plainobjectbase_evaluator_dataIfLi3EE11outerStrideEv, symObjAddr: 0x10E0, symBinAddr: 0x100003B90, symSize: 0x14 }
  - { offsetInCU: 0x95E7, offset: 0x95E7, size: 0x8, addend: 0x0, symName: __ZN5Eigen8internal9evaluatorINS_6MatrixIfLi3ELi3ELi0ELi3ELi3EEEED2Ev, symObjAddr: 0x10F4, symBinAddr: 0x100003BA4, symSize: 0x2C }
  - { offsetInCU: 0x9612, offset: 0x9612, size: 0x8, addend: 0x0, symName: __ZN5Eigen8internal9evaluatorINS_15PlainObjectBaseINS_6MatrixIfLi3ELi3ELi0ELi3ELi3EEEEEED2Ev, symObjAddr: 0x1120, symBinAddr: 0x100003BD0, symSize: 0x2C }
...
