---
triple:          'arm64-apple-darwin'
binary-path:     '/Users/cdavis/Desktop/Work/Research/Scripts/4/cppScripts/rka_iter'
relocations:
  - { offsetInCU: 0x44, offset: 0x44, size: 0x8, addend: 0x0, symName: __ZN5EigenL4lastE, symObjAddr: 0x1550A35, symBinAddr: 0x1000D0020, symSize: 0x0 }
  - { offsetInCU: 0x89F, offset: 0x89F, size: 0x8, addend: 0x0, symName: __ZN5Eigen8internal20manage_caching_sizesENS_6ActionEPlS2_S2_, symObjAddr: 0x6282C, symBinAddr: 0x1000668A4, symSize: 0x138 }
  - { offsetInCU: 0x8C4, offset: 0x8C4, size: 0x8, addend: 0x0, symName: __ZZN5Eigen8internal20manage_caching_sizesENS_6ActionEPlS2_S2_E12m_cacheSizes, symObjAddr: 0xAE0F8, symBinAddr: 0x1000D0000, symSize: 0x0 }
  - { offsetInCU: 0x96B, offset: 0x96B, size: 0x8, addend: 0x0, symName: __ZN5Eigen8internal13p2ui_CONJ_XOREv, symObjAddr: 0x9BD9C, symBinAddr: 0x10009FE14, symSize: 0x28 }
  - { offsetInCU: 0x994, offset: 0x994, size: 0x8, addend: 0x0, symName: __ZZN5Eigen8internal13p2ui_CONJ_XOREvE13conj_XOR_DATA, symObjAddr: 0xACAD8, symBinAddr: 0x1000BDF78, symSize: 0x0 }
  - { offsetInCU: 0x2AFE2, offset: 0x2AFE2, size: 0x8, addend: 0x0, symName: __ZN5Eigen8internal37evaluateProductBlockingSizesHeuristicIffLi4ElEEvRT2_S3_S3_S2_, symObjAddr: 0x6203C, symBinAddr: 0x1000660B4, symSize: 0x7F0 }
  - { offsetInCU: 0x4D51A, offset: 0x4D51A, size: 0x8, addend: 0x0, symName: __ZN5Eigen8internal28check_static_allocation_sizeIfLi9EEEvv, symObjAddr: 0x4E9C, symBinAddr: 0x100008F14, symSize: 0x4 }
  - { offsetInCU: 0x4D547, offset: 0x4D547, size: 0x8, addend: 0x0, symName: __ZN5Eigen8internal22ignore_unused_variableIlEEvRKT_, symObjAddr: 0x5238, symBinAddr: 0x1000092B0, symSize: 0x10 }
  - { offsetInCU: 0x4D576, offset: 0x4D576, size: 0x8, addend: 0x0, symName: __ZN5Eigen8internal24call_assignment_no_aliasINS_6MatrixIfLi3ELi3ELi0ELi3ELi3EEENS_13CwiseBinaryOpINS0_13scalar_sum_opIffEEKNS4_IS6_KNS4_IS6_KNS4_INS0_17scalar_product_opIffEEKNS_14CwiseNullaryOpINS0_18scalar_constant_opIfEEKS3_EESC_EEKNS4_INS0_18scalar_quotient_opIffEEKNS4_IS6_SG_SG_EESE_EEEEKNS4_ISI_SG_SE_EEEESS_EENS0_9assign_opIffEEEEvRT_RKT0_RKT1_, symObjAddr: 0x6FB8, symBinAddr: 0x10000B030, symSize: 0x3C }
  - { offsetInCU: 0x4D64E, offset: 0x4D64E, size: 0x8, addend: 0x0, symName: __ZN5Eigen8internal18check_for_aliasingINS_6MatrixIfLi3ELi3ELi0ELi3ELi3EEENS_13CwiseBinaryOpINS0_13scalar_sum_opIffEEKNS4_IS6_KNS4_IS6_KNS4_INS0_17scalar_product_opIffEEKNS_14CwiseNullaryOpINS0_18scalar_constant_opIfEEKS3_EESC_EEKNS4_INS0_18scalar_quotient_opIffEEKNS4_IS6_SG_SG_EESE_EEEEKNS4_ISI_SG_SE_EEEESS_EEEEvRKT_RKT0_, symObjAddr: 0x7074, symBinAddr: 0x10000B0EC, symSize: 0x60 }
  - { offsetInCU: 0x4D699, offset: 0x4D699, size: 0x8, addend: 0x0, symName: __ZN5Eigen8internal26call_dense_assignment_loopINS_6MatrixIfLi3ELi3ELi0ELi3ELi3EEENS_13CwiseBinaryOpINS0_13scalar_sum_opIffEEKNS4_IS6_KNS4_IS6_KNS4_INS0_17scalar_product_opIffEEKNS_14CwiseNullaryOpINS0_18scalar_constant_opIfEEKS3_EESC_EEKNS4_INS0_18scalar_quotient_opIffEEKNS4_IS6_SG_SG_EESE_EEEEKNS4_ISI_SG_SE_EEEESS_EENS0_9assign_opIffEEEEvRT_RKT0_RKT1_, symObjAddr: 0x70D4, symBinAddr: 0x10000B14C, symSize: 0xE8 }
  - { offsetInCU: 0x4D78C, offset: 0x4D78C, size: 0x8, addend: 0x0, symName: __ZN5Eigen8internal17resize_if_allowedINS_6MatrixIfLi3ELi3ELi0ELi3ELi3EEENS_13CwiseBinaryOpINS0_13scalar_sum_opIffEEKNS4_IS6_KNS4_IS6_KNS4_INS0_17scalar_product_opIffEEKNS_14CwiseNullaryOpINS0_18scalar_constant_opIfEEKS3_EESC_EEKNS4_INS0_18scalar_quotient_opIffEEKNS4_IS6_SG_SG_EESE_EEEEKNS4_ISI_SG_SE_EEEESS_EEffEEvRT_RKT0_RKNS0_9assign_opIT1_T2_EE, symObjAddr: 0x7204, symBinAddr: 0x10000B27C, symSize: 0xF8 }
  - { offsetInCU: 0x4D812, offset: 0x4D812, size: 0x8, addend: 0x0, symName: __ZN5Eigen8internal13first_alignedILi16EflEET1_PKT0_S2_, symObjAddr: 0x9070, symBinAddr: 0x10000D0E8, symSize: 0xA4 }
  - { offsetInCU: 0x4DC3A, offset: 0x4DC3A, size: 0x8, addend: 0x0, symName: __ZN5Eigen8internal6pstoreIf18__simd64_float32_tEEvPT_RKT0_, symObjAddr: 0x98B8, symBinAddr: 0x10000D930, symSize: 0x2C }
  - { offsetInCU: 0x4DCA2, offset: 0x4DCA2, size: 0x8, addend: 0x0, symName: __ZN5Eigen8internal4paddI18__simd64_float32_tEET_RKS3_S5_, symObjAddr: 0x9984, symBinAddr: 0x10000D9FC, symSize: 0x40 }
  - { offsetInCU: 0x4DD39, offset: 0x4DD39, size: 0x8, addend: 0x0, symName: __ZN5Eigen8internal4pmulI18__simd64_float32_tEET_RKS3_S5_, symObjAddr: 0x9C28, symBinAddr: 0x10000DCA0, symSize: 0x40 }
  - { offsetInCU: 0x4DD7F, offset: 0x4DD7F, size: 0x8, addend: 0x0, symName: __ZN5Eigen8internal5pset1I18__simd64_float32_tEET_RKNS0_15unpacket_traitsIS3_E4typeE, symObjAddr: 0x9CBC, symBinAddr: 0x10000DD34, symSize: 0x50 }
  - { offsetInCU: 0x4DDB6, offset: 0x4DDB6, size: 0x8, addend: 0x0, symName: __ZN5Eigen8internal6ploaduI18__simd64_float32_tEET_PKNS0_15unpacket_traitsIS3_E4typeE, symObjAddr: 0x9D0C, symBinAddr: 0x10000DD84, symSize: 0x28 }
  - { offsetInCU: 0x4DE0A, offset: 0x4DE0A, size: 0x8, addend: 0x0, symName: __ZN5Eigen8internal4pdivI18__simd64_float32_tEET_RKS3_S5_, symObjAddr: 0x9DD4, symBinAddr: 0x10000DE4C, symSize: 0x40 }
  - { offsetInCU: 0x4DE50, offset: 0x4DE50, size: 0x8, addend: 0x0, symName: __ZN5Eigen8internal24call_assignment_no_aliasINS_6MatrixIfLi3ELi3ELi0ELi3ELi3EEENS_13CwiseBinaryOpINS0_13scalar_sum_opIffEEKNS4_IS6_KNS4_INS0_17scalar_product_opIffEEKNS_14CwiseNullaryOpINS0_18scalar_constant_opIfEEKS3_EESC_EEKNS4_INS0_18scalar_quotient_opIffEEKNS4_IS6_SG_SG_EESE_EEEEKNS4_ISI_SG_SE_EEEENS0_9assign_opIffEEEEvRT_RKT0_RKT1_, symObjAddr: 0xA080, symBinAddr: 0x10000E0F8, symSize: 0x3C }
  - { offsetInCU: 0x4DF1E, offset: 0x4DF1E, size: 0x8, addend: 0x0, symName: __ZN5Eigen8internal18check_for_aliasingINS_6MatrixIfLi3ELi3ELi0ELi3ELi3EEENS_13CwiseBinaryOpINS0_13scalar_sum_opIffEEKNS4_IS6_KNS4_INS0_17scalar_product_opIffEEKNS_14CwiseNullaryOpINS0_18scalar_constant_opIfEEKS3_EESC_EEKNS4_INS0_18scalar_quotient_opIffEEKNS4_IS6_SG_SG_EESE_EEEEKNS4_ISI_SG_SE_EEEEEEvRKT_RKT0_, symObjAddr: 0xA0FC, symBinAddr: 0x10000E174, symSize: 0x60 }
  - { offsetInCU: 0x4DF69, offset: 0x4DF69, size: 0x8, addend: 0x0, symName: __ZN5Eigen8internal26call_dense_assignment_loopINS_6MatrixIfLi3ELi3ELi0ELi3ELi3EEENS_13CwiseBinaryOpINS0_13scalar_sum_opIffEEKNS4_IS6_KNS4_INS0_17scalar_product_opIffEEKNS_14CwiseNullaryOpINS0_18scalar_constant_opIfEEKS3_EESC_EEKNS4_INS0_18scalar_quotient_opIffEEKNS4_IS6_SG_SG_EESE_EEEEKNS4_ISI_SG_SE_EEEENS0_9assign_opIffEEEEvRT_RKT0_RKT1_, symObjAddr: 0xA15C, symBinAddr: 0x10000E1D4, symSize: 0xE0 }
  - { offsetInCU: 0x4E05C, offset: 0x4E05C, size: 0x8, addend: 0x0, symName: __ZN5Eigen8internal17resize_if_allowedINS_6MatrixIfLi3ELi3ELi0ELi3ELi3EEENS_13CwiseBinaryOpINS0_13scalar_sum_opIffEEKNS4_IS6_KNS4_INS0_17scalar_product_opIffEEKNS_14CwiseNullaryOpINS0_18scalar_constant_opIfEEKS3_EESC_EEKNS4_INS0_18scalar_quotient_opIffEEKNS4_IS6_SG_SG_EESE_EEEEKNS4_ISI_SG_SE_EEEEffEEvRT_RKT0_RKNS0_9assign_opIT1_T2_EE, symObjAddr: 0xA284, symBinAddr: 0x10000E2FC, symSize: 0xF8 }
  - { offsetInCU: 0x4E10C, offset: 0x4E10C, size: 0x8, addend: 0x0, symName: __ZN5Eigen8internal28check_static_allocation_sizeINSt3__17complexIfEELi3EEEvv, symObjAddr: 0xB03C, symBinAddr: 0x10000F0B4, symSize: 0x4 }
  - { offsetInCU: 0x4E139, offset: 0x4E139, size: 0x8, addend: 0x0, symName: __ZN5Eigen8internal22ignore_unused_variableIbEEvRKT_, symObjAddr: 0xB06C, symBinAddr: 0x10000F0E4, symSize: 0x10 }
  - { offsetInCU: 0x4E168, offset: 0x4E168, size: 0x8, addend: 0x0, symName: __ZN5Eigen8internal28check_static_allocation_sizeIfLi2EEEvv, symObjAddr: 0xB4D8, symBinAddr: 0x10000F550, symSize: 0x4 }
  - { offsetInCU: 0x4E195, offset: 0x4E195, size: 0x8, addend: 0x0, symName: __ZN5Eigen8internal28check_static_allocation_sizeIfLi3EEEvv, symObjAddr: 0xB694, symBinAddr: 0x10000F70C, symSize: 0x4 }
  - { offsetInCU: 0x4E27B, offset: 0x4E27B, size: 0x8, addend: 0x0, symName: __ZN5Eigen8internal10predux_maxILi0E18__simd64_float32_tEENS0_15unpacket_traitsIT0_E4typeERKS4_, symObjAddr: 0xE578, symBinAddr: 0x1000125F0, symSize: 0x2C }
  - { offsetInCU: 0x4E2BC, offset: 0x4E2BC, size: 0x8, addend: 0x0, symName: __ZN5Eigen8internal13predux_helperI18__simd64_float32_tPFfRKfS4_EEENS0_15unpacket_traitsIT_E4typeERKS8_T0_, symObjAddr: 0xE5A4, symBinAddr: 0x10001261C, symSize: 0x118 }
  - { offsetInCU: 0x4E370, offset: 0x4E370, size: 0x8, addend: 0x0, symName: __ZN5Eigen8internal4pmaxILi0EfEET0_RKS2_S4_, symObjAddr: 0xE6BC, symBinAddr: 0x100012734, symSize: 0x34 }
  - { offsetInCU: 0x4E3C0, offset: 0x4E3C0, size: 0x8, addend: 0x0, symName: __ZN5Eigen8internal7pstoreuIf18__simd64_float32_tEEvPT_RKT0_, symObjAddr: 0xE6F0, symBinAddr: 0x100012768, symSize: 0x2C }
  - { offsetInCU: 0x4E4A1, offset: 0x4E4A1, size: 0x8, addend: 0x0, symName: __ZN5Eigen8internal4pmaxIfEET_RKS2_S4_, symObjAddr: 0xE750, symBinAddr: 0x1000127C8, symSize: 0x40 }
  - { offsetInCU: 0x4E5B3, offset: 0x4E5B3, size: 0x8, addend: 0x0, symName: __ZN5Eigen8internal4pmaxILi0E18__simd64_float32_tEET0_RKS3_S5_, symObjAddr: 0xE880, symBinAddr: 0x1000128F8, symSize: 0x34 }
  - { offsetInCU: 0x4E603, offset: 0x4E603, size: 0x8, addend: 0x0, symName: __ZN5Eigen8internal4pmaxI18__simd64_float32_tEET_RKS3_S5_, symObjAddr: 0xE8E8, symBinAddr: 0x100012960, symSize: 0x40 }
  - { offsetInCU: 0x4E649, offset: 0x4E649, size: 0x8, addend: 0x0, symName: __ZN5Eigen8internal4pabsI18__simd64_float32_tEET_RKS3_, symObjAddr: 0xEAB0, symBinAddr: 0x100012B28, symSize: 0x2C }
  - { offsetInCU: 0x4E6AA, offset: 0x4E6AA, size: 0x8, addend: 0x0, symName: __ZN5Eigen8internal15call_assignmentINS_6MatrixIfLi3ELi3ELi0ELi3ELi3EEENS_14CwiseNullaryOpINS0_18scalar_constant_opIfEES3_EEEEvRT_RKT0_, symObjAddr: 0xF074, symBinAddr: 0x1000130EC, symSize: 0x50 }
  - { offsetInCU: 0x4E6F5, offset: 0x4E6F5, size: 0x8, addend: 0x0, symName: __ZN5Eigen8internal15call_assignmentINS_6MatrixIfLi3ELi3ELi0ELi3ELi3EEENS_14CwiseNullaryOpINS0_18scalar_constant_opIfEES3_EENS0_9assign_opIffEEEEvRT_RKT0_RKT1_NS0_9enable_ifIXntsr25evaluator_assume_aliasingISC_EE5valueEPvE4typeE, symObjAddr: 0xF0D8, symBinAddr: 0x100013150, symSize: 0x38 }
  - { offsetInCU: 0x4E763, offset: 0x4E763, size: 0x8, addend: 0x0, symName: __ZN5Eigen8internal24call_assignment_no_aliasINS_6MatrixIfLi3ELi3ELi0ELi3ELi3EEENS_14CwiseNullaryOpINS0_18scalar_constant_opIfEES3_EENS0_9assign_opIffEEEEvRT_RKT0_RKT1_, symObjAddr: 0xF110, symBinAddr: 0x100013188, symSize: 0x3C }
  - { offsetInCU: 0x4E831, offset: 0x4E831, size: 0x8, addend: 0x0, symName: __ZN5Eigen8internal18check_for_aliasingINS_6MatrixIfLi3ELi3ELi0ELi3ELi3EEENS_14CwiseNullaryOpINS0_18scalar_constant_opIfEES3_EEEEvRKT_RKT0_, symObjAddr: 0xF18C, symBinAddr: 0x100013204, symSize: 0x60 }
  - { offsetInCU: 0x4E87C, offset: 0x4E87C, size: 0x8, addend: 0x0, symName: __ZN5Eigen8internal26call_dense_assignment_loopINS_6MatrixIfLi3ELi3ELi0ELi3ELi3EEEEEvRT_RKNS_14CwiseNullaryOpINS0_18scalar_constant_opINS4_6ScalarEEES4_EERKNS0_9assign_opIS8_S8_EE, symObjAddr: 0xF1EC, symBinAddr: 0x100013264, symSize: 0x6C }
  - { offsetInCU: 0x4E90B, offset: 0x4E90B, size: 0x8, addend: 0x0, symName: __ZN5Eigen8internal17resize_if_allowedINS_6MatrixIfLi3ELi3ELi0ELi3ELi3EEENS_14CwiseNullaryOpINS0_18scalar_constant_opIfEES3_EEffEEvRT_RKT0_RKNS0_9assign_opIT1_T2_EE, symObjAddr: 0xF26C, symBinAddr: 0x1000132E4, symSize: 0xF8 }
  - { offsetInCU: 0x4E9C5, offset: 0x4E9C5, size: 0x8, addend: 0x0, symName: __ZN5Eigen8internal15call_assignmentINS_6MatrixIfLi3ELi3ELi0ELi3ELi3EEENS_14CwiseNullaryOpINS0_18scalar_identity_opIfEES3_EEEEvRT_RKT0_, symObjAddr: 0xF820, symBinAddr: 0x100013898, symSize: 0x50 }
  - { offsetInCU: 0x4EA10, offset: 0x4EA10, size: 0x8, addend: 0x0, symName: __ZN5Eigen8internal15call_assignmentINS_6MatrixIfLi3ELi3ELi0ELi3ELi3EEENS_14CwiseNullaryOpINS0_18scalar_identity_opIfEES3_EENS0_9assign_opIffEEEEvRT_RKT0_RKT1_NS0_9enable_ifIXntsr25evaluator_assume_aliasingISC_EE5valueEPvE4typeE, symObjAddr: 0xF884, symBinAddr: 0x1000138FC, symSize: 0x38 }
  - { offsetInCU: 0x4EA7E, offset: 0x4EA7E, size: 0x8, addend: 0x0, symName: __ZN5Eigen8internal24call_assignment_no_aliasINS_6MatrixIfLi3ELi3ELi0ELi3ELi3EEENS_14CwiseNullaryOpINS0_18scalar_identity_opIfEES3_EENS0_9assign_opIffEEEEvRT_RKT0_RKT1_, symObjAddr: 0xF8BC, symBinAddr: 0x100013934, symSize: 0x3C }
  - { offsetInCU: 0x4EB4C, offset: 0x4EB4C, size: 0x8, addend: 0x0, symName: __ZN5Eigen8internal18check_for_aliasingINS_6MatrixIfLi3ELi3ELi0ELi3ELi3EEENS_14CwiseNullaryOpINS0_18scalar_identity_opIfEES3_EEEEvRKT_RKT0_, symObjAddr: 0xF938, symBinAddr: 0x1000139B0, symSize: 0x60 }
  - { offsetInCU: 0x4EB97, offset: 0x4EB97, size: 0x8, addend: 0x0, symName: __ZN5Eigen8internal26call_dense_assignment_loopINS_6MatrixIfLi3ELi3ELi0ELi3ELi3EEENS_14CwiseNullaryOpINS0_18scalar_identity_opIfEES3_EENS0_9assign_opIffEEEEvRT_RKT0_RKT1_, symObjAddr: 0xF998, symBinAddr: 0x100013A10, symSize: 0xD8 }
  - { offsetInCU: 0x4EC89, offset: 0x4EC89, size: 0x8, addend: 0x0, symName: __ZN5Eigen8internal17resize_if_allowedINS_6MatrixIfLi3ELi3ELi0ELi3ELi3EEENS_14CwiseNullaryOpINS0_18scalar_identity_opIfEES3_EEffEEvRT_RKT0_RKNS0_9assign_opIT1_T2_EE, symObjAddr: 0xFAB8, symBinAddr: 0x100013B30, symSize: 0xF8 }
  - { offsetInCU: 0x4ED81, offset: 0x4ED81, size: 0x8, addend: 0x0, symName: __ZN5Eigen8internal15call_assignmentINS_6MatrixIfLi3ELi3ELi0ELi3ELi3EEENS_13CwiseBinaryOpINS0_18scalar_quotient_opIffEEKS3_KNS_14CwiseNullaryOpINS0_18scalar_constant_opIfEES7_EEEEEEvRT_RKT0_, symObjAddr: 0x105F4, symBinAddr: 0x10001466C, symSize: 0x50 }
  - { offsetInCU: 0x4EDCC, offset: 0x4EDCC, size: 0x8, addend: 0x0, symName: __ZN5Eigen8internal15call_assignmentINS_6MatrixIfLi3ELi3ELi0ELi3ELi3EEENS_13CwiseBinaryOpINS0_18scalar_quotient_opIffEEKS3_KNS_14CwiseNullaryOpINS0_18scalar_constant_opIfEES7_EEEENS0_9assign_opIffEEEEvRT_RKT0_RKT1_NS0_9enable_ifIXntsr25evaluator_assume_aliasingISI_EE5valueEPvE4typeE, symObjAddr: 0x10644, symBinAddr: 0x1000146BC, symSize: 0x38 }
  - { offsetInCU: 0x4EE3A, offset: 0x4EE3A, size: 0x8, addend: 0x0, symName: __ZN5Eigen8internal24call_assignment_no_aliasINS_6MatrixIfLi3ELi3ELi0ELi3ELi3EEENS_13CwiseBinaryOpINS0_18scalar_quotient_opIffEEKS3_KNS_14CwiseNullaryOpINS0_18scalar_constant_opIfEES7_EEEENS0_9assign_opIffEEEEvRT_RKT0_RKT1_, symObjAddr: 0x1067C, symBinAddr: 0x1000146F4, symSize: 0x3C }
  - { offsetInCU: 0x4EF08, offset: 0x4EF08, size: 0x8, addend: 0x0, symName: __ZN5Eigen8internal18check_for_aliasingINS_6MatrixIfLi3ELi3ELi0ELi3ELi3EEENS_13CwiseBinaryOpINS0_18scalar_quotient_opIffEEKS3_KNS_14CwiseNullaryOpINS0_18scalar_constant_opIfEES7_EEEEEEvRKT_RKT0_, symObjAddr: 0x106F8, symBinAddr: 0x100014770, symSize: 0x60 }
  - { offsetInCU: 0x4EF53, offset: 0x4EF53, size: 0x8, addend: 0x0, symName: __ZN5Eigen8internal26call_dense_assignment_loopINS_6MatrixIfLi3ELi3ELi0ELi3ELi3EEENS_13CwiseBinaryOpINS0_18scalar_quotient_opIffEEKS3_KNS_14CwiseNullaryOpINS0_18scalar_constant_opIfEES7_EEEENS0_9assign_opIffEEEEvRT_RKT0_RKT1_, symObjAddr: 0x10758, symBinAddr: 0x1000147D0, symSize: 0xD8 }
  - { offsetInCU: 0x4F045, offset: 0x4F045, size: 0x8, addend: 0x0, symName: __ZN5Eigen8internal17resize_if_allowedINS_6MatrixIfLi3ELi3ELi0ELi3ELi3EEENS_13CwiseBinaryOpINS0_18scalar_quotient_opIffEEKS3_KNS_14CwiseNullaryOpINS0_18scalar_constant_opIfEES7_EEEEffEEvRT_RKT0_RKNS0_9assign_opIT1_T2_EE, symObjAddr: 0x10878, symBinAddr: 0x1000148F0, symSize: 0xF8 }
  - { offsetInCU: 0x4F1E3, offset: 0x4F1E3, size: 0x8, addend: 0x0, symName: __ZN5Eigen8internal17get_runtime_valueIlEElRKT_, symObjAddr: 0x11E9C, symBinAddr: 0x100015F14, symSize: 0x18 }
  - { offsetInCU: 0x4F4CD, offset: 0x4F4CD, size: 0x8, addend: 0x0, symName: __ZN5Eigen8internalL21first_default_alignedINS_12CwiseUnaryOpINS0_14scalar_abs2_opIfEEKNS_5BlockIKNS5_INS5_INS_6MatrixIfLi3ELi3ELi0ELi3ELi3EEELi3ELi1ELb1EEELin1ELi1ELb0EEELin1ELi1ELb0EEEEEEElRKNS_9DenseBaseIT_EE, symObjAddr: 0x14318, symBinAddr: 0x100018390, symSize: 0x24 }
  - { offsetInCU: 0x4F504, offset: 0x4F504, size: 0x8, addend: 0x0, symName: __ZN5Eigen8internalL13first_alignedILi16ENS_12CwiseUnaryOpINS0_14scalar_abs2_opIfEEKNS_5BlockIKNS5_INS5_INS_6MatrixIfLi3ELi3ELi0ELi3ELi3EEELi3ELi1ELb1EEELin1ELi1ELb0EEELin1ELi1ELb0EEEEEEElRKNS_9DenseBaseIT0_EE, symObjAddr: 0x14434, symBinAddr: 0x1000184AC, symSize: 0x28 }
  - { offsetInCU: 0x4F5E0, offset: 0x4F5E0, size: 0x8, addend: 0x0, symName: __ZN5Eigen8internal4pmulI19__simd128_float32_tEET_RKS3_S5_, symObjAddr: 0x14504, symBinAddr: 0x10001857C, symSize: 0x40 }
  - { offsetInCU: 0x4F626, offset: 0x4F626, size: 0x8, addend: 0x0, symName: __ZN5Eigen8internal6ploaduI19__simd128_float32_tEET_PKNS0_15unpacket_traitsIS3_E4typeE, symObjAddr: 0x14544, symBinAddr: 0x1000185BC, symSize: 0x28 }
  - { offsetInCU: 0x4F67A, offset: 0x4F67A, size: 0x8, addend: 0x0, symName: __ZN5Eigen8internal4paddI19__simd128_float32_tEET_RKS3_S5_, symObjAddr: 0x1456C, symBinAddr: 0x1000185E4, symSize: 0x40 }
  - { offsetInCU: 0x4F6C0, offset: 0x4F6C0, size: 0x8, addend: 0x0, symName: __ZN5Eigen8internal6preduxI19__simd128_float32_tEENS0_15unpacket_traitsIT_E4typeERKS4_, symObjAddr: 0x145AC, symBinAddr: 0x100018624, symSize: 0xAC }
  - { offsetInCU: 0x4F7E5, offset: 0x4F7E5, size: 0x8, addend: 0x0, symName: __ZN5Eigen8internal15call_assignmentINS_5BlockINS2_INS2_INS_6MatrixIfLi3ELi3ELi0ELi3ELi3EEELi3ELi1ELb1EEELin1ELi1ELb0EEELin1ELi1ELb0EEENS_14CwiseNullaryOpINS0_18scalar_constant_opIfEENS3_IfLin1ELi1ELi0ELi3ELi1EEEEEEEvRT_RKT0_, symObjAddr: 0x15038, symBinAddr: 0x1000190B0, symSize: 0x50 }
  - { offsetInCU: 0x4F830, offset: 0x4F830, size: 0x8, addend: 0x0, symName: __ZN5Eigen8internal15call_assignmentINS_5BlockINS2_INS2_INS_6MatrixIfLi3ELi3ELi0ELi3ELi3EEELi3ELi1ELb1EEELin1ELi1ELb0EEELin1ELi1ELb0EEENS_14CwiseNullaryOpINS0_18scalar_constant_opIfEENS3_IfLin1ELi1ELi0ELi3ELi1EEEEENS0_9assign_opIffEEEEvRT_RKT0_RKT1_NS0_9enable_ifIXntsr25evaluator_assume_aliasingISH_EE5valueEPvE4typeE, symObjAddr: 0x15088, symBinAddr: 0x100019100, symSize: 0x38 }
  - { offsetInCU: 0x4F89E, offset: 0x4F89E, size: 0x8, addend: 0x0, symName: __ZN5Eigen8internal24call_assignment_no_aliasINS_5BlockINS2_INS2_INS_6MatrixIfLi3ELi3ELi0ELi3ELi3EEELi3ELi1ELb1EEELin1ELi1ELb0EEELin1ELi1ELb0EEENS_14CwiseNullaryOpINS0_18scalar_constant_opIfEENS3_IfLin1ELi1ELi0ELi3ELi1EEEEENS0_9assign_opIffEEEEvRT_RKT0_RKT1_, symObjAddr: 0x150C0, symBinAddr: 0x100019138, symSize: 0x3C }
  - { offsetInCU: 0x4F96C, offset: 0x4F96C, size: 0x8, addend: 0x0, symName: __ZN5Eigen8internal18check_for_aliasingINS_5BlockINS2_INS2_INS_6MatrixIfLi3ELi3ELi0ELi3ELi3EEELi3ELi1ELb1EEELin1ELi1ELb0EEELin1ELi1ELb0EEENS_14CwiseNullaryOpINS0_18scalar_constant_opIfEENS3_IfLin1ELi1ELi0ELi3ELi1EEEEEEEvRKT_RKT0_, symObjAddr: 0x1513C, symBinAddr: 0x1000191B4, symSize: 0x14 }
  - { offsetInCU: 0x4F9B7, offset: 0x4F9B7, size: 0x8, addend: 0x0, symName: __ZN5Eigen8internal26call_dense_assignment_loopINS_5BlockINS2_INS2_INS_6MatrixIfLi3ELi3ELi0ELi3ELi3EEELi3ELi1ELb1EEELin1ELi1ELb0EEELin1ELi1ELb0EEENS_14CwiseNullaryOpINS0_18scalar_constant_opIfEENS3_IfLin1ELi1ELi0ELi3ELi1EEEEENS0_9assign_opIffEEEEvRT_RKT0_RKT1_, symObjAddr: 0x15150, symBinAddr: 0x1000191C8, symSize: 0xE0 }
  - { offsetInCU: 0x4FA6B, offset: 0x4FA6B, size: 0x8, addend: 0x0, symName: __ZN5Eigen8internal17resize_if_allowedINS_5BlockINS2_INS2_INS_6MatrixIfLi3ELi3ELi0ELi3ELi3EEELi3ELi1ELb1EEELin1ELi1ELb0EEELin1ELi1ELb0EEENS_14CwiseNullaryOpINS0_18scalar_constant_opIfEENS3_IfLin1ELi1ELi0ELi3ELi1EEEEEffEEvRT_RKT0_RKNS0_9assign_opIT1_T2_EE, symObjAddr: 0x15264, symBinAddr: 0x1000192DC, symSize: 0xF8 }
  - { offsetInCU: 0x4FB33, offset: 0x4FB33, size: 0x8, addend: 0x0, symName: __ZN5Eigen8internal6pstoreIf19__simd128_float32_tEEvPT_RKT0_, symObjAddr: 0x15C54, symBinAddr: 0x100019CCC, symSize: 0x2C }
  - { offsetInCU: 0x4FB9B, offset: 0x4FB9B, size: 0x8, addend: 0x0, symName: __ZN5Eigen8internal5pset1I19__simd128_float32_tEET_RKNS0_15unpacket_traitsIS3_E4typeE, symObjAddr: 0x15CD4, symBinAddr: 0x100019D4C, symSize: 0x5C }
  - { offsetInCU: 0x4FBD2, offset: 0x4FBD2, size: 0x8, addend: 0x0, symName: __ZN5Eigen8internal15call_assignmentINS_5BlockINS2_INS2_INS_6MatrixIfLi3ELi3ELi0ELi3ELi3EEELi3ELi1ELb1EEELin1ELi1ELb0EEELin1ELi1ELb0EEENS_13CwiseBinaryOpINS0_18scalar_quotient_opIffEEKNS2_IKS6_Lin1ELi1ELb0EEEKNS_14CwiseNullaryOpINS0_18scalar_constant_opIfEEKNS3_IfLin1ELi1ELi0ELi3ELi1EEEEEEEEEvRT_RKT0_, symObjAddr: 0x16274, symBinAddr: 0x10001A2EC, symSize: 0x50 }
  - { offsetInCU: 0x4FC1D, offset: 0x4FC1D, size: 0x8, addend: 0x0, symName: __ZN5Eigen8internal15call_assignmentINS_5BlockINS2_INS2_INS_6MatrixIfLi3ELi3ELi0ELi3ELi3EEELi3ELi1ELb1EEELin1ELi1ELb0EEELin1ELi1ELb0EEENS_13CwiseBinaryOpINS0_18scalar_quotient_opIffEEKNS2_IKS6_Lin1ELi1ELb0EEEKNS_14CwiseNullaryOpINS0_18scalar_constant_opIfEEKNS3_IfLin1ELi1ELi0ELi3ELi1EEEEEEENS0_9assign_opIffEEEEvRT_RKT0_RKT1_NS0_9enable_ifIXntsr25evaluator_assume_aliasingISQ_EE5valueEPvE4typeE, symObjAddr: 0x162C4, symBinAddr: 0x10001A33C, symSize: 0x38 }
  - { offsetInCU: 0x4FC8B, offset: 0x4FC8B, size: 0x8, addend: 0x0, symName: __ZN5Eigen8internal24call_assignment_no_aliasINS_5BlockINS2_INS2_INS_6MatrixIfLi3ELi3ELi0ELi3ELi3EEELi3ELi1ELb1EEELin1ELi1ELb0EEELin1ELi1ELb0EEENS_13CwiseBinaryOpINS0_18scalar_quotient_opIffEEKNS2_IKS6_Lin1ELi1ELb0EEEKNS_14CwiseNullaryOpINS0_18scalar_constant_opIfEEKNS3_IfLin1ELi1ELi0ELi3ELi1EEEEEEENS0_9assign_opIffEEEEvRT_RKT0_RKT1_, symObjAddr: 0x162FC, symBinAddr: 0x10001A374, symSize: 0x3C }
  - { offsetInCU: 0x4FD59, offset: 0x4FD59, size: 0x8, addend: 0x0, symName: __ZN5Eigen8internal18check_for_aliasingINS_5BlockINS2_INS2_INS_6MatrixIfLi3ELi3ELi0ELi3ELi3EEELi3ELi1ELb1EEELin1ELi1ELb0EEELin1ELi1ELb0EEENS_13CwiseBinaryOpINS0_18scalar_quotient_opIffEEKNS2_IKS6_Lin1ELi1ELb0EEEKNS_14CwiseNullaryOpINS0_18scalar_constant_opIfEEKNS3_IfLin1ELi1ELi0ELi3ELi1EEEEEEEEEvRKT_RKT0_, symObjAddr: 0x16378, symBinAddr: 0x10001A3F0, symSize: 0x14 }
  - { offsetInCU: 0x4FDA4, offset: 0x4FDA4, size: 0x8, addend: 0x0, symName: __ZN5Eigen8internal26call_dense_assignment_loopINS_5BlockINS2_INS2_INS_6MatrixIfLi3ELi3ELi0ELi3ELi3EEELi3ELi1ELb1EEELin1ELi1ELb0EEELin1ELi1ELb0EEENS_13CwiseBinaryOpINS0_18scalar_quotient_opIffEEKNS2_IKS6_Lin1ELi1ELb0EEEKNS_14CwiseNullaryOpINS0_18scalar_constant_opIfEEKNS3_IfLin1ELi1ELi0ELi3ELi1EEEEEEENS0_9assign_opIffEEEEvRT_RKT0_RKT1_, symObjAddr: 0x1638C, symBinAddr: 0x10001A404, symSize: 0xD8 }
  - { offsetInCU: 0x4FE58, offset: 0x4FE58, size: 0x8, addend: 0x0, symName: __ZN5Eigen8internal17resize_if_allowedINS_5BlockINS2_INS2_INS_6MatrixIfLi3ELi3ELi0ELi3ELi3EEELi3ELi1ELb1EEELin1ELi1ELb0EEELin1ELi1ELb0EEENS_13CwiseBinaryOpINS0_18scalar_quotient_opIffEEKNS2_IKS6_Lin1ELi1ELb0EEEKNS_14CwiseNullaryOpINS0_18scalar_constant_opIfEEKNS3_IfLin1ELi1ELi0ELi3ELi1EEEEEEEffEEvRT_RKT0_RKNS0_9assign_opIT1_T2_EE, symObjAddr: 0x16498, symBinAddr: 0x10001A510, symSize: 0xF8 }
  - { offsetInCU: 0x4FEDE, offset: 0x4FEDE, size: 0x8, addend: 0x0, symName: __ZN5Eigen8internal4pdivI19__simd128_float32_tEET_RKS3_S5_, symObjAddr: 0x16D68, symBinAddr: 0x10001ADE0, symSize: 0x40 }
  - { offsetInCU: 0x4FF24, offset: 0x4FF24, size: 0x8, addend: 0x0, symName: __ZN5Eigen8internal15call_assignmentINS_5BlockINS_6MatrixIfLi3ELi3ELi0ELi3ELi3EEELin1ELin1ELb0EEENS_14CwiseNullaryOpINS0_18scalar_constant_opIfEENS3_IfLin1ELin1ELi0ELi3ELi3EEEEENS0_13mul_assign_opIffEEEEvRT_RKT0_RKT1_NS0_9enable_ifIXntsr25evaluator_assume_aliasingISF_EE5valueEPvE4typeE, symObjAddr: 0x179E8, symBinAddr: 0x10001BA60, symSize: 0x38 }
  - { offsetInCU: 0x4FF92, offset: 0x4FF92, size: 0x8, addend: 0x0, symName: __ZN5Eigen8internal24call_assignment_no_aliasINS_5BlockINS_6MatrixIfLi3ELi3ELi0ELi3ELi3EEELin1ELin1ELb0EEENS_14CwiseNullaryOpINS0_18scalar_constant_opIfEENS3_IfLin1ELin1ELi0ELi3ELi3EEEEENS0_13mul_assign_opIffEEEEvRT_RKT0_RKT1_, symObjAddr: 0x17AAC, symBinAddr: 0x10001BB24, symSize: 0x3C }
  - { offsetInCU: 0x50060, offset: 0x50060, size: 0x8, addend: 0x0, symName: __ZN5Eigen8internal18check_for_aliasingINS_5BlockINS_6MatrixIfLi3ELi3ELi0ELi3ELi3EEELin1ELin1ELb0EEENS_14CwiseNullaryOpINS0_18scalar_constant_opIfEENS3_IfLin1ELin1ELi0ELi3ELi3EEEEEEEvRKT_RKT0_, symObjAddr: 0x17B28, symBinAddr: 0x10001BBA0, symSize: 0x60 }
  - { offsetInCU: 0x500AB, offset: 0x500AB, size: 0x8, addend: 0x0, symName: __ZN5Eigen8internal26call_dense_assignment_loopINS_5BlockINS_6MatrixIfLi3ELi3ELi0ELi3ELi3EEELin1ELin1ELb0EEENS_14CwiseNullaryOpINS0_18scalar_constant_opIfEENS3_IfLin1ELin1ELi0ELi3ELi3EEEEENS0_13mul_assign_opIffEEEEvRT_RKT0_RKT1_, symObjAddr: 0x17B88, symBinAddr: 0x10001BC00, symSize: 0xE0 }
  - { offsetInCU: 0x5028D, offset: 0x5028D, size: 0x8, addend: 0x0, symName: __ZN5Eigen8internal17resize_if_allowedINS_5BlockINS_6MatrixIfLi3ELi3ELi0ELi3ELi3EEELin1ELin1ELb0EEENS_14CwiseNullaryOpINS0_18scalar_constant_opIfEENS3_IfLin1ELin1ELi0ELi3ELi3EEEEENS0_13mul_assign_opIffEEEEvRT_RKT0_RKT1_, symObjAddr: 0x17CD8, symBinAddr: 0x10001BD50, symSize: 0xB4 }
  - { offsetInCU: 0x505FA, offset: 0x505FA, size: 0x8, addend: 0x0, symName: __ZN5Eigen8internal24call_assignment_no_aliasINS_3MapINS_6MatrixIfLi1ELin1ELi1ELi1ELi3EEELi0ENS_6StrideILi0ELi0EEEEENS_7ProductINS_9TransposeIKNS_5BlockINSA_INS3_IfLi3ELi3ELi0ELi3ELi3EEELi3ELi1ELb1EEELin1ELi1ELb0EEEEENSA_INSA_ISB_Lin1ELin1ELb0EEELin1ELin1ELb0EEELi0EEENS0_9assign_opIffEEEEvRT_RKT0_RKT1_, symObjAddr: 0x19344, symBinAddr: 0x10001D3BC, symSize: 0x3C }
  - { offsetInCU: 0x5072F, offset: 0x5072F, size: 0x8, addend: 0x0, symName: __ZN5Eigen8internal24call_assignment_no_aliasINS_3MapINS_6MatrixIfLi1ELin1ELi1ELi1ELi3EEELi0ENS_6StrideILi0ELi0EEEEENS_7ProductINS_9TransposeIKNS_5BlockINSA_INS3_IfLi3ELi3ELi0ELi3ELi3EEELi3ELi1ELb1EEELin1ELi1ELb0EEEEENSA_INSA_ISB_Lin1ELin1ELb0EEELin1ELin1ELb0EEELi1EEENS0_9assign_opIffEEEEvRT_RKT0_RKT1_, symObjAddr: 0x196EC, symBinAddr: 0x10001D764, symSize: 0x3C }
  - { offsetInCU: 0x50A09, offset: 0x50A09, size: 0x8, addend: 0x0, symName: __ZN5Eigen8internal18check_for_aliasingINS_3MapINS_6MatrixIfLi1ELin1ELi1ELi1ELi3EEELi0ENS_6StrideILi0ELi0EEEEENS_7ProductINS_9TransposeIKNS_5BlockINSA_INS3_IfLi3ELi3ELi0ELi3ELi3EEELi3ELi1ELb1EEELin1ELi1ELb0EEEEENSA_INSA_ISB_Lin1ELin1ELb0EEELin1ELin1ELb0EEELi1EEEEEvRKT_RKT0_, symObjAddr: 0x197B0, symBinAddr: 0x10001D828, symSize: 0x14 }
  - { offsetInCU: 0x50A54, offset: 0x50A54, size: 0x8, addend: 0x0, symName: __ZN5Eigen8internal26call_dense_assignment_loopINS_3MapINS_6MatrixIfLi1ELin1ELi1ELi1ELi3EEELi0ENS_6StrideILi0ELi0EEEEENS_7ProductINS_9TransposeIKNS_5BlockINSA_INS3_IfLi3ELi3ELi0ELi3ELi3EEELi3ELi1ELb1EEELin1ELi1ELb0EEEEENSA_INSA_ISB_Lin1ELin1ELb0EEELin1ELin1ELb0EEELi1EEENS0_9assign_opIffEEEEvRT_RKT0_RKT1_, symObjAddr: 0x197C4, symBinAddr: 0x10001D83C, symSize: 0xE8 }
  - { offsetInCU: 0x50E5D, offset: 0x50E5D, size: 0x8, addend: 0x0, symName: __ZN5Eigen8internal17resize_if_allowedINS_3MapINS_6MatrixIfLi1ELin1ELi1ELi1ELi3EEELi0ENS_6StrideILi0ELi0EEEEENS_7ProductINS_9TransposeIKNS_5BlockINSA_INS3_IfLi3ELi3ELi0ELi3ELi3EEELi3ELi1ELb1EEELin1ELi1ELb0EEEEENSA_INSA_ISB_Lin1ELin1ELb0EEELin1ELin1ELb0EEELi1EEEffEEvRT_RKT0_RKNS0_9assign_opIT1_T2_EE, symObjAddr: 0x198E0, symBinAddr: 0x10001D958, symSize: 0xF8 }
  - { offsetInCU: 0x5181A, offset: 0x5181A, size: 0x8, addend: 0x0, symName: __ZN5Eigen8internalL21first_default_alignedINS_13CwiseBinaryOpINS0_17scalar_product_opIffEEKNS_9TransposeIKNS_5BlockIKNS5_IKNS6_INS6_INS_6MatrixIfLi3ELi3ELi0ELi3ELi3EEELi3ELi1ELb1EEELin1ELi1ELb0EEEEELi1ELin1ELb1EEEEEKNS6_IKNS6_INS6_IS8_Lin1ELin1ELb0EEELin1ELin1ELb0EEELin1ELi1ELb1EEEEEEElRKNS_9DenseBaseIT_EE, symObjAddr: 0x1C3E0, symBinAddr: 0x100020458, symSize: 0x24 }
  - { offsetInCU: 0x51851, offset: 0x51851, size: 0x8, addend: 0x0, symName: __ZN5Eigen8internalL13first_alignedILi16ENS_13CwiseBinaryOpINS0_17scalar_product_opIffEEKNS_9TransposeIKNS_5BlockIKNS5_IKNS6_INS6_INS_6MatrixIfLi3ELi3ELi0ELi3ELi3EEELi3ELi1ELb1EEELin1ELi1ELb0EEEEELi1ELin1ELb1EEEEEKNS6_IKNS6_INS6_IS8_Lin1ELin1ELb0EEELin1ELin1ELb0EEELin1ELi1ELb1EEEEEEElRKNS_9DenseBaseIT0_EE, symObjAddr: 0x1C4E4, symBinAddr: 0x10002055C, symSize: 0x28 }
  - { offsetInCU: 0x518D0, offset: 0x518D0, size: 0x8, addend: 0x0, symName: __ZN5Eigen8internal15call_assignmentINS_3MapINS_6MatrixIfLi1ELin1ELi1ELi1ELi3EEELi0ENS_6StrideILi0ELi0EEEEENS_5BlockINS8_INS3_IfLi3ELi3ELi0ELi3ELi3EEELin1ELin1ELb0EEELi1ELin1ELb0EEENS0_13add_assign_opIffEEEEvRT_RKT0_RKT1_NS0_9enable_ifIXntsr25evaluator_assume_aliasingISG_EE5valueEPvE4typeE, symObjAddr: 0x1CEF8, symBinAddr: 0x100020F70, symSize: 0x38 }
  - { offsetInCU: 0x5193E, offset: 0x5193E, size: 0x8, addend: 0x0, symName: __ZN5Eigen8internal24call_assignment_no_aliasINS_3MapINS_6MatrixIfLi1ELin1ELi1ELi1ELi3EEELi0ENS_6StrideILi0ELi0EEEEENS_5BlockINS8_INS3_IfLi3ELi3ELi0ELi3ELi3EEELin1ELin1ELb0EEELi1ELin1ELb0EEENS0_13add_assign_opIffEEEEvRT_RKT0_RKT1_, symObjAddr: 0x1CF70, symBinAddr: 0x100020FE8, symSize: 0x3C }
  - { offsetInCU: 0x51A0C, offset: 0x51A0C, size: 0x8, addend: 0x0, symName: __ZN5Eigen8internal18check_for_aliasingINS_3MapINS_6MatrixIfLi1ELin1ELi1ELi1ELi3EEELi0ENS_6StrideILi0ELi0EEEEENS_5BlockINS8_INS3_IfLi3ELi3ELi0ELi3ELi3EEELin1ELin1ELb0EEELi1ELin1ELb0EEEEEvRKT_RKT0_, symObjAddr: 0x1CFEC, symBinAddr: 0x100021064, symSize: 0x14 }
  - { offsetInCU: 0x51A57, offset: 0x51A57, size: 0x8, addend: 0x0, symName: __ZN5Eigen8internal26call_dense_assignment_loopINS_3MapINS_6MatrixIfLi1ELin1ELi1ELi1ELi3EEELi0ENS_6StrideILi0ELi0EEEEENS_5BlockINS8_INS3_IfLi3ELi3ELi0ELi3ELi3EEELin1ELin1ELb0EEELi1ELin1ELb0EEENS0_13add_assign_opIffEEEEvRT_RKT0_RKT1_, symObjAddr: 0x1D000, symBinAddr: 0x100021078, symSize: 0xD8 }
  - { offsetInCU: 0x51BC7, offset: 0x51BC7, size: 0x8, addend: 0x0, symName: __ZN5Eigen8internal17resize_if_allowedINS_3MapINS_6MatrixIfLi1ELin1ELi1ELi1ELi3EEELi0ENS_6StrideILi0ELi0EEEEENS_5BlockINS8_INS3_IfLi3ELi3ELi0ELi3ELi3EEELin1ELin1ELb0EEELi1ELin1ELb0EEENS0_13add_assign_opIffEEEEvRT_RKT0_RKT1_, symObjAddr: 0x1D10C, symBinAddr: 0x100021184, symSize: 0xB4 }
  - { offsetInCU: 0x51E78, offset: 0x51E78, size: 0x8, addend: 0x0, symName: __ZN5Eigen8internal15call_assignmentINS_5BlockINS2_INS_6MatrixIfLi3ELi3ELi0ELi3ELi3EEELin1ELin1ELb0EEELi1ELin1ELb0EEENS_13CwiseBinaryOpINS0_17scalar_product_opIffEEKNS_14CwiseNullaryOpINS0_18scalar_constant_opIfEEKNS3_IfLi1ELin1ELi1ELi1ELi3EEEEEKNS_3MapISD_Li0ENS_6StrideILi0ELi0EEEEEEENS0_13sub_assign_opIffEEEEvRT_RKT0_RKT1_NS0_9enable_ifIXntsr25evaluator_assume_aliasingISR_EE5valueEPvE4typeE, symObjAddr: 0x1DB8C, symBinAddr: 0x100021C04, symSize: 0x38 }
  - { offsetInCU: 0x51EE6, offset: 0x51EE6, size: 0x8, addend: 0x0, symName: __ZN5Eigen8internal24call_assignment_no_aliasINS_5BlockINS2_INS_6MatrixIfLi3ELi3ELi0ELi3ELi3EEELin1ELin1ELb0EEELi1ELin1ELb0EEENS_13CwiseBinaryOpINS0_17scalar_product_opIffEEKNS_14CwiseNullaryOpINS0_18scalar_constant_opIfEEKNS3_IfLi1ELin1ELi1ELi1ELi3EEEEEKNS_3MapISD_Li0ENS_6StrideILi0ELi0EEEEEEENS0_13sub_assign_opIffEEEEvRT_RKT0_RKT1_, symObjAddr: 0x1DC18, symBinAddr: 0x100021C90, symSize: 0x3C }
  - { offsetInCU: 0x51FB4, offset: 0x51FB4, size: 0x8, addend: 0x0, symName: __ZN5Eigen8internal18check_for_aliasingINS_5BlockINS2_INS_6MatrixIfLi3ELi3ELi0ELi3ELi3EEELin1ELin1ELb0EEELi1ELin1ELb0EEENS_13CwiseBinaryOpINS0_17scalar_product_opIffEEKNS_14CwiseNullaryOpINS0_18scalar_constant_opIfEEKNS3_IfLi1ELin1ELi1ELi1ELi3EEEEEKNS_3MapISD_Li0ENS_6StrideILi0ELi0EEEEEEEEEvRKT_RKT0_, symObjAddr: 0x1DC94, symBinAddr: 0x100021D0C, symSize: 0x14 }
  - { offsetInCU: 0x51FFF, offset: 0x51FFF, size: 0x8, addend: 0x0, symName: __ZN5Eigen8internal26call_dense_assignment_loopINS_5BlockINS2_INS_6MatrixIfLi3ELi3ELi0ELi3ELi3EEELin1ELin1ELb0EEELi1ELin1ELb0EEENS_13CwiseBinaryOpINS0_17scalar_product_opIffEEKNS_14CwiseNullaryOpINS0_18scalar_constant_opIfEEKNS3_IfLi1ELin1ELi1ELi1ELi3EEEEEKNS_3MapISD_Li0ENS_6StrideILi0ELi0EEEEEEENS0_13sub_assign_opIffEEEEvRT_RKT0_RKT1_, symObjAddr: 0x1DCA8, symBinAddr: 0x100021D20, symSize: 0xE0 }
  - { offsetInCU: 0x522AC, offset: 0x522AC, size: 0x8, addend: 0x0, symName: __ZN5Eigen8internal17resize_if_allowedINS_5BlockINS2_INS_6MatrixIfLi3ELi3ELi0ELi3ELi3EEELin1ELin1ELb0EEELi1ELin1ELb0EEENS_13CwiseBinaryOpINS0_17scalar_product_opIffEEKNS_14CwiseNullaryOpINS0_18scalar_constant_opIfEEKNS3_IfLi1ELin1ELi1ELi1ELi3EEEEEKNS_3MapISD_Li0ENS_6StrideILi0ELi0EEEEEEENS0_13sub_assign_opIffEEEEvRT_RKT0_RKT1_, symObjAddr: 0x1DDBC, symBinAddr: 0x100021E34, symSize: 0xB4 }
  - { offsetInCU: 0x5255D, offset: 0x5255D, size: 0x8, addend: 0x0, symName: __ZN5Eigen8internal24call_assignment_no_aliasINS_5BlockINS2_INS_6MatrixIfLi3ELi3ELi0ELi3ELi3EEELin1ELin1ELb0EEELin1ELin1ELb0EEENS_7ProductINS_13CwiseBinaryOpINS0_17scalar_product_opIffEEKNS_14CwiseNullaryOpINS0_18scalar_constant_opIfEEKNS3_IfLin1ELi1ELi0ELi3ELi1EEEEEKNS2_INS2_IS4_Li3ELi1ELb1EEELin1ELi1ELb0EEEEENS_3MapINS3_IfLi1ELin1ELi1ELi1ELi3EEELi0ENS_6StrideILi0ELi0EEEEELi0EEENS0_13sub_assign_opIffEEEEvRT_RKT0_RKT1_, symObjAddr: 0x1EC38, symBinAddr: 0x100022CB0, symSize: 0x3C }
  - { offsetInCU: 0x52692, offset: 0x52692, size: 0x8, addend: 0x0, symName: __ZN5Eigen8internal24call_assignment_no_aliasINS_5BlockINS2_INS_6MatrixIfLi3ELi3ELi0ELi3ELi3EEELin1ELin1ELb0EEELin1ELin1ELb0EEENS_7ProductINS_13CwiseBinaryOpINS0_17scalar_product_opIffEEKNS_14CwiseNullaryOpINS0_18scalar_constant_opIfEEKNS3_IfLin1ELi1ELi0ELi3ELi1EEEEEKNS2_INS2_IS4_Li3ELi1ELb1EEELin1ELi1ELb0EEEEENS_3MapINS3_IfLi1ELin1ELi1ELi1ELi3EEELi0ENS_6StrideILi0ELi0EEEEELi1EEENS0_13sub_assign_opIffEEEEvRT_RKT0_RKT1_, symObjAddr: 0x1EE98, symBinAddr: 0x100022F10, symSize: 0x3C }
  - { offsetInCU: 0x52964, offset: 0x52964, size: 0x8, addend: 0x0, symName: __ZN5Eigen8internal18check_for_aliasingINS_5BlockINS2_INS_6MatrixIfLi3ELi3ELi0ELi3ELi3EEELin1ELin1ELb0EEELin1ELin1ELb0EEENS_7ProductINS_13CwiseBinaryOpINS0_17scalar_product_opIffEEKNS_14CwiseNullaryOpINS0_18scalar_constant_opIfEEKNS3_IfLin1ELi1ELi0ELi3ELi1EEEEEKNS2_INS2_IS4_Li3ELi1ELb1EEELin1ELi1ELb0EEEEENS_3MapINS3_IfLi1ELin1ELi1ELi1ELi3EEELi0ENS_6StrideILi0ELi0EEEEELi1EEEEEvRKT_RKT0_, symObjAddr: 0x1EF60, symBinAddr: 0x100022FD8, symSize: 0x60 }
  - { offsetInCU: 0x529AF, offset: 0x529AF, size: 0x8, addend: 0x0, symName: __ZN5Eigen8internal26call_dense_assignment_loopINS_5BlockINS2_INS_6MatrixIfLi3ELi3ELi0ELi3ELi3EEELin1ELin1ELb0EEELin1ELin1ELb0EEENS_7ProductINS_13CwiseBinaryOpINS0_17scalar_product_opIffEEKNS_14CwiseNullaryOpINS0_18scalar_constant_opIfEEKNS3_IfLin1ELi1ELi0ELi3ELi1EEEEEKNS2_INS2_IS4_Li3ELi1ELb1EEELin1ELi1ELb0EEEEENS_3MapINS3_IfLi1ELin1ELi1ELi1ELi3EEELi0ENS_6StrideILi0ELi0EEEEELi1EEENS0_13sub_assign_opIffEEEEvRT_RKT0_RKT1_, symObjAddr: 0x1EFC0, symBinAddr: 0x100023038, symSize: 0xE0 }
  - { offsetInCU: 0x52C73, offset: 0x52C73, size: 0x8, addend: 0x0, symName: __ZN5Eigen8internal17resize_if_allowedINS_5BlockINS2_INS_6MatrixIfLi3ELi3ELi0ELi3ELi3EEELin1ELin1ELb0EEELin1ELin1ELb0EEENS_7ProductINS_13CwiseBinaryOpINS0_17scalar_product_opIffEEKNS_14CwiseNullaryOpINS0_18scalar_constant_opIfEEKNS3_IfLin1ELi1ELi0ELi3ELi1EEEEEKNS2_INS2_IS4_Li3ELi1ELb1EEELin1ELi1ELb0EEEEENS_3MapINS3_IfLi1ELin1ELi1ELi1ELi3EEELi0ENS_6StrideILi0ELi0EEEEELi1EEENS0_13sub_assign_opIffEEEEvRT_RKT0_RKT1_, symObjAddr: 0x1F0E8, symBinAddr: 0x100023160, symSize: 0xB4 }
  - { offsetInCU: 0x52F24, offset: 0x52F24, size: 0x8, addend: 0x0, symName: __ZN5Eigen8internal24call_assignment_no_aliasINS_6MatrixIfLin1ELi1ELi0ELi3ELi1EEENS_13CwiseBinaryOpINS0_17scalar_product_opIffEEKNS_14CwiseNullaryOpINS0_18scalar_constant_opIfEEKS3_EEKNS_5BlockINSD_INS2_IfLi3ELi3ELi0ELi3ELi3EEELi3ELi1ELb1EEELin1ELi1ELb0EEEEENS0_9assign_opIffEEEEvRT_RKT0_RKT1_, symObjAddr: 0x1F6B4, symBinAddr: 0x10002372C, symSize: 0x3C }
  - { offsetInCU: 0x52FF2, offset: 0x52FF2, size: 0x8, addend: 0x0, symName: __ZN5Eigen8internal18check_for_aliasingINS_6MatrixIfLin1ELi1ELi0ELi3ELi1EEENS_13CwiseBinaryOpINS0_17scalar_product_opIffEEKNS_14CwiseNullaryOpINS0_18scalar_constant_opIfEEKS3_EEKNS_5BlockINSD_INS2_IfLi3ELi3ELi0ELi3ELi3EEELi3ELi1ELb1EEELin1ELi1ELb0EEEEEEEvRKT_RKT0_, symObjAddr: 0x1F744, symBinAddr: 0x1000237BC, symSize: 0x14 }
  - { offsetInCU: 0x5303D, offset: 0x5303D, size: 0x8, addend: 0x0, symName: __ZN5Eigen8internal26call_dense_assignment_loopINS_6MatrixIfLin1ELi1ELi0ELi3ELi1EEENS_13CwiseBinaryOpINS0_17scalar_product_opIffEEKNS_14CwiseNullaryOpINS0_18scalar_constant_opIfEEKS3_EEKNS_5BlockINSD_INS2_IfLi3ELi3ELi0ELi3ELi3EEELi3ELi1ELb1EEELin1ELi1ELb0EEEEENS0_9assign_opIffEEEEvRT_RKT0_RKT1_, symObjAddr: 0x1F758, symBinAddr: 0x1000237D0, symSize: 0xE0 }
  - { offsetInCU: 0x530F1, offset: 0x530F1, size: 0x8, addend: 0x0, symName: __ZN5Eigen8internal17resize_if_allowedINS_6MatrixIfLin1ELi1ELi0ELi3ELi1EEENS_13CwiseBinaryOpINS0_17scalar_product_opIffEEKNS_14CwiseNullaryOpINS0_18scalar_constant_opIfEEKS3_EEKNS_5BlockINSD_INS2_IfLi3ELi3ELi0ELi3ELi3EEELi3ELi1ELb1EEELin1ELi1ELb0EEEEEffEEvRT_RKT0_RKNS0_9assign_opIT1_T2_EE, symObjAddr: 0x1F86C, symBinAddr: 0x1000238E4, symSize: 0xF8 }
  - { offsetInCU: 0x531DD, offset: 0x531DD, size: 0x8, addend: 0x0, symName: __ZN5Eigen8internal15call_assignmentINS_5BlockINS_6MatrixIfLi3ELi3ELi0ELi3ELi3EEELi3ELin1ELb1EEENS_14CwiseNullaryOpINS0_18scalar_constant_opIfEENS3_IfLi3ELin1ELi0ELi3ELi3EEEEENS0_13mul_assign_opIffEEEEvRT_RKT0_RKT1_NS0_9enable_ifIXntsr25evaluator_assume_aliasingISF_EE5valueEPvE4typeE, symObjAddr: 0x233D4, symBinAddr: 0x10002744C, symSize: 0x38 }
  - { offsetInCU: 0x5324B, offset: 0x5324B, size: 0x8, addend: 0x0, symName: __ZN5Eigen8internal24call_assignment_no_aliasINS_5BlockINS_6MatrixIfLi3ELi3ELi0ELi3ELi3EEELi3ELin1ELb1EEENS_14CwiseNullaryOpINS0_18scalar_constant_opIfEENS3_IfLi3ELin1ELi0ELi3ELi3EEEEENS0_13mul_assign_opIffEEEEvRT_RKT0_RKT1_, symObjAddr: 0x2346C, symBinAddr: 0x1000274E4, symSize: 0x3C }
  - { offsetInCU: 0x53319, offset: 0x53319, size: 0x8, addend: 0x0, symName: __ZN5Eigen8internal18check_for_aliasingINS_5BlockINS_6MatrixIfLi3ELi3ELi0ELi3ELi3EEELi3ELin1ELb1EEENS_14CwiseNullaryOpINS0_18scalar_constant_opIfEENS3_IfLi3ELin1ELi0ELi3ELi3EEEEEEEvRKT_RKT0_, symObjAddr: 0x234E8, symBinAddr: 0x100027560, symSize: 0x60 }
  - { offsetInCU: 0x53364, offset: 0x53364, size: 0x8, addend: 0x0, symName: __ZN5Eigen8internal26call_dense_assignment_loopINS_5BlockINS_6MatrixIfLi3ELi3ELi0ELi3ELi3EEELi3ELin1ELb1EEENS_14CwiseNullaryOpINS0_18scalar_constant_opIfEENS3_IfLi3ELin1ELi0ELi3ELi3EEEEENS0_13mul_assign_opIffEEEEvRT_RKT0_RKT1_, symObjAddr: 0x23548, symBinAddr: 0x1000275C0, symSize: 0xE0 }
  - { offsetInCU: 0x53456, offset: 0x53456, size: 0x8, addend: 0x0, symName: __ZN5Eigen8internal17resize_if_allowedINS_5BlockINS_6MatrixIfLi3ELi3ELi0ELi3ELi3EEELi3ELin1ELb1EEENS_14CwiseNullaryOpINS0_18scalar_constant_opIfEENS3_IfLi3ELin1ELi0ELi3ELi3EEEEENS0_13mul_assign_opIffEEEEvRT_RKT0_RKT1_, symObjAddr: 0x23690, symBinAddr: 0x100027708, symSize: 0xB4 }
  - { offsetInCU: 0x534E6, offset: 0x534E6, size: 0x8, addend: 0x0, symName: __ZN5Eigen8internal5ploadI19__simd128_float32_tEET_PKNS0_15unpacket_traitsIS3_E4typeE, symObjAddr: 0x23FB0, symBinAddr: 0x100028028, symSize: 0x28 }
  - { offsetInCU: 0x5353A, offset: 0x5353A, size: 0x8, addend: 0x0, symName: __ZN5Eigen8internal24call_assignment_no_aliasINS_3MapINS_6MatrixIfLi3ELi1ELi0ELi3ELi1EEELi0ENS_6StrideILi0ELi0EEEEENS_7ProductINS_5BlockINS9_INS3_IfLi3ELi3ELi0ELi3ELi3EEELi3ELin1ELb1EEELi3ELin1ELb0EEENS9_INS9_ISA_Li3ELi1ELb1EEELin1ELi1ELb0EEELi0EEENS0_9assign_opIffEEEEvRT_RKT0_RKT1_, symObjAddr: 0x24B4C, symBinAddr: 0x100028BC4, symSize: 0x3C }
  - { offsetInCU: 0x5366F, offset: 0x5366F, size: 0x8, addend: 0x0, symName: __ZN5Eigen8internal24call_assignment_no_aliasINS_3MapINS_6MatrixIfLi3ELi1ELi0ELi3ELi1EEELi0ENS_6StrideILi0ELi0EEEEENS_7ProductINS_5BlockINS9_INS3_IfLi3ELi3ELi0ELi3ELi3EEELi3ELin1ELb1EEELi3ELin1ELb0EEENS9_INS9_ISA_Li3ELi1ELb1EEELin1ELi1ELb0EEELi1EEENS0_9assign_opIffEEEEvRT_RKT0_RKT1_, symObjAddr: 0x24EC0, symBinAddr: 0x100028F38, symSize: 0x3C }
  - { offsetInCU: 0x5373D, offset: 0x5373D, size: 0x8, addend: 0x0, symName: __ZN5Eigen8internal18check_for_aliasingINS_3MapINS_6MatrixIfLi3ELi1ELi0ELi3ELi1EEELi0ENS_6StrideILi0ELi0EEEEENS_7ProductINS_5BlockINS9_INS3_IfLi3ELi3ELi0ELi3ELi3EEELi3ELin1ELb1EEELi3ELin1ELb0EEENS9_INS9_ISA_Li3ELi1ELb1EEELin1ELi1ELb0EEELi1EEEEEvRKT_RKT0_, symObjAddr: 0x24F84, symBinAddr: 0x100028FFC, symSize: 0x14 }
  - { offsetInCU: 0x53788, offset: 0x53788, size: 0x8, addend: 0x0, symName: __ZN5Eigen8internal26call_dense_assignment_loopINS_3MapINS_6MatrixIfLi3ELi1ELi0ELi3ELi1EEELi0ENS_6StrideILi0ELi0EEEEENS_7ProductINS_5BlockINS9_INS3_IfLi3ELi3ELi0ELi3ELi3EEELi3ELin1ELb1EEELi3ELin1ELb0EEENS9_INS9_ISA_Li3ELi1ELb1EEELin1ELi1ELb0EEELi1EEENS0_9assign_opIffEEEEvRT_RKT0_RKT1_, symObjAddr: 0x24F98, symBinAddr: 0x100029010, symSize: 0xE8 }
  - { offsetInCU: 0x5383D, offset: 0x5383D, size: 0x8, addend: 0x0, symName: __ZN5Eigen8internal17resize_if_allowedINS_3MapINS_6MatrixIfLi3ELi1ELi0ELi3ELi1EEELi0ENS_6StrideILi0ELi0EEEEENS_7ProductINS_5BlockINS9_INS3_IfLi3ELi3ELi0ELi3ELi3EEELi3ELin1ELb1EEELi3ELin1ELb0EEENS9_INS9_ISA_Li3ELi1ELb1EEELin1ELi1ELb0EEELi1EEEffEEvRT_RKT0_RKNS0_9assign_opIT1_T2_EE, symObjAddr: 0x250B4, symBinAddr: 0x10002912C, symSize: 0xF8 }
  - { offsetInCU: 0x53F60, offset: 0x53F60, size: 0x8, addend: 0x0, symName: __ZN5Eigen8internal5pmaddI18__simd64_float32_tEET_RKS3_S5_S5_, symObjAddr: 0x27DC8, symBinAddr: 0x10002BE40, symSize: 0x54 }
  - { offsetInCU: 0x53FB5, offset: 0x53FB5, size: 0x8, addend: 0x0, symName: __ZN5Eigen8internal15call_assignmentINS_3MapINS_6MatrixIfLi3ELi1ELi0ELi3ELi1EEELi0ENS_6StrideILi0ELi0EEEEENS_5BlockINS8_INS3_IfLi3ELi3ELi0ELi3ELi3EEELi3ELin1ELb1EEELi3ELi1ELb1EEENS0_13add_assign_opIffEEEEvRT_RKT0_RKT1_NS0_9enable_ifIXntsr25evaluator_assume_aliasingISG_EE5valueEPvE4typeE, symObjAddr: 0x285EC, symBinAddr: 0x10002C664, symSize: 0x38 }
  - { offsetInCU: 0x54023, offset: 0x54023, size: 0x8, addend: 0x0, symName: __ZN5Eigen8internal24call_assignment_no_aliasINS_3MapINS_6MatrixIfLi3ELi1ELi0ELi3ELi1EEELi0ENS_6StrideILi0ELi0EEEEENS_5BlockINS8_INS3_IfLi3ELi3ELi0ELi3ELi3EEELi3ELin1ELb1EEELi3ELi1ELb1EEENS0_13add_assign_opIffEEEEvRT_RKT0_RKT1_, symObjAddr: 0x28638, symBinAddr: 0x10002C6B0, symSize: 0x3C }
  - { offsetInCU: 0x540F1, offset: 0x540F1, size: 0x8, addend: 0x0, symName: __ZN5Eigen8internal18check_for_aliasingINS_3MapINS_6MatrixIfLi3ELi1ELi0ELi3ELi1EEELi0ENS_6StrideILi0ELi0EEEEENS_5BlockINS8_INS3_IfLi3ELi3ELi0ELi3ELi3EEELi3ELin1ELb1EEELi3ELi1ELb1EEEEEvRKT_RKT0_, symObjAddr: 0x286B4, symBinAddr: 0x10002C72C, symSize: 0x14 }
  - { offsetInCU: 0x5413C, offset: 0x5413C, size: 0x8, addend: 0x0, symName: __ZN5Eigen8internal26call_dense_assignment_loopINS_3MapINS_6MatrixIfLi3ELi1ELi0ELi3ELi1EEELi0ENS_6StrideILi0ELi0EEEEENS_5BlockINS8_INS3_IfLi3ELi3ELi0ELi3ELi3EEELi3ELin1ELb1EEELi3ELi1ELb1EEENS0_13add_assign_opIffEEEEvRT_RKT0_RKT1_, symObjAddr: 0x286C8, symBinAddr: 0x10002C740, symSize: 0xD8 }
  - { offsetInCU: 0x541F0, offset: 0x541F0, size: 0x8, addend: 0x0, symName: __ZN5Eigen8internal17resize_if_allowedINS_3MapINS_6MatrixIfLi3ELi1ELi0ELi3ELi1EEELi0ENS_6StrideILi0ELi0EEEEENS_5BlockINS8_INS3_IfLi3ELi3ELi0ELi3ELi3EEELi3ELin1ELb1EEELi3ELi1ELb1EEENS0_13add_assign_opIffEEEEvRT_RKT0_RKT1_, symObjAddr: 0x287D4, symBinAddr: 0x10002C84C, symSize: 0xB4 }
  - { offsetInCU: 0x542FB, offset: 0x542FB, size: 0x8, addend: 0x0, symName: __ZN5Eigen8internal15call_assignmentINS_5BlockINS2_INS_6MatrixIfLi3ELi3ELi0ELi3ELi3EEELi3ELin1ELb1EEELi3ELi1ELb1EEENS_13CwiseBinaryOpINS0_17scalar_product_opIffEEKNS_14CwiseNullaryOpINS0_18scalar_constant_opIfEEKNS3_IfLi3ELi1ELi0ELi3ELi1EEEEEKNS_3MapISD_Li0ENS_6StrideILi0ELi0EEEEEEENS0_13sub_assign_opIffEEEEvRT_RKT0_RKT1_NS0_9enable_ifIXntsr25evaluator_assume_aliasingISR_EE5valueEPvE4typeE, symObjAddr: 0x295BC, symBinAddr: 0x10002D634, symSize: 0x38 }
  - { offsetInCU: 0x54369, offset: 0x54369, size: 0x8, addend: 0x0, symName: __ZN5Eigen8internal24call_assignment_no_aliasINS_5BlockINS2_INS_6MatrixIfLi3ELi3ELi0ELi3ELi3EEELi3ELin1ELb1EEELi3ELi1ELb1EEENS_13CwiseBinaryOpINS0_17scalar_product_opIffEEKNS_14CwiseNullaryOpINS0_18scalar_constant_opIfEEKNS3_IfLi3ELi1ELi0ELi3ELi1EEEEEKNS_3MapISD_Li0ENS_6StrideILi0ELi0EEEEEEENS0_13sub_assign_opIffEEEEvRT_RKT0_RKT1_, symObjAddr: 0x2961C, symBinAddr: 0x10002D694, symSize: 0x3C }
  - { offsetInCU: 0x54437, offset: 0x54437, size: 0x8, addend: 0x0, symName: __ZN5Eigen8internal18check_for_aliasingINS_5BlockINS2_INS_6MatrixIfLi3ELi3ELi0ELi3ELi3EEELi3ELin1ELb1EEELi3ELi1ELb1EEENS_13CwiseBinaryOpINS0_17scalar_product_opIffEEKNS_14CwiseNullaryOpINS0_18scalar_constant_opIfEEKNS3_IfLi3ELi1ELi0ELi3ELi1EEEEEKNS_3MapISD_Li0ENS_6StrideILi0ELi0EEEEEEEEEvRKT_RKT0_, symObjAddr: 0x29698, symBinAddr: 0x10002D710, symSize: 0x14 }
  - { offsetInCU: 0x54482, offset: 0x54482, size: 0x8, addend: 0x0, symName: __ZN5Eigen8internal26call_dense_assignment_loopINS_5BlockINS2_INS_6MatrixIfLi3ELi3ELi0ELi3ELi3EEELi3ELin1ELb1EEELi3ELi1ELb1EEENS_13CwiseBinaryOpINS0_17scalar_product_opIffEEKNS_14CwiseNullaryOpINS0_18scalar_constant_opIfEEKNS3_IfLi3ELi1ELi0ELi3ELi1EEEEEKNS_3MapISD_Li0ENS_6StrideILi0ELi0EEEEEEENS0_13sub_assign_opIffEEEEvRT_RKT0_RKT1_, symObjAddr: 0x296AC, symBinAddr: 0x10002D724, symSize: 0xE0 }
  - { offsetInCU: 0x54536, offset: 0x54536, size: 0x8, addend: 0x0, symName: __ZN5Eigen8internal17resize_if_allowedINS_5BlockINS2_INS_6MatrixIfLi3ELi3ELi0ELi3ELi3EEELi3ELin1ELb1EEELi3ELi1ELb1EEENS_13CwiseBinaryOpINS0_17scalar_product_opIffEEKNS_14CwiseNullaryOpINS0_18scalar_constant_opIfEEKNS3_IfLi3ELi1ELi0ELi3ELi1EEEEEKNS_3MapISD_Li0ENS_6StrideILi0ELi0EEEEEEENS0_13sub_assign_opIffEEEEvRT_RKT0_RKT1_, symObjAddr: 0x297C0, symBinAddr: 0x10002D838, symSize: 0xB4 }
  - { offsetInCU: 0x54609, offset: 0x54609, size: 0x8, addend: 0x0, symName: __ZN5Eigen8internal4psubI18__simd64_float32_tEET_RKS3_S5_, symObjAddr: 0x2A084, symBinAddr: 0x10002E0FC, symSize: 0x40 }
  - { offsetInCU: 0x54687, offset: 0x54687, size: 0x8, addend: 0x0, symName: __ZN5Eigen8internal24call_assignment_no_aliasINS_5BlockINS2_INS_6MatrixIfLi3ELi3ELi0ELi3ELi3EEELi3ELin1ELb1EEELi3ELin1ELb0EEENS_7ProductINS_13CwiseBinaryOpINS0_17scalar_product_opIffEEKNS_14CwiseNullaryOpINS0_18scalar_constant_opIfEEKNS3_IfLi3ELi1ELi0ELi3ELi1EEEEEKNS_3MapISE_Li0ENS_6StrideILi0ELi0EEEEEEENS_9TransposeIKNS2_INS2_IS4_Li3ELi1ELb1EEELin1ELi1ELb0EEEEELi0EEENS0_13sub_assign_opIffEEEEvRT_RKT0_RKT1_, symObjAddr: 0x2A768, symBinAddr: 0x10002E7E0, symSize: 0x3C }
  - { offsetInCU: 0x547BC, offset: 0x547BC, size: 0x8, addend: 0x0, symName: __ZN5Eigen8internal24call_assignment_no_aliasINS_5BlockINS2_INS_6MatrixIfLi3ELi3ELi0ELi3ELi3EEELi3ELin1ELb1EEELi3ELin1ELb0EEENS_7ProductINS_13CwiseBinaryOpINS0_17scalar_product_opIffEEKNS_14CwiseNullaryOpINS0_18scalar_constant_opIfEEKNS3_IfLi3ELi1ELi0ELi3ELi1EEEEEKNS_3MapISE_Li0ENS_6StrideILi0ELi0EEEEEEENS_9TransposeIKNS2_INS2_IS4_Li3ELi1ELb1EEELin1ELi1ELb0EEEEELi1EEENS0_13sub_assign_opIffEEEEvRT_RKT0_RKT1_, symObjAddr: 0x2A970, symBinAddr: 0x10002E9E8, symSize: 0x3C }
  - { offsetInCU: 0x54A8E, offset: 0x54A8E, size: 0x8, addend: 0x0, symName: __ZN5Eigen8internal18check_for_aliasingINS_5BlockINS2_INS_6MatrixIfLi3ELi3ELi0ELi3ELi3EEELi3ELin1ELb1EEELi3ELin1ELb0EEENS_7ProductINS_13CwiseBinaryOpINS0_17scalar_product_opIffEEKNS_14CwiseNullaryOpINS0_18scalar_constant_opIfEEKNS3_IfLi3ELi1ELi0ELi3ELi1EEEEEKNS_3MapISE_Li0ENS_6StrideILi0ELi0EEEEEEENS_9TransposeIKNS2_INS2_IS4_Li3ELi1ELb1EEELin1ELi1ELb0EEEEELi1EEEEEvRKT_RKT0_, symObjAddr: 0x2AA38, symBinAddr: 0x10002EAB0, symSize: 0x60 }
  - { offsetInCU: 0x54AD9, offset: 0x54AD9, size: 0x8, addend: 0x0, symName: __ZN5Eigen8internal26call_dense_assignment_loopINS_5BlockINS2_INS_6MatrixIfLi3ELi3ELi0ELi3ELi3EEELi3ELin1ELb1EEELi3ELin1ELb0EEENS_7ProductINS_13CwiseBinaryOpINS0_17scalar_product_opIffEEKNS_14CwiseNullaryOpINS0_18scalar_constant_opIfEEKNS3_IfLi3ELi1ELi0ELi3ELi1EEEEEKNS_3MapISE_Li0ENS_6StrideILi0ELi0EEEEEEENS_9TransposeIKNS2_INS2_IS4_Li3ELi1ELb1EEELin1ELi1ELb0EEEEELi1EEENS0_13sub_assign_opIffEEEEvRT_RKT0_RKT1_, symObjAddr: 0x2AA98, symBinAddr: 0x10002EB10, symSize: 0xE8 }
  - { offsetInCU: 0x54DB2, offset: 0x54DB2, size: 0x8, addend: 0x0, symName: __ZN5Eigen8internal17resize_if_allowedINS_5BlockINS2_INS_6MatrixIfLi3ELi3ELi0ELi3ELi3EEELi3ELin1ELb1EEELi3ELin1ELb0EEENS_7ProductINS_13CwiseBinaryOpINS0_17scalar_product_opIffEEKNS_14CwiseNullaryOpINS0_18scalar_constant_opIfEEKNS3_IfLi3ELi1ELi0ELi3ELi1EEEEEKNS_3MapISE_Li0ENS_6StrideILi0ELi0EEEEEEENS_9TransposeIKNS2_INS2_IS4_Li3ELi1ELb1EEELin1ELi1ELb0EEEEELi1EEENS0_13sub_assign_opIffEEEEvRT_RKT0_RKT1_, symObjAddr: 0x2ABC8, symBinAddr: 0x10002EC40, symSize: 0xB4 }
  - { offsetInCU: 0x550D7, offset: 0x550D7, size: 0x8, addend: 0x0, symName: __ZN5Eigen8internal24call_assignment_no_aliasINS_6MatrixIfLi3ELi1ELi0ELi3ELi1EEENS_13CwiseBinaryOpINS0_17scalar_product_opIffEEKNS_14CwiseNullaryOpINS0_18scalar_constant_opIfEEKS3_EEKNS_3MapIS3_Li0ENS_6StrideILi0ELi0EEEEEEENS0_9assign_opIffEEEEvRT_RKT0_RKT1_, symObjAddr: 0x2B028, symBinAddr: 0x10002F0A0, symSize: 0x3C }
  - { offsetInCU: 0x551A5, offset: 0x551A5, size: 0x8, addend: 0x0, symName: __ZN5Eigen8internal18check_for_aliasingINS_6MatrixIfLi3ELi1ELi0ELi3ELi1EEENS_13CwiseBinaryOpINS0_17scalar_product_opIffEEKNS_14CwiseNullaryOpINS0_18scalar_constant_opIfEEKS3_EEKNS_3MapIS3_Li0ENS_6StrideILi0ELi0EEEEEEEEEvRKT_RKT0_, symObjAddr: 0x2B0B8, symBinAddr: 0x10002F130, symSize: 0x14 }
  - { offsetInCU: 0x551F0, offset: 0x551F0, size: 0x8, addend: 0x0, symName: __ZN5Eigen8internal26call_dense_assignment_loopINS_6MatrixIfLi3ELi1ELi0ELi3ELi1EEENS_13CwiseBinaryOpINS0_17scalar_product_opIffEEKNS_14CwiseNullaryOpINS0_18scalar_constant_opIfEEKS3_EEKNS_3MapIS3_Li0ENS_6StrideILi0ELi0EEEEEEENS0_9assign_opIffEEEEvRT_RKT0_RKT1_, symObjAddr: 0x2B0CC, symBinAddr: 0x10002F144, symSize: 0xE0 }
  - { offsetInCU: 0x552A4, offset: 0x552A4, size: 0x8, addend: 0x0, symName: __ZN5Eigen8internal17resize_if_allowedINS_6MatrixIfLi3ELi1ELi0ELi3ELi1EEENS_13CwiseBinaryOpINS0_17scalar_product_opIffEEKNS_14CwiseNullaryOpINS0_18scalar_constant_opIfEEKS3_EEKNS_3MapIS3_Li0ENS_6StrideILi0ELi0EEEEEEEffEEvRT_RKT0_RKNS0_9assign_opIT1_T2_EE, symObjAddr: 0x2B1AC, symBinAddr: 0x10002F224, symSize: 0xF8 }
  - { offsetInCU: 0x555FD, offset: 0x555FD, size: 0x8, addend: 0x0, symName: __ZN5Eigen8internal13is_same_denseINS_6MatrixIfLi3ELi3ELi0ELi3ELi3EEES3_EEbRKT_RKT0_PNS0_9enable_ifIXsr19possibly_same_denseIS4_S7_EE5valueEvE4typeE, symObjAddr: 0x2E1EC, symBinAddr: 0x100032264, symSize: 0xC0 }
  - { offsetInCU: 0x55657, offset: 0x55657, size: 0x8, addend: 0x0, symName: __ZN5Eigen8internal15call_assignmentINS_8DiagonalINS_6MatrixIfLi3ELi3ELi0ELi3ELi3EEELi0EEENS_14CwiseNullaryOpINS0_18scalar_constant_opIfEENS3_IfLi3ELi1ELi0ELi3ELi1EEEEEEEvRT_RKT0_, symObjAddr: 0x2F4AC, symBinAddr: 0x100033524, symSize: 0x50 }
  - { offsetInCU: 0x556A2, offset: 0x556A2, size: 0x8, addend: 0x0, symName: __ZN5Eigen8internal15call_assignmentINS_8DiagonalINS_6MatrixIfLi3ELi3ELi0ELi3ELi3EEELi0EEENS_14CwiseNullaryOpINS0_18scalar_constant_opIfEENS3_IfLi3ELi1ELi0ELi3ELi1EEEEENS0_9assign_opIffEEEEvRT_RKT0_RKT1_NS0_9enable_ifIXntsr25evaluator_assume_aliasingISF_EE5valueEPvE4typeE, symObjAddr: 0x2F4FC, symBinAddr: 0x100033574, symSize: 0x38 }
  - { offsetInCU: 0x55710, offset: 0x55710, size: 0x8, addend: 0x0, symName: __ZN5Eigen8internal24call_assignment_no_aliasINS_8DiagonalINS_6MatrixIfLi3ELi3ELi0ELi3ELi3EEELi0EEENS_14CwiseNullaryOpINS0_18scalar_constant_opIfEENS3_IfLi3ELi1ELi0ELi3ELi1EEEEENS0_9assign_opIffEEEEvRT_RKT0_RKT1_, symObjAddr: 0x2F534, symBinAddr: 0x1000335AC, symSize: 0x3C }
  - { offsetInCU: 0x557DE, offset: 0x557DE, size: 0x8, addend: 0x0, symName: __ZN5Eigen8internal18check_for_aliasingINS_8DiagonalINS_6MatrixIfLi3ELi3ELi0ELi3ELi3EEELi0EEENS_14CwiseNullaryOpINS0_18scalar_constant_opIfEENS3_IfLi3ELi1ELi0ELi3ELi1EEEEEEEvRKT_RKT0_, symObjAddr: 0x2F5B0, symBinAddr: 0x100033628, symSize: 0x14 }
  - { offsetInCU: 0x55829, offset: 0x55829, size: 0x8, addend: 0x0, symName: __ZN5Eigen8internal26call_dense_assignment_loopINS_8DiagonalINS_6MatrixIfLi3ELi3ELi0ELi3ELi3EEELi0EEENS_14CwiseNullaryOpINS0_18scalar_constant_opIfEENS3_IfLi3ELi1ELi0ELi3ELi1EEEEENS0_9assign_opIffEEEEvRT_RKT0_RKT1_, symObjAddr: 0x2F5C4, symBinAddr: 0x10003363C, symSize: 0xE0 }
  - { offsetInCU: 0x558DD, offset: 0x558DD, size: 0x8, addend: 0x0, symName: __ZN5Eigen8internal17resize_if_allowedINS_8DiagonalINS_6MatrixIfLi3ELi3ELi0ELi3ELi3EEELi0EEENS_14CwiseNullaryOpINS0_18scalar_constant_opIfEENS3_IfLi3ELi1ELi0ELi3ELi1EEEEEffEEvRT_RKT0_RKNS0_9assign_opIT1_T2_EE, symObjAddr: 0x2F6D8, symBinAddr: 0x100033750, symSize: 0xF8 }
  - { offsetInCU: 0x55E0C, offset: 0x55E0C, size: 0x8, addend: 0x0, symName: __ZN5Eigen8internal24call_assignment_no_aliasINS_14TriangularViewINS_6MatrixIfLi3ELi3ELi0ELi3ELi3EEELj10EEENS_14CwiseNullaryOpINS0_18scalar_constant_opIfEES4_EENS0_9assign_opIffEEEEvRT_RKT0_RKT1_, symObjAddr: 0x30070, symBinAddr: 0x1000340E8, symSize: 0x3C }
  - { offsetInCU: 0x55EE4, offset: 0x55EE4, size: 0x8, addend: 0x0, symName: __ZN5Eigen8internal31call_triangular_assignment_loopILi10ELb0ENS_14TriangularViewINS_6MatrixIfLi3ELi3ELi0ELi3ELi3EEELj10EEENS_14CwiseNullaryOpINS0_18scalar_constant_opIfEES4_EENS0_9assign_opIffEEEEvRT1_RKT2_RKT3_, symObjAddr: 0x300E0, symBinAddr: 0x100034158, symSize: 0x134 }
  - { offsetInCU: 0x560DA, offset: 0x560DA, size: 0x8, addend: 0x0, symName: __ZN5Eigen8internal24call_assignment_no_aliasINS_3MapINS_6MatrixIfLin1ELi1ELi0ELi3ELi1EEELi0ENS_6StrideILi0ELi0EEEEENS_7ProductINS_5BlockINS9_INS3_IfLi3ELi3ELi0ELi3ELi3EEELin1ELin1ELb0EEELin1ELin1ELb0EEENS9_IKSA_Lin1ELi1ELb0EEELi0EEENS0_9assign_opIffEEEEvRT_RKT0_RKT1_, symObjAddr: 0x31104, symBinAddr: 0x10003517C, symSize: 0x3C }
  - { offsetInCU: 0x5620F, offset: 0x5620F, size: 0x8, addend: 0x0, symName: __ZN5Eigen8internal24call_assignment_no_aliasINS_3MapINS_6MatrixIfLin1ELi1ELi0ELi3ELi1EEELi0ENS_6StrideILi0ELi0EEEEENS_7ProductINS_5BlockINS9_INS3_IfLi3ELi3ELi0ELi3ELi3EEELin1ELin1ELb0EEELin1ELin1ELb0EEENS9_IKSA_Lin1ELi1ELb0EEELi1EEENS0_9assign_opIffEEEEvRT_RKT0_RKT1_, symObjAddr: 0x31478, symBinAddr: 0x1000354F0, symSize: 0x3C }
  - { offsetInCU: 0x562DD, offset: 0x562DD, size: 0x8, addend: 0x0, symName: __ZN5Eigen8internal18check_for_aliasingINS_3MapINS_6MatrixIfLin1ELi1ELi0ELi3ELi1EEELi0ENS_6StrideILi0ELi0EEEEENS_7ProductINS_5BlockINS9_INS3_IfLi3ELi3ELi0ELi3ELi3EEELin1ELin1ELb0EEELin1ELin1ELb0EEENS9_IKSA_Lin1ELi1ELb0EEELi1EEEEEvRKT_RKT0_, symObjAddr: 0x3153C, symBinAddr: 0x1000355B4, symSize: 0x14 }
  - { offsetInCU: 0x56328, offset: 0x56328, size: 0x8, addend: 0x0, symName: __ZN5Eigen8internal26call_dense_assignment_loopINS_3MapINS_6MatrixIfLin1ELi1ELi0ELi3ELi1EEELi0ENS_6StrideILi0ELi0EEEEENS_7ProductINS_5BlockINS9_INS3_IfLi3ELi3ELi0ELi3ELi3EEELin1ELin1ELb0EEELin1ELin1ELb0EEENS9_IKSA_Lin1ELi1ELb0EEELi1EEENS0_9assign_opIffEEEEvRT_RKT0_RKT1_, symObjAddr: 0x31550, symBinAddr: 0x1000355C8, symSize: 0xE8 }
  - { offsetInCU: 0x563DD, offset: 0x563DD, size: 0x8, addend: 0x0, symName: __ZN5Eigen8internal17resize_if_allowedINS_3MapINS_6MatrixIfLin1ELi1ELi0ELi3ELi1EEELi0ENS_6StrideILi0ELi0EEEEENS_7ProductINS_5BlockINS9_INS3_IfLi3ELi3ELi0ELi3ELi3EEELin1ELin1ELb0EEELin1ELin1ELb0EEENS9_IKSA_Lin1ELi1ELb0EEELi1EEEffEEvRT_RKT0_RKNS0_9assign_opIT1_T2_EE, symObjAddr: 0x3166C, symBinAddr: 0x1000356E4, symSize: 0xF8 }
  - { offsetInCU: 0x56B00, offset: 0x56B00, size: 0x8, addend: 0x0, symName: __ZN5Eigen8internal5pmaddI19__simd128_float32_tEET_RKS3_S5_S5_, symObjAddr: 0x343B4, symBinAddr: 0x10003842C, symSize: 0x54 }
  - { offsetInCU: 0x56B55, offset: 0x56B55, size: 0x8, addend: 0x0, symName: __ZN5Eigen8internal15call_assignmentINS_3MapINS_6MatrixIfLin1ELi1ELi0ELi3ELi1EEELi0ENS_6StrideILi0ELi0EEEEENS_5BlockINS8_INS3_IfLi3ELi3ELi0ELi3ELi3EEELin1ELin1ELb0EEELin1ELi1ELb1EEENS0_13add_assign_opIffEEEEvRT_RKT0_RKT1_NS0_9enable_ifIXntsr25evaluator_assume_aliasingISG_EE5valueEPvE4typeE, symObjAddr: 0x34B78, symBinAddr: 0x100038BF0, symSize: 0x38 }
  - { offsetInCU: 0x56BC3, offset: 0x56BC3, size: 0x8, addend: 0x0, symName: __ZN5Eigen8internal24call_assignment_no_aliasINS_3MapINS_6MatrixIfLin1ELi1ELi0ELi3ELi1EEELi0ENS_6StrideILi0ELi0EEEEENS_5BlockINS8_INS3_IfLi3ELi3ELi0ELi3ELi3EEELin1ELin1ELb0EEELin1ELi1ELb1EEENS0_13add_assign_opIffEEEEvRT_RKT0_RKT1_, symObjAddr: 0x34BC4, symBinAddr: 0x100038C3C, symSize: 0x3C }
  - { offsetInCU: 0x56C91, offset: 0x56C91, size: 0x8, addend: 0x0, symName: __ZN5Eigen8internal18check_for_aliasingINS_3MapINS_6MatrixIfLin1ELi1ELi0ELi3ELi1EEELi0ENS_6StrideILi0ELi0EEEEENS_5BlockINS8_INS3_IfLi3ELi3ELi0ELi3ELi3EEELin1ELin1ELb0EEELin1ELi1ELb1EEEEEvRKT_RKT0_, symObjAddr: 0x34C40, symBinAddr: 0x100038CB8, symSize: 0x14 }
  - { offsetInCU: 0x56CDC, offset: 0x56CDC, size: 0x8, addend: 0x0, symName: __ZN5Eigen8internal26call_dense_assignment_loopINS_3MapINS_6MatrixIfLin1ELi1ELi0ELi3ELi1EEELi0ENS_6StrideILi0ELi0EEEEENS_5BlockINS8_INS3_IfLi3ELi3ELi0ELi3ELi3EEELin1ELin1ELb0EEELin1ELi1ELb1EEENS0_13add_assign_opIffEEEEvRT_RKT0_RKT1_, symObjAddr: 0x34C54, symBinAddr: 0x100038CCC, symSize: 0xD8 }
  - { offsetInCU: 0x56D90, offset: 0x56D90, size: 0x8, addend: 0x0, symName: __ZN5Eigen8internal17resize_if_allowedINS_3MapINS_6MatrixIfLin1ELi1ELi0ELi3ELi1EEELi0ENS_6StrideILi0ELi0EEEEENS_5BlockINS8_INS3_IfLi3ELi3ELi0ELi3ELi3EEELin1ELin1ELb0EEELin1ELi1ELb1EEENS0_13add_assign_opIffEEEEvRT_RKT0_RKT1_, symObjAddr: 0x34D60, symBinAddr: 0x100038DD8, symSize: 0xB4 }
  - { offsetInCU: 0x56DEF, offset: 0x56DEF, size: 0x8, addend: 0x0, symName: __ZN5Eigen8internal15call_assignmentINS_5BlockINS2_INS_6MatrixIfLi3ELi3ELi0ELi3ELi3EEELin1ELin1ELb0EEELin1ELi1ELb1EEENS_13CwiseBinaryOpINS0_17scalar_product_opIffEEKNS_14CwiseNullaryOpINS0_18scalar_constant_opIfEEKNS3_IfLin1ELi1ELi0ELi3ELi1EEEEEKNS_3MapISD_Li0ENS_6StrideILi0ELi0EEEEEEENS0_13sub_assign_opIffEEEEvRT_RKT0_RKT1_NS0_9enable_ifIXntsr25evaluator_assume_aliasingISR_EE5valueEPvE4typeE, symObjAddr: 0x35764, symBinAddr: 0x1000397DC, symSize: 0x38 }
  - { offsetInCU: 0x56E5D, offset: 0x56E5D, size: 0x8, addend: 0x0, symName: __ZN5Eigen8internal24call_assignment_no_aliasINS_5BlockINS2_INS_6MatrixIfLi3ELi3ELi0ELi3ELi3EEELin1ELin1ELb0EEELin1ELi1ELb1EEENS_13CwiseBinaryOpINS0_17scalar_product_opIffEEKNS_14CwiseNullaryOpINS0_18scalar_constant_opIfEEKNS3_IfLin1ELi1ELi0ELi3ELi1EEEEEKNS_3MapISD_Li0ENS_6StrideILi0ELi0EEEEEEENS0_13sub_assign_opIffEEEEvRT_RKT0_RKT1_, symObjAddr: 0x357C4, symBinAddr: 0x10003983C, symSize: 0x3C }
  - { offsetInCU: 0x56F2B, offset: 0x56F2B, size: 0x8, addend: 0x0, symName: __ZN5Eigen8internal18check_for_aliasingINS_5BlockINS2_INS_6MatrixIfLi3ELi3ELi0ELi3ELi3EEELin1ELin1ELb0EEELin1ELi1ELb1EEENS_13CwiseBinaryOpINS0_17scalar_product_opIffEEKNS_14CwiseNullaryOpINS0_18scalar_constant_opIfEEKNS3_IfLin1ELi1ELi0ELi3ELi1EEEEEKNS_3MapISD_Li0ENS_6StrideILi0ELi0EEEEEEEEEvRKT_RKT0_, symObjAddr: 0x35840, symBinAddr: 0x1000398B8, symSize: 0x14 }
  - { offsetInCU: 0x56F76, offset: 0x56F76, size: 0x8, addend: 0x0, symName: __ZN5Eigen8internal26call_dense_assignment_loopINS_5BlockINS2_INS_6MatrixIfLi3ELi3ELi0ELi3ELi3EEELin1ELin1ELb0EEELin1ELi1ELb1EEENS_13CwiseBinaryOpINS0_17scalar_product_opIffEEKNS_14CwiseNullaryOpINS0_18scalar_constant_opIfEEKNS3_IfLin1ELi1ELi0ELi3ELi1EEEEEKNS_3MapISD_Li0ENS_6StrideILi0ELi0EEEEEEENS0_13sub_assign_opIffEEEEvRT_RKT0_RKT1_, symObjAddr: 0x35854, symBinAddr: 0x1000398CC, symSize: 0xE0 }
  - { offsetInCU: 0x5702A, offset: 0x5702A, size: 0x8, addend: 0x0, symName: __ZN5Eigen8internal17resize_if_allowedINS_5BlockINS2_INS_6MatrixIfLi3ELi3ELi0ELi3ELi3EEELin1ELin1ELb0EEELin1ELi1ELb1EEENS_13CwiseBinaryOpINS0_17scalar_product_opIffEEKNS_14CwiseNullaryOpINS0_18scalar_constant_opIfEEKNS3_IfLin1ELi1ELi0ELi3ELi1EEEEEKNS_3MapISD_Li0ENS_6StrideILi0ELi0EEEEEEENS0_13sub_assign_opIffEEEEvRT_RKT0_RKT1_, symObjAddr: 0x35968, symBinAddr: 0x1000399E0, symSize: 0xB4 }
  - { offsetInCU: 0x57089, offset: 0x57089, size: 0x8, addend: 0x0, symName: __ZN5Eigen8internal4psubI19__simd128_float32_tEET_RKS3_S5_, symObjAddr: 0x36260, symBinAddr: 0x10003A2D8, symSize: 0x40 }
  - { offsetInCU: 0x570CF, offset: 0x570CF, size: 0x8, addend: 0x0, symName: __ZN5Eigen8internal24call_assignment_no_aliasINS_5BlockINS2_INS_6MatrixIfLi3ELi3ELi0ELi3ELi3EEELin1ELin1ELb0EEELin1ELin1ELb0EEENS_7ProductINS_13CwiseBinaryOpINS0_17scalar_product_opIffEEKNS_14CwiseNullaryOpINS0_18scalar_constant_opIfEEKNS3_IfLin1ELi1ELi0ELi3ELi1EEEEEKNS_3MapISE_Li0ENS_6StrideILi0ELi0EEEEEEENS_9TransposeIKNS2_IKS4_Lin1ELi1ELb0EEEEELi0EEENS0_13sub_assign_opIffEEEEvRT_RKT0_RKT1_, symObjAddr: 0x36794, symBinAddr: 0x10003A80C, symSize: 0x3C }
  - { offsetInCU: 0x57204, offset: 0x57204, size: 0x8, addend: 0x0, symName: __ZN5Eigen8internal24call_assignment_no_aliasINS_5BlockINS2_INS_6MatrixIfLi3ELi3ELi0ELi3ELi3EEELin1ELin1ELb0EEELin1ELin1ELb0EEENS_7ProductINS_13CwiseBinaryOpINS0_17scalar_product_opIffEEKNS_14CwiseNullaryOpINS0_18scalar_constant_opIfEEKNS3_IfLin1ELi1ELi0ELi3ELi1EEEEEKNS_3MapISE_Li0ENS_6StrideILi0ELi0EEEEEEENS_9TransposeIKNS2_IKS4_Lin1ELi1ELb0EEEEELi1EEENS0_13sub_assign_opIffEEEEvRT_RKT0_RKT1_, symObjAddr: 0x369F0, symBinAddr: 0x10003AA68, symSize: 0x3C }
  - { offsetInCU: 0x574D6, offset: 0x574D6, size: 0x8, addend: 0x0, symName: __ZN5Eigen8internal18check_for_aliasingINS_5BlockINS2_INS_6MatrixIfLi3ELi3ELi0ELi3ELi3EEELin1ELin1ELb0EEELin1ELin1ELb0EEENS_7ProductINS_13CwiseBinaryOpINS0_17scalar_product_opIffEEKNS_14CwiseNullaryOpINS0_18scalar_constant_opIfEEKNS3_IfLin1ELi1ELi0ELi3ELi1EEEEEKNS_3MapISE_Li0ENS_6StrideILi0ELi0EEEEEEENS_9TransposeIKNS2_IKS4_Lin1ELi1ELb0EEEEELi1EEEEEvRKT_RKT0_, symObjAddr: 0x36AB8, symBinAddr: 0x10003AB30, symSize: 0x60 }
  - { offsetInCU: 0x57521, offset: 0x57521, size: 0x8, addend: 0x0, symName: __ZN5Eigen8internal26call_dense_assignment_loopINS_5BlockINS2_INS_6MatrixIfLi3ELi3ELi0ELi3ELi3EEELin1ELin1ELb0EEELin1ELin1ELb0EEENS_7ProductINS_13CwiseBinaryOpINS0_17scalar_product_opIffEEKNS_14CwiseNullaryOpINS0_18scalar_constant_opIfEEKNS3_IfLin1ELi1ELi0ELi3ELi1EEEEEKNS_3MapISE_Li0ENS_6StrideILi0ELi0EEEEEEENS_9TransposeIKNS2_IKS4_Lin1ELi1ELb0EEEEELi1EEENS0_13sub_assign_opIffEEEEvRT_RKT0_RKT1_, symObjAddr: 0x36B18, symBinAddr: 0x10003AB90, symSize: 0xD8 }
  - { offsetInCU: 0x57968, offset: 0x57968, size: 0x8, addend: 0x0, symName: __ZN5Eigen8internal17resize_if_allowedINS_5BlockINS2_INS_6MatrixIfLi3ELi3ELi0ELi3ELi3EEELin1ELin1ELb0EEELin1ELin1ELb0EEENS_7ProductINS_13CwiseBinaryOpINS0_17scalar_product_opIffEEKNS_14CwiseNullaryOpINS0_18scalar_constant_opIfEEKNS3_IfLin1ELi1ELi0ELi3ELi1EEEEEKNS_3MapISE_Li0ENS_6StrideILi0ELi0EEEEEEENS_9TransposeIKNS2_IKS4_Lin1ELi1ELb0EEEEELi1EEENS0_13sub_assign_opIffEEEEvRT_RKT0_RKT1_, symObjAddr: 0x36C38, symBinAddr: 0x10003ACB0, symSize: 0xB4 }
  - { offsetInCU: 0x57C19, offset: 0x57C19, size: 0x8, addend: 0x0, symName: __ZN5Eigen8internal24call_assignment_no_aliasINS_6MatrixIfLin1ELi1ELi0ELi3ELi1EEENS_13CwiseBinaryOpINS0_17scalar_product_opIffEEKNS_14CwiseNullaryOpINS0_18scalar_constant_opIfEEKS3_EEKNS_3MapIS3_Li0ENS_6StrideILi0ELi0EEEEEEENS0_9assign_opIffEEEEvRT_RKT0_RKT1_, symObjAddr: 0x3711C, symBinAddr: 0x10003B194, symSize: 0x3C }
  - { offsetInCU: 0x57CE7, offset: 0x57CE7, size: 0x8, addend: 0x0, symName: __ZN5Eigen8internal18check_for_aliasingINS_6MatrixIfLin1ELi1ELi0ELi3ELi1EEENS_13CwiseBinaryOpINS0_17scalar_product_opIffEEKNS_14CwiseNullaryOpINS0_18scalar_constant_opIfEEKS3_EEKNS_3MapIS3_Li0ENS_6StrideILi0ELi0EEEEEEEEEvRKT_RKT0_, symObjAddr: 0x37198, symBinAddr: 0x10003B210, symSize: 0x14 }
  - { offsetInCU: 0x57D32, offset: 0x57D32, size: 0x8, addend: 0x0, symName: __ZN5Eigen8internal26call_dense_assignment_loopINS_6MatrixIfLin1ELi1ELi0ELi3ELi1EEENS_13CwiseBinaryOpINS0_17scalar_product_opIffEEKNS_14CwiseNullaryOpINS0_18scalar_constant_opIfEEKS3_EEKNS_3MapIS3_Li0ENS_6StrideILi0ELi0EEEEEEENS0_9assign_opIffEEEEvRT_RKT0_RKT1_, symObjAddr: 0x371AC, symBinAddr: 0x10003B224, symSize: 0xD8 }
  - { offsetInCU: 0x57DE7, offset: 0x57DE7, size: 0x8, addend: 0x0, symName: __ZN5Eigen8internal17resize_if_allowedINS_6MatrixIfLin1ELi1ELi0ELi3ELi1EEENS_13CwiseBinaryOpINS0_17scalar_product_opIffEEKNS_14CwiseNullaryOpINS0_18scalar_constant_opIfEEKS3_EEKNS_3MapIS3_Li0ENS_6StrideILi0ELi0EEEEEEEffEEvRT_RKT0_RKNS0_9assign_opIT1_T2_EE, symObjAddr: 0x37284, symBinAddr: 0x10003B2FC, symSize: 0xF8 }
  - { offsetInCU: 0x57ED3, offset: 0x57ED3, size: 0x8, addend: 0x0, symName: __ZN5Eigen8internal24call_assignment_no_aliasINS_3MapINS_6MatrixIfLi1ELin1ELi1ELi1ELi3EEELi0ENS_6StrideILi0ELi0EEEEENS_7ProductINS_9TransposeIKNS_5BlockIKNS3_IfLi3ELi3ELi0ELi3ELi3EEELin1ELi1ELb0EEEEENSA_INSA_ISB_Lin1ELin1ELb0EEELin1ELin1ELb0EEELi0EEENS0_9assign_opIffEEEEvRT_RKT0_RKT1_, symObjAddr: 0x397B0, symBinAddr: 0x10003D828, symSize: 0x3C }
  - { offsetInCU: 0x58008, offset: 0x58008, size: 0x8, addend: 0x0, symName: __ZN5Eigen8internal24call_assignment_no_aliasINS_3MapINS_6MatrixIfLi1ELin1ELi1ELi1ELi3EEELi0ENS_6StrideILi0ELi0EEEEENS_7ProductINS_9TransposeIKNS_5BlockIKNS3_IfLi3ELi3ELi0ELi3ELi3EEELin1ELi1ELb0EEEEENSA_INSA_ISB_Lin1ELin1ELb0EEELin1ELin1ELb0EEELi1EEENS0_9assign_opIffEEEEvRT_RKT0_RKT1_, symObjAddr: 0x3998C, symBinAddr: 0x10003DA04, symSize: 0x3C }
  - { offsetInCU: 0x582E2, offset: 0x582E2, size: 0x8, addend: 0x0, symName: __ZN5Eigen8internal18check_for_aliasingINS_3MapINS_6MatrixIfLi1ELin1ELi1ELi1ELi3EEELi0ENS_6StrideILi0ELi0EEEEENS_7ProductINS_9TransposeIKNS_5BlockIKNS3_IfLi3ELi3ELi0ELi3ELi3EEELin1ELi1ELb0EEEEENSA_INSA_ISB_Lin1ELin1ELb0EEELin1ELin1ELb0EEELi1EEEEEvRKT_RKT0_, symObjAddr: 0x39A50, symBinAddr: 0x10003DAC8, symSize: 0x14 }
  - { offsetInCU: 0x5832D, offset: 0x5832D, size: 0x8, addend: 0x0, symName: __ZN5Eigen8internal26call_dense_assignment_loopINS_3MapINS_6MatrixIfLi1ELin1ELi1ELi1ELi3EEELi0ENS_6StrideILi0ELi0EEEEENS_7ProductINS_9TransposeIKNS_5BlockIKNS3_IfLi3ELi3ELi0ELi3ELi3EEELin1ELi1ELb0EEEEENSA_INSA_ISB_Lin1ELin1ELb0EEELin1ELin1ELb0EEELi1EEENS0_9assign_opIffEEEEvRT_RKT0_RKT1_, symObjAddr: 0x39A64, symBinAddr: 0x10003DADC, symSize: 0xE0 }
  - { offsetInCU: 0x58595, offset: 0x58595, size: 0x8, addend: 0x0, symName: __ZN5Eigen8internal17resize_if_allowedINS_3MapINS_6MatrixIfLi1ELin1ELi1ELi1ELi3EEELi0ENS_6StrideILi0ELi0EEEEENS_7ProductINS_9TransposeIKNS_5BlockIKNS3_IfLi3ELi3ELi0ELi3ELi3EEELin1ELi1ELb0EEEEENSA_INSA_ISB_Lin1ELin1ELb0EEELin1ELin1ELb0EEELi1EEEffEEvRT_RKT0_RKNS0_9assign_opIT1_T2_EE, symObjAddr: 0x39B78, symBinAddr: 0x10003DBF0, symSize: 0xF8 }
  - { offsetInCU: 0x58E1C, offset: 0x58E1C, size: 0x8, addend: 0x0, symName: __ZN5Eigen8internalL21first_default_alignedINS_13CwiseBinaryOpINS0_17scalar_product_opIffEEKNS_9TransposeIKNS_5BlockIKNS5_IKNS6_IKNS_6MatrixIfLi3ELi3ELi0ELi3ELi3EEELin1ELi1ELb0EEEEELi1ELin1ELb1EEEEEKNS6_IKNS6_INS6_IS8_Lin1ELin1ELb0EEELin1ELin1ELb0EEELin1ELi1ELb1EEEEEEElRKNS_9DenseBaseIT_EE, symObjAddr: 0x3B6BC, symBinAddr: 0x10003F734, symSize: 0x24 }
  - { offsetInCU: 0x58E53, offset: 0x58E53, size: 0x8, addend: 0x0, symName: __ZN5Eigen8internalL13first_alignedILi16ENS_13CwiseBinaryOpINS0_17scalar_product_opIffEEKNS_9TransposeIKNS_5BlockIKNS5_IKNS6_IKNS_6MatrixIfLi3ELi3ELi0ELi3ELi3EEELin1ELi1ELb0EEEEELi1ELin1ELb1EEEEEKNS6_IKNS6_INS6_IS8_Lin1ELin1ELb0EEELin1ELin1ELb0EEELin1ELi1ELb1EEEEEEElRKNS_9DenseBaseIT0_EE, symObjAddr: 0x3B7C0, symBinAddr: 0x10003F838, symSize: 0x28 }
  - { offsetInCU: 0x58ED2, offset: 0x58ED2, size: 0x8, addend: 0x0, symName: __ZN5Eigen8internal24call_assignment_no_aliasINS_5BlockINS2_INS_6MatrixIfLi3ELi3ELi0ELi3ELi3EEELin1ELin1ELb0EEELin1ELin1ELb0EEENS_7ProductINS_13CwiseBinaryOpINS0_17scalar_product_opIffEEKNS_14CwiseNullaryOpINS0_18scalar_constant_opIfEEKNS3_IfLin1ELi1ELi0ELi3ELi1EEEEEKNS2_IKS4_Lin1ELi1ELb0EEEEENS_3MapINS3_IfLi1ELin1ELi1ELi1ELi3EEELi0ENS_6StrideILi0ELi0EEEEELi0EEENS0_13sub_assign_opIffEEEEvRT_RKT0_RKT1_, symObjAddr: 0x3C028, symBinAddr: 0x1000400A0, symSize: 0x3C }
  - { offsetInCU: 0x59007, offset: 0x59007, size: 0x8, addend: 0x0, symName: __ZN5Eigen8internal24call_assignment_no_aliasINS_5BlockINS2_INS_6MatrixIfLi3ELi3ELi0ELi3ELi3EEELin1ELin1ELb0EEELin1ELin1ELb0EEENS_7ProductINS_13CwiseBinaryOpINS0_17scalar_product_opIffEEKNS_14CwiseNullaryOpINS0_18scalar_constant_opIfEEKNS3_IfLin1ELi1ELi0ELi3ELi1EEEEEKNS2_IKS4_Lin1ELi1ELb0EEEEENS_3MapINS3_IfLi1ELin1ELi1ELi1ELi3EEELi0ENS_6StrideILi0ELi0EEEEELi1EEENS0_13sub_assign_opIffEEEEvRT_RKT0_RKT1_, symObjAddr: 0x3C288, symBinAddr: 0x100040300, symSize: 0x3C }
  - { offsetInCU: 0x592D9, offset: 0x592D9, size: 0x8, addend: 0x0, symName: __ZN5Eigen8internal18check_for_aliasingINS_5BlockINS2_INS_6MatrixIfLi3ELi3ELi0ELi3ELi3EEELin1ELin1ELb0EEELin1ELin1ELb0EEENS_7ProductINS_13CwiseBinaryOpINS0_17scalar_product_opIffEEKNS_14CwiseNullaryOpINS0_18scalar_constant_opIfEEKNS3_IfLin1ELi1ELi0ELi3ELi1EEEEEKNS2_IKS4_Lin1ELi1ELb0EEEEENS_3MapINS3_IfLi1ELin1ELi1ELi1ELi3EEELi0ENS_6StrideILi0ELi0EEEEELi1EEEEEvRKT_RKT0_, symObjAddr: 0x3C350, symBinAddr: 0x1000403C8, symSize: 0x60 }
  - { offsetInCU: 0x59324, offset: 0x59324, size: 0x8, addend: 0x0, symName: __ZN5Eigen8internal26call_dense_assignment_loopINS_5BlockINS2_INS_6MatrixIfLi3ELi3ELi0ELi3ELi3EEELin1ELin1ELb0EEELin1ELin1ELb0EEENS_7ProductINS_13CwiseBinaryOpINS0_17scalar_product_opIffEEKNS_14CwiseNullaryOpINS0_18scalar_constant_opIfEEKNS3_IfLin1ELi1ELi0ELi3ELi1EEEEEKNS2_IKS4_Lin1ELi1ELb0EEEEENS_3MapINS3_IfLi1ELin1ELi1ELi1ELi3EEELi0ENS_6StrideILi0ELi0EEEEELi1EEENS0_13sub_assign_opIffEEEEvRT_RKT0_RKT1_, symObjAddr: 0x3C3B0, symBinAddr: 0x100040428, symSize: 0xD8 }
  - { offsetInCU: 0x595CA, offset: 0x595CA, size: 0x8, addend: 0x0, symName: __ZN5Eigen8internal17resize_if_allowedINS_5BlockINS2_INS_6MatrixIfLi3ELi3ELi0ELi3ELi3EEELin1ELin1ELb0EEELin1ELin1ELb0EEENS_7ProductINS_13CwiseBinaryOpINS0_17scalar_product_opIffEEKNS_14CwiseNullaryOpINS0_18scalar_constant_opIfEEKNS3_IfLin1ELi1ELi0ELi3ELi1EEEEEKNS2_IKS4_Lin1ELi1ELb0EEEEENS_3MapINS3_IfLi1ELin1ELi1ELi1ELi3EEELi0ENS_6StrideILi0ELi0EEEEELi1EEENS0_13sub_assign_opIffEEEEvRT_RKT0_RKT1_, symObjAddr: 0x3C4D0, symBinAddr: 0x100040548, symSize: 0xB4 }
  - { offsetInCU: 0x5987B, offset: 0x5987B, size: 0x8, addend: 0x0, symName: __ZN5Eigen8internal24call_assignment_no_aliasINS_6MatrixIfLin1ELi1ELi0ELi3ELi1EEENS_13CwiseBinaryOpINS0_17scalar_product_opIffEEKNS_14CwiseNullaryOpINS0_18scalar_constant_opIfEEKS3_EEKNS_5BlockIKNS2_IfLi3ELi3ELi0ELi3ELi3EEELin1ELi1ELb0EEEEENS0_9assign_opIffEEEEvRT_RKT0_RKT1_, symObjAddr: 0x3C954, symBinAddr: 0x1000409CC, symSize: 0x3C }
  - { offsetInCU: 0x59949, offset: 0x59949, size: 0x8, addend: 0x0, symName: __ZN5Eigen8internal18check_for_aliasingINS_6MatrixIfLin1ELi1ELi0ELi3ELi1EEENS_13CwiseBinaryOpINS0_17scalar_product_opIffEEKNS_14CwiseNullaryOpINS0_18scalar_constant_opIfEEKS3_EEKNS_5BlockIKNS2_IfLi3ELi3ELi0ELi3ELi3EEELin1ELi1ELb0EEEEEEEvRKT_RKT0_, symObjAddr: 0x3C9D0, symBinAddr: 0x100040A48, symSize: 0x14 }
  - { offsetInCU: 0x59994, offset: 0x59994, size: 0x8, addend: 0x0, symName: __ZN5Eigen8internal26call_dense_assignment_loopINS_6MatrixIfLin1ELi1ELi0ELi3ELi1EEENS_13CwiseBinaryOpINS0_17scalar_product_opIffEEKNS_14CwiseNullaryOpINS0_18scalar_constant_opIfEEKS3_EEKNS_5BlockIKNS2_IfLi3ELi3ELi0ELi3ELi3EEELin1ELi1ELb0EEEEENS0_9assign_opIffEEEEvRT_RKT0_RKT1_, symObjAddr: 0x3C9E4, symBinAddr: 0x100040A5C, symSize: 0xD8 }
  - { offsetInCU: 0x59A48, offset: 0x59A48, size: 0x8, addend: 0x0, symName: __ZN5Eigen8internal17resize_if_allowedINS_6MatrixIfLin1ELi1ELi0ELi3ELi1EEENS_13CwiseBinaryOpINS0_17scalar_product_opIffEEKNS_14CwiseNullaryOpINS0_18scalar_constant_opIfEEKS3_EEKNS_5BlockIKNS2_IfLi3ELi3ELi0ELi3ELi3EEELin1ELi1ELb0EEEEEffEEvRT_RKT0_RKNS0_9assign_opIT1_T2_EE, symObjAddr: 0x3CAF0, symBinAddr: 0x100040B68, symSize: 0xF8 }
  - { offsetInCU: 0x59ACE, offset: 0x59ACE, size: 0x8, addend: 0x0, symName: __ZN5Eigen8internal15call_assignmentINS_5BlockINS2_INS_6MatrixIfLi3ELi3ELi0ELi3ELi3EEELi3ELi1ELb1EEELin1ELi1ELb0EEENS_14CwiseNullaryOpINS0_18scalar_constant_opIfEENS3_IfLin1ELi1ELi0ELi3ELi1EEEEEEEvRT_RKT0_, symObjAddr: 0x3D9A8, symBinAddr: 0x100041A20, symSize: 0x50 }
  - { offsetInCU: 0x59B19, offset: 0x59B19, size: 0x8, addend: 0x0, symName: __ZN5Eigen8internal15call_assignmentINS_5BlockINS2_INS_6MatrixIfLi3ELi3ELi0ELi3ELi3EEELi3ELi1ELb1EEELin1ELi1ELb0EEENS_14CwiseNullaryOpINS0_18scalar_constant_opIfEENS3_IfLin1ELi1ELi0ELi3ELi1EEEEENS0_9assign_opIffEEEEvRT_RKT0_RKT1_NS0_9enable_ifIXntsr25evaluator_assume_aliasingISG_EE5valueEPvE4typeE, symObjAddr: 0x3D9F8, symBinAddr: 0x100041A70, symSize: 0x38 }
  - { offsetInCU: 0x59B87, offset: 0x59B87, size: 0x8, addend: 0x0, symName: __ZN5Eigen8internal24call_assignment_no_aliasINS_5BlockINS2_INS_6MatrixIfLi3ELi3ELi0ELi3ELi3EEELi3ELi1ELb1EEELin1ELi1ELb0EEENS_14CwiseNullaryOpINS0_18scalar_constant_opIfEENS3_IfLin1ELi1ELi0ELi3ELi1EEEEENS0_9assign_opIffEEEEvRT_RKT0_RKT1_, symObjAddr: 0x3DA30, symBinAddr: 0x100041AA8, symSize: 0x3C }
  - { offsetInCU: 0x59C55, offset: 0x59C55, size: 0x8, addend: 0x0, symName: __ZN5Eigen8internal18check_for_aliasingINS_5BlockINS2_INS_6MatrixIfLi3ELi3ELi0ELi3ELi3EEELi3ELi1ELb1EEELin1ELi1ELb0EEENS_14CwiseNullaryOpINS0_18scalar_constant_opIfEENS3_IfLin1ELi1ELi0ELi3ELi1EEEEEEEvRKT_RKT0_, symObjAddr: 0x3DAAC, symBinAddr: 0x100041B24, symSize: 0x14 }
  - { offsetInCU: 0x59CA0, offset: 0x59CA0, size: 0x8, addend: 0x0, symName: __ZN5Eigen8internal26call_dense_assignment_loopINS_5BlockINS2_INS_6MatrixIfLi3ELi3ELi0ELi3ELi3EEELi3ELi1ELb1EEELin1ELi1ELb0EEENS_14CwiseNullaryOpINS0_18scalar_constant_opIfEENS3_IfLin1ELi1ELi0ELi3ELi1EEEEENS0_9assign_opIffEEEEvRT_RKT0_RKT1_, symObjAddr: 0x3DAC0, symBinAddr: 0x100041B38, symSize: 0xE0 }
  - { offsetInCU: 0x59D54, offset: 0x59D54, size: 0x8, addend: 0x0, symName: __ZN5Eigen8internal17resize_if_allowedINS_5BlockINS2_INS_6MatrixIfLi3ELi3ELi0ELi3ELi3EEELi3ELi1ELb1EEELin1ELi1ELb0EEENS_14CwiseNullaryOpINS0_18scalar_constant_opIfEENS3_IfLin1ELi1ELi0ELi3ELi1EEEEEffEEvRT_RKT0_RKNS0_9assign_opIT1_T2_EE, symObjAddr: 0x3DBA0, symBinAddr: 0x100041C18, symSize: 0xF8 }
  - { offsetInCU: 0x59DDA, offset: 0x59DDA, size: 0x8, addend: 0x0, symName: __ZN5Eigen8internal35apply_block_householder_on_the_leftINS_5BlockINS_6MatrixIfLi3ELi3ELi0ELi3ELi3EEELin1ELin1ELb0EEES5_NS_11VectorBlockIKNS3_IfLi2ELi1ELi0ELi2ELi1EEELin1EEEEEvRT_RKT0_RKT1_b, symObjAddr: 0x3E0AC, symBinAddr: 0x100042124, symSize: 0x21C }
  - { offsetInCU: 0x59E82, offset: 0x59E82, size: 0x8, addend: 0x0, symName: __ZN5Eigen8internal40make_block_householder_triangular_factorINS_6MatrixIfLin1ELin1ELi1ELin1ELin1EEENS_5BlockINS2_IfLi3ELi3ELi0ELi3ELi3EEELin1ELin1ELb0EEENS_11VectorBlockIKNS2_IfLi2ELi1ELi0ELi2ELi1EEELin1EEEEEvRT_RKT0_RKT1_, symObjAddr: 0x3E3BC, symBinAddr: 0x100042434, symSize: 0x3CC }
  - { offsetInCU: 0x59F76, offset: 0x59F76, size: 0x8, addend: 0x0, symName: __ZN5Eigen8internal40make_block_householder_triangular_factorINS_6MatrixIfLin1ELin1ELi1ELin1ELin1EEENS_5BlockINS2_IfLi3ELi3ELi0ELi3ELi3EEELin1ELin1ELb0EEENS4_IKNS2_IfLi2ELi1ELi0ELi2ELi1EEELin1ELi1ELb0EEEEEvRT_RKT0_RKT1_, symObjAddr: 0x3E788, symBinAddr: 0x100042800, symSize: 0x3CC }
  - { offsetInCU: 0x5A09D, offset: 0x5A09D, size: 0x8, addend: 0x0, symName: __ZN5Eigen8internal19throw_std_bad_allocEv, symObjAddr: 0x3F280, symBinAddr: 0x1000432F8, symSize: 0x34 }
  - { offsetInCU: 0x5A0B6, offset: 0x5A0B6, size: 0x8, addend: 0x0, symName: __ZN5Eigen8internal31conditional_aligned_delete_autoIfLb1EEEvPT_m, symObjAddr: 0x3F2B4, symBinAddr: 0x10004332C, symSize: 0x28 }
  - { offsetInCU: 0x5A125, offset: 0x5A125, size: 0x8, addend: 0x0, symName: __ZN5Eigen8internal28conditional_aligned_new_autoIfLb1EEEPT_m, symObjAddr: 0x3F2DC, symBinAddr: 0x100043354, symSize: 0x84 }
  - { offsetInCU: 0x5A193, offset: 0x5A193, size: 0x8, addend: 0x0, symName: __ZN5Eigen8internal24conditional_aligned_freeILb1EEEvPv, symObjAddr: 0x3F360, symBinAddr: 0x1000433D8, symSize: 0x24 }
  - { offsetInCU: 0x5A1C7, offset: 0x5A1C7, size: 0x8, addend: 0x0, symName: __ZN5Eigen8internal12aligned_freeEPv, symObjAddr: 0x3F384, symBinAddr: 0x1000433FC, symSize: 0x24 }
  - { offsetInCU: 0x5A1F6, offset: 0x5A1F6, size: 0x8, addend: 0x0, symName: __ZN5Eigen8internal26conditional_aligned_mallocILb1EEEPvm, symObjAddr: 0x3F3A8, symBinAddr: 0x100043420, symSize: 0x24 }
  - { offsetInCU: 0x5A22C, offset: 0x5A22C, size: 0x8, addend: 0x0, symName: __ZN5Eigen8internal14aligned_mallocEm, symObjAddr: 0x3F3CC, symBinAddr: 0x100043444, symSize: 0xDC }
  - { offsetInCU: 0x5A26D, offset: 0x5A26D, size: 0x8, addend: 0x0, symName: __ZN5Eigen8internal28check_that_malloc_is_allowedEv, symObjAddr: 0x3F4A8, symBinAddr: 0x100043520, symSize: 0x4 }
  - { offsetInCU: 0x5A286, offset: 0x5A286, size: 0x8, addend: 0x0, symName: __ZN5Eigen8internal24call_assignment_no_aliasINS_5BlockINS2_INS_6MatrixIfLin1ELin1ELi1ELin1ELin1EEELi1ELin1ELb1EEELi1ELin1ELb0EEENS_7ProductINS_13CwiseBinaryOpINS0_17scalar_product_opIffEEKNS_14CwiseNullaryOpINS0_18scalar_constant_opIfEEKNS3_IfLi1ELin1ELi1ELi1ELi3EEEEEKNS_9TransposeIKNS2_IKNS2_IKNS2_INS3_IfLi3ELi3ELi0ELi3ELi3EEELin1ELin1ELb0EEELin1ELi1ELb1EEELin1ELi1ELb0EEEEEEENS_14TriangularViewIKNS2_ISL_Lin1ELin1ELb0EEELj5EEELi0EEENS0_9assign_opIffEEEEvRT_RKT0_RKT1_, symObjAddr: 0x424A4, symBinAddr: 0x10004651C, symSize: 0x3C }
  - { offsetInCU: 0x5A453, offset: 0x5A453, size: 0x8, addend: 0x0, symName: __ZN5Eigen8internal15call_assignmentINS_5BlockINS2_INS_6MatrixIfLin1ELin1ELi1ELin1ELin1EEELi1ELin1ELb1EEELi1ELin1ELb0EEENS_14CwiseNullaryOpINS0_18scalar_constant_opIfEENS3_IfLi1ELin1ELi1ELi1ELin1EEEEEEEvRT_RKT0_, symObjAddr: 0x42C6C, symBinAddr: 0x100046CE4, symSize: 0x50 }
  - { offsetInCU: 0x5A49E, offset: 0x5A49E, size: 0x8, addend: 0x0, symName: __ZN5Eigen8internal15call_assignmentINS_5BlockINS2_INS_6MatrixIfLin1ELin1ELi1ELin1ELin1EEELi1ELin1ELb1EEELi1ELin1ELb0EEENS_14CwiseNullaryOpINS0_18scalar_constant_opIfEENS3_IfLi1ELin1ELi1ELi1ELin1EEEEENS0_9assign_opIffEEEEvRT_RKT0_RKT1_NS0_9enable_ifIXntsr25evaluator_assume_aliasingISG_EE5valueEPvE4typeE, symObjAddr: 0x42CBC, symBinAddr: 0x100046D34, symSize: 0x38 }
  - { offsetInCU: 0x5A50C, offset: 0x5A50C, size: 0x8, addend: 0x0, symName: __ZN5Eigen8internal24call_assignment_no_aliasINS_5BlockINS2_INS_6MatrixIfLin1ELin1ELi1ELin1ELin1EEELi1ELin1ELb1EEELi1ELin1ELb0EEENS_14CwiseNullaryOpINS0_18scalar_constant_opIfEENS3_IfLi1ELin1ELi1ELi1ELin1EEEEENS0_9assign_opIffEEEEvRT_RKT0_RKT1_, symObjAddr: 0x42CF4, symBinAddr: 0x100046D6C, symSize: 0x3C }
  - { offsetInCU: 0x5A5DA, offset: 0x5A5DA, size: 0x8, addend: 0x0, symName: __ZN5Eigen8internal18check_for_aliasingINS_5BlockINS2_INS_6MatrixIfLin1ELin1ELi1ELin1ELin1EEELi1ELin1ELb1EEELi1ELin1ELb0EEENS_14CwiseNullaryOpINS0_18scalar_constant_opIfEENS3_IfLi1ELin1ELi1ELi1ELin1EEEEEEEvRKT_RKT0_, symObjAddr: 0x42D70, symBinAddr: 0x100046DE8, symSize: 0x14 }
  - { offsetInCU: 0x5A625, offset: 0x5A625, size: 0x8, addend: 0x0, symName: __ZN5Eigen8internal26call_dense_assignment_loopINS_5BlockINS2_INS_6MatrixIfLin1ELin1ELi1ELin1ELin1EEELi1ELin1ELb1EEELi1ELin1ELb0EEENS_14CwiseNullaryOpINS0_18scalar_constant_opIfEENS3_IfLi1ELin1ELi1ELi1ELin1EEEEENS0_9assign_opIffEEEEvRT_RKT0_RKT1_, symObjAddr: 0x42D84, symBinAddr: 0x100046DFC, symSize: 0xE0 }
  - { offsetInCU: 0x5A6D9, offset: 0x5A6D9, size: 0x8, addend: 0x0, symName: __ZN5Eigen8internal17resize_if_allowedINS_5BlockINS2_INS_6MatrixIfLin1ELin1ELi1ELin1ELin1EEELi1ELin1ELb1EEELi1ELin1ELb0EEENS_14CwiseNullaryOpINS0_18scalar_constant_opIfEENS3_IfLi1ELin1ELi1ELi1ELin1EEEEEffEEvRT_RKT0_RKNS0_9assign_opIT1_T2_EE, symObjAddr: 0x42E98, symBinAddr: 0x100046F10, symSize: 0xF8 }
  - { offsetInCU: 0x5AF29, offset: 0x5AF29, size: 0x8, addend: 0x0, symName: __ZN5Eigen8internalL21first_default_alignedINS_13CwiseBinaryOpINS0_17scalar_product_opIffEEKNS_5BlockIKNS5_IKNS_3MapIKNS_6MatrixIfLin1ELin1ELi1ELin1ELin1EEELi0ENS_11OuterStrideILin1EEEEELi1ELin1ELb1EEELi1ELin1ELb0EEEKNS_9TransposeIKNS5_IKNS6_IKNS7_IfLin1ELi1ELi0ELin1ELi1EEELi0ENS_6StrideILi0ELi0EEEEELin1ELi1ELb0EEEEEEEEElRKNS_9DenseBaseIT_EE, symObjAddr: 0x49BC4, symBinAddr: 0x10004DC3C, symSize: 0x24 }
  - { offsetInCU: 0x5AF60, offset: 0x5AF60, size: 0x8, addend: 0x0, symName: __ZN5Eigen8internalL13first_alignedILi16ENS_13CwiseBinaryOpINS0_17scalar_product_opIffEEKNS_5BlockIKNS5_IKNS_3MapIKNS_6MatrixIfLin1ELin1ELi1ELin1ELin1EEELi0ENS_11OuterStrideILin1EEEEELi1ELin1ELb1EEELi1ELin1ELb0EEEKNS_9TransposeIKNS5_IKNS6_IKNS7_IfLin1ELi1ELi0ELin1ELi1EEELi0ENS_6StrideILi0ELi0EEEEELin1ELi1ELb0EEEEEEEEElRKNS_9DenseBaseIT0_EE, symObjAddr: 0x49CC8, symBinAddr: 0x10004DD40, symSize: 0x28 }
  - { offsetInCU: 0x5B138, offset: 0x5B138, size: 0x8, addend: 0x0, symName: __ZN5Eigen8internal6preduxI18__simd64_float32_tEENS0_15unpacket_traitsIT_E4typeERKS4_, symObjAddr: 0x4A2B8, symBinAddr: 0x10004E330, symSize: 0x58 }
  - { offsetInCU: 0x5B23B, offset: 0x5B23B, size: 0x8, addend: 0x0, symName: __ZN5Eigen8internal4pmulIfEET_RKS2_S4_, symObjAddr: 0x4A328, symBinAddr: 0x10004E3A0, symSize: 0x28 }
  - { offsetInCU: 0x5B27E, offset: 0x5B27E, size: 0x8, addend: 0x0, symName: __ZN5Eigen8internal15call_assignmentINS_5BlockINS_9TransposeINS2_INS2_INS_6MatrixIfLin1ELin1ELi1ELin1ELin1EEELi1ELin1ELb1EEELi1ELin1ELb0EEEEELin1ELi1ELb0EEENS_13CwiseBinaryOpINS0_17scalar_product_opIffEEKNS_14CwiseNullaryOpINS0_18scalar_constant_opIfEEKNS4_IfLin1ELi1ELi0ELi3ELi1EEEEEKNS2_IKNS3_IKNSA_ISC_KNSD_ISF_KNS4_IfLi1ELin1ELi1ELi1ELi3EEEEEKNS3_IKNS2_IKNS2_IKNS2_INS4_IfLi3ELi3ELi0ELi3ELi3EEELin1ELin1ELb0EEELin1ELi1ELb1EEELin1ELi1ELb0EEEEEEEEELin1ELi1ELb0EEEEENS0_13sub_assign_opIffEEEEvRT_RKT0_RKT1_NS0_9enable_ifIXntsr25evaluator_assume_aliasingIS18_EE5valueEPvE4typeE, symObjAddr: 0x4B14C, symBinAddr: 0x10004F1C4, symSize: 0x38 }
  - { offsetInCU: 0x5B2EC, offset: 0x5B2EC, size: 0x8, addend: 0x0, symName: __ZN5Eigen8internal24call_assignment_no_aliasINS_5BlockINS_9TransposeINS2_INS2_INS_6MatrixIfLin1ELin1ELi1ELin1ELin1EEELi1ELin1ELb1EEELi1ELin1ELb0EEEEELin1ELi1ELb0EEENS_13CwiseBinaryOpINS0_17scalar_product_opIffEEKNS_14CwiseNullaryOpINS0_18scalar_constant_opIfEEKNS4_IfLin1ELi1ELi0ELi3ELi1EEEEEKNS2_IKNS3_IKNSA_ISC_KNSD_ISF_KNS4_IfLi1ELin1ELi1ELi1ELi3EEEEEKNS3_IKNS2_IKNS2_IKNS2_INS4_IfLi3ELi3ELi0ELi3ELi3EEELin1ELin1ELb0EEELin1ELi1ELb1EEELin1ELi1ELb0EEEEEEEEELin1ELi1ELb0EEEEENS0_13sub_assign_opIffEEEEvRT_RKT0_RKT1_, symObjAddr: 0x4B1AC, symBinAddr: 0x10004F224, symSize: 0x3C }
  - { offsetInCU: 0x5B3BA, offset: 0x5B3BA, size: 0x8, addend: 0x0, symName: __ZN5Eigen8internal18check_for_aliasingINS_5BlockINS_9TransposeINS2_INS2_INS_6MatrixIfLin1ELin1ELi1ELin1ELin1EEELi1ELin1ELb1EEELi1ELin1ELb0EEEEELin1ELi1ELb0EEENS_13CwiseBinaryOpINS0_17scalar_product_opIffEEKNS_14CwiseNullaryOpINS0_18scalar_constant_opIfEEKNS4_IfLin1ELi1ELi0ELi3ELi1EEEEEKNS2_IKNS3_IKNSA_ISC_KNSD_ISF_KNS4_IfLi1ELin1ELi1ELi1ELi3EEEEEKNS3_IKNS2_IKNS2_IKNS2_INS4_IfLi3ELi3ELi0ELi3ELi3EEELin1ELin1ELb0EEELin1ELi1ELb1EEELin1ELi1ELb0EEEEEEEEELin1ELi1ELb0EEEEEEEvRKT_RKT0_, symObjAddr: 0x4B228, symBinAddr: 0x10004F2A0, symSize: 0x14 }
  - { offsetInCU: 0x5B405, offset: 0x5B405, size: 0x8, addend: 0x0, symName: __ZN5Eigen8internal26call_dense_assignment_loopINS_5BlockINS_9TransposeINS2_INS2_INS_6MatrixIfLin1ELin1ELi1ELin1ELin1EEELi1ELin1ELb1EEELi1ELin1ELb0EEEEELin1ELi1ELb0EEENS_13CwiseBinaryOpINS0_17scalar_product_opIffEEKNS_14CwiseNullaryOpINS0_18scalar_constant_opIfEEKNS4_IfLin1ELi1ELi0ELi3ELi1EEEEEKNS2_IKNS3_IKNSA_ISC_KNSD_ISF_KNS4_IfLi1ELin1ELi1ELi1ELi3EEEEEKNS3_IKNS2_IKNS2_IKNS2_INS4_IfLi3ELi3ELi0ELi3ELi3EEELin1ELin1ELb0EEELin1ELi1ELb1EEELin1ELi1ELb0EEEEEEEEELin1ELi1ELb0EEEEENS0_13sub_assign_opIffEEEEvRT_RKT0_RKT1_, symObjAddr: 0x4B23C, symBinAddr: 0x10004F2B4, symSize: 0xE0 }
  - { offsetInCU: 0x5B4BA, offset: 0x5B4BA, size: 0x8, addend: 0x0, symName: __ZN5Eigen8internal17resize_if_allowedINS_5BlockINS_9TransposeINS2_INS2_INS_6MatrixIfLin1ELin1ELi1ELin1ELin1EEELi1ELin1ELb1EEELi1ELin1ELb0EEEEELin1ELi1ELb0EEENS_13CwiseBinaryOpINS0_17scalar_product_opIffEEKNS_14CwiseNullaryOpINS0_18scalar_constant_opIfEEKNS4_IfLin1ELi1ELi0ELi3ELi1EEEEEKNS2_IKNS3_IKNSA_ISC_KNSD_ISF_KNS4_IfLi1ELin1ELi1ELi1ELi3EEEEEKNS3_IKNS2_IKNS2_IKNS2_INS4_IfLi3ELi3ELi0ELi3ELi3EEELin1ELin1ELb0EEELin1ELi1ELb1EEELin1ELi1ELb0EEEEEEEEELin1ELi1ELb0EEEEENS0_13sub_assign_opIffEEEEvRT_RKT0_RKT1_, symObjAddr: 0x4B350, symBinAddr: 0x10004F3C8, symSize: 0xB4 }
  - { offsetInCU: 0x5B519, offset: 0x5B519, size: 0x8, addend: 0x0, symName: __ZN5Eigen8internal15call_assignmentINS_5BlockINS2_INS_6MatrixIfLin1ELin1ELi1ELin1ELin1EEELi1ELin1ELb1EEELi1ELin1ELb0EEENS_13CwiseBinaryOpINS0_17scalar_product_opIffEEKNS_14CwiseNullaryOpINS0_18scalar_constant_opIfEEKNS3_IfLi1ELin1ELi1ELi1ELin1EEEEEKS6_EENS0_13add_assign_opIffEEEEvRT_RKT0_RKT1_NS0_9enable_ifIXntsr25evaluator_assume_aliasingISN_EE5valueEPvE4typeE, symObjAddr: 0x4D954, symBinAddr: 0x1000519CC, symSize: 0x38 }
  - { offsetInCU: 0x5B587, offset: 0x5B587, size: 0x8, addend: 0x0, symName: __ZN5Eigen8internal24call_assignment_no_aliasINS_5BlockINS2_INS_6MatrixIfLin1ELin1ELi1ELin1ELin1EEELi1ELin1ELb1EEELi1ELin1ELb0EEENS_13CwiseBinaryOpINS0_17scalar_product_opIffEEKNS_14CwiseNullaryOpINS0_18scalar_constant_opIfEEKNS3_IfLi1ELin1ELi1ELi1ELin1EEEEEKS6_EENS0_13add_assign_opIffEEEEvRT_RKT0_RKT1_, symObjAddr: 0x4D9A0, symBinAddr: 0x100051A18, symSize: 0x3C }
  - { offsetInCU: 0x5B655, offset: 0x5B655, size: 0x8, addend: 0x0, symName: __ZN5Eigen8internal18check_for_aliasingINS_5BlockINS2_INS_6MatrixIfLin1ELin1ELi1ELin1ELin1EEELi1ELin1ELb1EEELi1ELin1ELb0EEENS_13CwiseBinaryOpINS0_17scalar_product_opIffEEKNS_14CwiseNullaryOpINS0_18scalar_constant_opIfEEKNS3_IfLi1ELin1ELi1ELi1ELin1EEEEEKS6_EEEEvRKT_RKT0_, symObjAddr: 0x4DA1C, symBinAddr: 0x100051A94, symSize: 0x14 }
  - { offsetInCU: 0x5B6A0, offset: 0x5B6A0, size: 0x8, addend: 0x0, symName: __ZN5Eigen8internal26call_dense_assignment_loopINS_5BlockINS2_INS_6MatrixIfLin1ELin1ELi1ELin1ELin1EEELi1ELin1ELb1EEELi1ELin1ELb0EEENS_13CwiseBinaryOpINS0_17scalar_product_opIffEEKNS_14CwiseNullaryOpINS0_18scalar_constant_opIfEEKNS3_IfLi1ELin1ELi1ELi1ELin1EEEEEKS6_EENS0_13add_assign_opIffEEEEvRT_RKT0_RKT1_, symObjAddr: 0x4DA30, symBinAddr: 0x100051AA8, symSize: 0xD8 }
  - { offsetInCU: 0x5B754, offset: 0x5B754, size: 0x8, addend: 0x0, symName: __ZN5Eigen8internal17resize_if_allowedINS_5BlockINS2_INS_6MatrixIfLin1ELin1ELi1ELin1ELin1EEELi1ELin1ELb1EEELi1ELin1ELb0EEENS_13CwiseBinaryOpINS0_17scalar_product_opIffEEKNS_14CwiseNullaryOpINS0_18scalar_constant_opIfEEKNS3_IfLi1ELin1ELi1ELi1ELin1EEEEEKS6_EENS0_13add_assign_opIffEEEEvRT_RKT0_RKT1_, symObjAddr: 0x4DB3C, symBinAddr: 0x100051BB4, symSize: 0xB4 }
  - { offsetInCU: 0x5B7B3, offset: 0x5B7B3, size: 0x8, addend: 0x0, symName: __ZN5Eigen8internal24call_assignment_no_aliasINS_6MatrixIfLin1ELin1ELi0ELi3ELi3EEENS_7ProductINS_14TriangularViewIKNS_9TransposeIKNS_5BlockINS2_IfLi3ELi3ELi0ELi3ELi3EEELin1ELin1ELb0EEEEELj6EEES9_Li0EEENS0_9assign_opIffEEEEvRT_RKT0_RKT1_, symObjAddr: 0x4EEC0, symBinAddr: 0x100052F38, symSize: 0x3C }
  - { offsetInCU: 0x5B980, offset: 0x5B980, size: 0x8, addend: 0x0, symName: __ZN5Eigen8internal15call_assignmentINS_6MatrixIfLin1ELin1ELi0ELi3ELi3EEENS_14CwiseNullaryOpINS0_18scalar_constant_opIfEES3_EEEEvRT_RKT0_, symObjAddr: 0x4F28C, symBinAddr: 0x100053304, symSize: 0x50 }
  - { offsetInCU: 0x5B9CB, offset: 0x5B9CB, size: 0x8, addend: 0x0, symName: __ZN5Eigen8internal15call_assignmentINS_6MatrixIfLin1ELin1ELi0ELi3ELi3EEENS_14CwiseNullaryOpINS0_18scalar_constant_opIfEES3_EENS0_9assign_opIffEEEEvRT_RKT0_RKT1_NS0_9enable_ifIXntsr25evaluator_assume_aliasingISC_EE5valueEPvE4typeE, symObjAddr: 0x4F2F0, symBinAddr: 0x100053368, symSize: 0x38 }
  - { offsetInCU: 0x5BA39, offset: 0x5BA39, size: 0x8, addend: 0x0, symName: __ZN5Eigen8internal24call_assignment_no_aliasINS_6MatrixIfLin1ELin1ELi0ELi3ELi3EEENS_14CwiseNullaryOpINS0_18scalar_constant_opIfEES3_EENS0_9assign_opIffEEEEvRT_RKT0_RKT1_, symObjAddr: 0x4F328, symBinAddr: 0x1000533A0, symSize: 0x3C }
  - { offsetInCU: 0x5BB07, offset: 0x5BB07, size: 0x8, addend: 0x0, symName: __ZN5Eigen8internal18check_for_aliasingINS_6MatrixIfLin1ELin1ELi0ELi3ELi3EEENS_14CwiseNullaryOpINS0_18scalar_constant_opIfEES3_EEEEvRKT_RKT0_, symObjAddr: 0x4F3A4, symBinAddr: 0x10005341C, symSize: 0x60 }
  - { offsetInCU: 0x5BB52, offset: 0x5BB52, size: 0x8, addend: 0x0, symName: __ZN5Eigen8internal26call_dense_assignment_loopINS_6MatrixIfLin1ELin1ELi0ELi3ELi3EEEEEvRT_RKNS_14CwiseNullaryOpINS0_18scalar_constant_opINS4_6ScalarEEES4_EERKNS0_9assign_opIS8_S8_EE, symObjAddr: 0x4F404, symBinAddr: 0x10005347C, symSize: 0x6C }
  - { offsetInCU: 0x5BBE1, offset: 0x5BBE1, size: 0x8, addend: 0x0, symName: __ZN5Eigen8internal17resize_if_allowedINS_6MatrixIfLin1ELin1ELi0ELi3ELi3EEENS_14CwiseNullaryOpINS0_18scalar_constant_opIfEES3_EEffEEvRT_RKT0_RKNS0_9assign_opIT1_T2_EE, symObjAddr: 0x4F484, symBinAddr: 0x1000534FC, symSize: 0xF8 }
  - { offsetInCU: 0x5BCA9, offset: 0x5BCA9, size: 0x8, addend: 0x0, symName: __ZN5Eigen8internal28check_static_allocation_sizeIfLi576EEEvv, symObjAddr: 0x57DE8, symBinAddr: 0x10005BE60, symSize: 0x4 }
  - { offsetInCU: 0x5BCD7, offset: 0x5BCD7, size: 0x8, addend: 0x0, symName: __ZN5Eigen8internal15call_assignmentINS_6MatrixIfLi24ELi24ELi1ELi24ELi24EEENS_14CwiseNullaryOpINS0_18scalar_constant_opIfEES3_EEEEvRT_RKT0_, symObjAddr: 0x5826C, symBinAddr: 0x10005C2E4, symSize: 0x50 }
  - { offsetInCU: 0x5BD22, offset: 0x5BD22, size: 0x8, addend: 0x0, symName: __ZN5Eigen8internal15call_assignmentINS_6MatrixIfLi24ELi24ELi1ELi24ELi24EEENS_14CwiseNullaryOpINS0_18scalar_constant_opIfEES3_EENS0_9assign_opIffEEEEvRT_RKT0_RKT1_NS0_9enable_ifIXntsr25evaluator_assume_aliasingISC_EE5valueEPvE4typeE, symObjAddr: 0x582D0, symBinAddr: 0x10005C348, symSize: 0x38 }
  - { offsetInCU: 0x5BD90, offset: 0x5BD90, size: 0x8, addend: 0x0, symName: __ZN5Eigen8internal24call_assignment_no_aliasINS_6MatrixIfLi24ELi24ELi1ELi24ELi24EEENS_14CwiseNullaryOpINS0_18scalar_constant_opIfEES3_EENS0_9assign_opIffEEEEvRT_RKT0_RKT1_, symObjAddr: 0x58308, symBinAddr: 0x10005C380, symSize: 0x3C }
  - { offsetInCU: 0x5BE5E, offset: 0x5BE5E, size: 0x8, addend: 0x0, symName: __ZN5Eigen8internal18check_for_aliasingINS_6MatrixIfLi24ELi24ELi1ELi24ELi24EEENS_14CwiseNullaryOpINS0_18scalar_constant_opIfEES3_EEEEvRKT_RKT0_, symObjAddr: 0x58384, symBinAddr: 0x10005C3FC, symSize: 0x60 }
  - { offsetInCU: 0x5BEA9, offset: 0x5BEA9, size: 0x8, addend: 0x0, symName: __ZN5Eigen8internal26call_dense_assignment_loopINS_6MatrixIfLi24ELi24ELi1ELi24ELi24EEEEEvRT_RKNS_14CwiseNullaryOpINS0_18scalar_constant_opINS4_6ScalarEEES4_EERKNS0_9assign_opIS8_S8_EE, symObjAddr: 0x583E4, symBinAddr: 0x10005C45C, symSize: 0x6C }
  - { offsetInCU: 0x5BF38, offset: 0x5BF38, size: 0x8, addend: 0x0, symName: __ZN5Eigen8internal17resize_if_allowedINS_6MatrixIfLi24ELi24ELi1ELi24ELi24EEENS_14CwiseNullaryOpINS0_18scalar_constant_opIfEES3_EEffEEvRT_RKT0_RKNS0_9assign_opIT1_T2_EE, symObjAddr: 0x58464, symBinAddr: 0x10005C4DC, symSize: 0xF8 }
  - { offsetInCU: 0x5BFBE, offset: 0x5BFBE, size: 0x8, addend: 0x0, symName: __ZN5Eigen8internal15call_assignmentINS_8DiagonalINS_6MatrixIfLi24ELi24ELi1ELi24ELi24EEELi0EEENS_14CwiseNullaryOpINS0_18scalar_constant_opIfEENS3_IfLi24ELi1ELi0ELi24ELi1EEEEEEEvRT_RKT0_, symObjAddr: 0x58D64, symBinAddr: 0x10005CDDC, symSize: 0x50 }
  - { offsetInCU: 0x5C009, offset: 0x5C009, size: 0x8, addend: 0x0, symName: __ZN5Eigen8internal15call_assignmentINS_8DiagonalINS_6MatrixIfLi24ELi24ELi1ELi24ELi24EEELi0EEENS_14CwiseNullaryOpINS0_18scalar_constant_opIfEENS3_IfLi24ELi1ELi0ELi24ELi1EEEEENS0_9assign_opIffEEEEvRT_RKT0_RKT1_NS0_9enable_ifIXntsr25evaluator_assume_aliasingISF_EE5valueEPvE4typeE, symObjAddr: 0x58DB4, symBinAddr: 0x10005CE2C, symSize: 0x38 }
  - { offsetInCU: 0x5C077, offset: 0x5C077, size: 0x8, addend: 0x0, symName: __ZN5Eigen8internal24call_assignment_no_aliasINS_8DiagonalINS_6MatrixIfLi24ELi24ELi1ELi24ELi24EEELi0EEENS_14CwiseNullaryOpINS0_18scalar_constant_opIfEENS3_IfLi24ELi1ELi0ELi24ELi1EEEEENS0_9assign_opIffEEEEvRT_RKT0_RKT1_, symObjAddr: 0x58DEC, symBinAddr: 0x10005CE64, symSize: 0x3C }
  - { offsetInCU: 0x5C145, offset: 0x5C145, size: 0x8, addend: 0x0, symName: __ZN5Eigen8internal18check_for_aliasingINS_8DiagonalINS_6MatrixIfLi24ELi24ELi1ELi24ELi24EEELi0EEENS_14CwiseNullaryOpINS0_18scalar_constant_opIfEENS3_IfLi24ELi1ELi0ELi24ELi1EEEEEEEvRKT_RKT0_, symObjAddr: 0x58E68, symBinAddr: 0x10005CEE0, symSize: 0x14 }
  - { offsetInCU: 0x5C190, offset: 0x5C190, size: 0x8, addend: 0x0, symName: __ZN5Eigen8internal26call_dense_assignment_loopINS_8DiagonalINS_6MatrixIfLi24ELi24ELi1ELi24ELi24EEELi0EEENS_14CwiseNullaryOpINS0_18scalar_constant_opIfEENS3_IfLi24ELi1ELi0ELi24ELi1EEEEENS0_9assign_opIffEEEEvRT_RKT0_RKT1_, symObjAddr: 0x58E7C, symBinAddr: 0x10005CEF4, symSize: 0xE0 }
  - { offsetInCU: 0x5C32F, offset: 0x5C32F, size: 0x8, addend: 0x0, symName: __ZN5Eigen8internal17resize_if_allowedINS_8DiagonalINS_6MatrixIfLi24ELi24ELi1ELi24ELi24EEELi0EEENS_14CwiseNullaryOpINS0_18scalar_constant_opIfEENS3_IfLi24ELi1ELi0ELi24ELi1EEEEEffEEvRT_RKT0_RKNS0_9assign_opIT1_T2_EE, symObjAddr: 0x58F90, symBinAddr: 0x10005D008, symSize: 0xF8 }
  - { offsetInCU: 0x5CE40, offset: 0x5CE40, size: 0x8, addend: 0x0, symName: __ZN5Eigen8internal10ptransposeERNS0_11PacketBlockI19__simd128_float32_tLi4EEE, symObjAddr: 0x59E18, symBinAddr: 0x10005DE90, symSize: 0x1D8 }
  - { offsetInCU: 0x5CF49, offset: 0x5CF49, size: 0x8, addend: 0x0, symName: __ZN5Eigen8internal7pstoreuIf19__simd128_float32_tEEvPT_RKT0_, symObjAddr: 0x59FF0, symBinAddr: 0x10005E068, symSize: 0x2C }
  - { offsetInCU: 0x5CFDC, offset: 0x5CFDC, size: 0x8, addend: 0x0, symName: __ZN5Eigen8internal10ptransposeERNS0_11PacketBlockI18__simd64_float32_tLi2EEE, symObjAddr: 0x5A048, symBinAddr: 0x10005E0C0, symSize: 0x84 }
  - { offsetInCU: 0x5D052, offset: 0x5D052, size: 0x8, addend: 0x0, symName: __ZN5Eigen8internal8prefetchIfEEvPKT_, symObjAddr: 0x5A0F0, symBinAddr: 0x10005E168, symSize: 0x18 }
  - { offsetInCU: 0x5DA35, offset: 0x5DA35, size: 0x8, addend: 0x0, symName: __ZN5Eigen8internal5ploadI18__simd64_float32_tEET_PKNS0_15unpacket_traitsIS3_E4typeE, symObjAddr: 0x5CE54, symBinAddr: 0x100060ECC, symSize: 0x28 }
  - { offsetInCU: 0x5DA89, offset: 0x5DA89, size: 0x8, addend: 0x0, symName: __ZN5Eigen8internal11pbroadcast4I18__simd64_float32_tEEvPKNS0_15unpacket_traitsIT_E4typeERS4_S9_S9_S9_, symObjAddr: 0x5CE7C, symBinAddr: 0x100060EF4, symSize: 0x78 }
  - { offsetInCU: 0x5DAF8, offset: 0x5DAF8, size: 0x8, addend: 0x0, symName: __ZN5Eigen8internal6pload1I18__simd64_float32_tEET_PKNS0_15unpacket_traitsIS3_E4typeE, symObjAddr: 0x5CEF4, symBinAddr: 0x100060F6C, symSize: 0x24 }
  - { offsetInCU: 0x5DB2F, offset: 0x5DB2F, size: 0x8, addend: 0x0, symName: __ZN5Eigen8internal22ignore_unused_variableI18__simd64_float32_tEEvRKT_, symObjAddr: 0x5CFA0, symBinAddr: 0x100061018, symSize: 0x10 }
  - { offsetInCU: 0x5DB5E, offset: 0x5DB5E, size: 0x8, addend: 0x0, symName: __ZN5Eigen8internal7pgatherIf19__simd128_float32_tEET0_PKT_l, symObjAddr: 0x5D090, symBinAddr: 0x100061108, symSize: 0xE8 }
  - { offsetInCU: 0x5DC65, offset: 0x5DC65, size: 0x8, addend: 0x0, symName: __ZN5Eigen8internal8pscatterIf19__simd128_float32_tEEvPT_RKT0_l, symObjAddr: 0x5D178, symBinAddr: 0x1000611F0, symSize: 0xB0 }
  - { offsetInCU: 0x5DD36, offset: 0x5DD36, size: 0x8, addend: 0x0, symName: __ZN5Eigen8internal5pmaddIfEET_RKS2_S4_S4_, symObjAddr: 0x5D228, symBinAddr: 0x1000612A0, symSize: 0x40 }
  - { offsetInCU: 0x5DD8B, offset: 0x5DD8B, size: 0x8, addend: 0x0, symName: __ZN5Eigen8internal4paddIfEET_RKS2_S4_, symObjAddr: 0x5D268, symBinAddr: 0x1000612E0, symSize: 0x28 }
  - { offsetInCU: 0x5DDCE, offset: 0x5DDCE, size: 0x8, addend: 0x0, symName: __ZN5Eigen8internal15call_assignmentINS_5BlockINS_6MatrixIfLin1ELin1ELi0ELi3ELi3EEELin1ELin1ELb0EEENS2_IKNS_13CwiseBinaryOpINS0_17scalar_product_opIffEEKNS_14CwiseNullaryOpINS0_18scalar_constant_opIfEEKS4_EEKNS2_INS3_IfLi3ELi3ELi0ELi3ELi3EEELin1ELin1ELb0EEEEELin1ELin1ELb0EEENS0_13sub_assign_opIffEEEEvRT_RKT0_RKT1_NS0_9enable_ifIXntsr25evaluator_assume_aliasingISP_EE5valueEPvE4typeE, symObjAddr: 0x5DFC4, symBinAddr: 0x10006203C, symSize: 0x38 }
  - { offsetInCU: 0x5DE3C, offset: 0x5DE3C, size: 0x8, addend: 0x0, symName: __ZN5Eigen8internal24call_assignment_no_aliasINS_5BlockINS_6MatrixIfLin1ELin1ELi0ELi3ELi3EEELin1ELin1ELb0EEENS2_IKNS_13CwiseBinaryOpINS0_17scalar_product_opIffEEKNS_14CwiseNullaryOpINS0_18scalar_constant_opIfEEKS4_EEKNS2_INS3_IfLi3ELi3ELi0ELi3ELi3EEELin1ELin1ELb0EEEEELin1ELin1ELb0EEENS0_13sub_assign_opIffEEEEvRT_RKT0_RKT1_, symObjAddr: 0x5E024, symBinAddr: 0x10006209C, symSize: 0x3C }
  - { offsetInCU: 0x5DF0A, offset: 0x5DF0A, size: 0x8, addend: 0x0, symName: __ZN5Eigen8internal18check_for_aliasingINS_5BlockINS_6MatrixIfLin1ELin1ELi0ELi3ELi3EEELin1ELin1ELb0EEENS2_IKNS_13CwiseBinaryOpINS0_17scalar_product_opIffEEKNS_14CwiseNullaryOpINS0_18scalar_constant_opIfEEKS4_EEKNS2_INS3_IfLi3ELi3ELi0ELi3ELi3EEELin1ELin1ELb0EEEEELin1ELin1ELb0EEEEEvRKT_RKT0_, symObjAddr: 0x5E0A0, symBinAddr: 0x100062118, symSize: 0x60 }
  - { offsetInCU: 0x5DF55, offset: 0x5DF55, size: 0x8, addend: 0x0, symName: __ZN5Eigen8internal26call_dense_assignment_loopINS_5BlockINS_6MatrixIfLin1ELin1ELi0ELi3ELi3EEELin1ELin1ELb0EEENS2_IKNS_13CwiseBinaryOpINS0_17scalar_product_opIffEEKNS_14CwiseNullaryOpINS0_18scalar_constant_opIfEEKS4_EEKNS2_INS3_IfLi3ELi3ELi0ELi3ELi3EEELin1ELin1ELb0EEEEELin1ELin1ELb0EEENS0_13sub_assign_opIffEEEEvRT_RKT0_RKT1_, symObjAddr: 0x5E100, symBinAddr: 0x100062178, symSize: 0xE0 }
  - { offsetInCU: 0x5E648, offset: 0x5E648, size: 0x8, addend: 0x0, symName: __ZN5Eigen8internal17resize_if_allowedINS_5BlockINS_6MatrixIfLin1ELin1ELi0ELi3ELi3EEELin1ELin1ELb0EEENS2_IKNS_13CwiseBinaryOpINS0_17scalar_product_opIffEEKNS_14CwiseNullaryOpINS0_18scalar_constant_opIfEEKS4_EEKNS2_INS3_IfLi3ELi3ELi0ELi3ELi3EEELin1ELin1ELb0EEEEELin1ELin1ELb0EEENS0_13sub_assign_opIffEEEEvRT_RKT0_RKT1_, symObjAddr: 0x5E278, symBinAddr: 0x1000622F0, symSize: 0xB4 }
  - { offsetInCU: 0x5E9B5, offset: 0x5E9B5, size: 0x8, addend: 0x0, symName: __ZN5Eigen8internal15call_assignmentINS_6MatrixIfLin1ELin1ELi0ELi3ELi3EEENS_7ProductINS_14TriangularViewINS2_IfLin1ELin1ELi1ELin1ELin1EEELj2EEES3_Li0EEEEEvRT_RKT0_, symObjAddr: 0x5F7B8, symBinAddr: 0x100063830, symSize: 0x50 }
  - { offsetInCU: 0x5EA00, offset: 0x5EA00, size: 0x8, addend: 0x0, symName: __ZN5Eigen8internal15call_assignmentINS_6MatrixIfLin1ELin1ELi0ELi3ELi3EEENS_7ProductINS_14TriangularViewINS2_IfLin1ELin1ELi1ELin1ELin1EEELj2EEES3_Li0EEENS0_9assign_opIffEEEEvRT_RKT0_RKT1_NS0_9enable_ifIXsr25evaluator_assume_aliasingISD_EE5valueEPvE4typeE, symObjAddr: 0x5F81C, symBinAddr: 0x100063894, symSize: 0x74 }
  - { offsetInCU: 0x5EA7D, offset: 0x5EA7D, size: 0x8, addend: 0x0, symName: __ZN5Eigen8internal24call_assignment_no_aliasINS_6MatrixIfLin1ELin1ELi0ELi3ELi3EEENS2_IfLin1ELin1ELi0ELin1ELi3EEENS0_9assign_opIffEEEEvRT_RKT0_RKT1_, symObjAddr: 0x5F8C4, symBinAddr: 0x10006393C, symSize: 0x3C }
  - { offsetInCU: 0x5EAFB, offset: 0x5EAFB, size: 0x8, addend: 0x0, symName: __ZN5Eigen8internal24call_assignment_no_aliasINS_6MatrixIfLin1ELin1ELi0ELin1ELi3EEENS_7ProductINS_14TriangularViewINS2_IfLin1ELin1ELi1ELin1ELin1EEELj2EEENS2_IfLin1ELin1ELi0ELi3ELi3EEELi0EEENS0_9assign_opIffEEEEvRT_RKT0_RKT1_, symObjAddr: 0x5FB14, symBinAddr: 0x100063B8C, symSize: 0x3C }
  - { offsetInCU: 0x5ECC8, offset: 0x5ECC8, size: 0x8, addend: 0x0, symName: __ZN5Eigen8internal15call_assignmentINS_6MatrixIfLin1ELin1ELi0ELin1ELi3EEENS_14CwiseNullaryOpINS0_18scalar_constant_opIfEES3_EEEEvRT_RKT0_, symObjAddr: 0x60358, symBinAddr: 0x1000643D0, symSize: 0x50 }
  - { offsetInCU: 0x5ED13, offset: 0x5ED13, size: 0x8, addend: 0x0, symName: __ZN5Eigen8internal15call_assignmentINS_6MatrixIfLin1ELin1ELi0ELin1ELi3EEENS_14CwiseNullaryOpINS0_18scalar_constant_opIfEES3_EENS0_9assign_opIffEEEEvRT_RKT0_RKT1_NS0_9enable_ifIXntsr25evaluator_assume_aliasingISC_EE5valueEPvE4typeE, symObjAddr: 0x603BC, symBinAddr: 0x100064434, symSize: 0x38 }
  - { offsetInCU: 0x5ED81, offset: 0x5ED81, size: 0x8, addend: 0x0, symName: __ZN5Eigen8internal24call_assignment_no_aliasINS_6MatrixIfLin1ELin1ELi0ELin1ELi3EEENS_14CwiseNullaryOpINS0_18scalar_constant_opIfEES3_EENS0_9assign_opIffEEEEvRT_RKT0_RKT1_, symObjAddr: 0x603F4, symBinAddr: 0x10006446C, symSize: 0x3C }
  - { offsetInCU: 0x5EE4F, offset: 0x5EE4F, size: 0x8, addend: 0x0, symName: __ZN5Eigen8internal18check_for_aliasingINS_6MatrixIfLin1ELin1ELi0ELin1ELi3EEENS_14CwiseNullaryOpINS0_18scalar_constant_opIfEES3_EEEEvRKT_RKT0_, symObjAddr: 0x60470, symBinAddr: 0x1000644E8, symSize: 0x60 }
  - { offsetInCU: 0x5EE9A, offset: 0x5EE9A, size: 0x8, addend: 0x0, symName: __ZN5Eigen8internal26call_dense_assignment_loopINS_6MatrixIfLin1ELin1ELi0ELin1ELi3EEEEEvRT_RKNS_14CwiseNullaryOpINS0_18scalar_constant_opINS4_6ScalarEEES4_EERKNS0_9assign_opIS8_S8_EE, symObjAddr: 0x604D0, symBinAddr: 0x100064548, symSize: 0x6C }
  - { offsetInCU: 0x5EF29, offset: 0x5EF29, size: 0x8, addend: 0x0, symName: __ZN5Eigen8internal17resize_if_allowedINS_6MatrixIfLin1ELin1ELi0ELin1ELi3EEENS_14CwiseNullaryOpINS0_18scalar_constant_opIfEES3_EEffEEvRT_RKT0_RKNS0_9assign_opIT1_T2_EE, symObjAddr: 0x60550, symBinAddr: 0x1000645C8, symSize: 0xF8 }
  - { offsetInCU: 0x5F12F, offset: 0x5F12F, size: 0x8, addend: 0x0, symName: __ZN5Eigen8internal27computeProductBlockingSizesIffLi4ElEEvRT2_S3_S3_S2_, symObjAddr: 0x61FA0, symBinAddr: 0x100066018, symSize: 0x58 }
  - { offsetInCU: 0x5F1AB, offset: 0x5F1AB, size: 0x8, addend: 0x0, symName: __ZN5Eigen8internal24useSpecificBlockingSizesIlEEbRT_S3_S3_, symObjAddr: 0x61FF8, symBinAddr: 0x100066070, symSize: 0x44 }
  - { offsetInCU: 0x5F200, offset: 0x5F200, size: 0x8, addend: 0x0, symName: __ZN5Eigen8internal15queryCacheSizesERiS1_S1_, symObjAddr: 0x62A50, symBinAddr: 0x100066AC8, symSize: 0x34 }
  - { offsetInCU: 0x5F248, offset: 0x5F248, size: 0x8, addend: 0x0, symName: __ZN5Eigen8internal27manage_caching_sizes_helperEll, symObjAddr: 0x62A84, symBinAddr: 0x100066AFC, symSize: 0x44 }
  - { offsetInCU: 0x5F282, offset: 0x5F282, size: 0x8, addend: 0x0, symName: __ZN5Eigen8internal14aligned_deleteIfEEvPT_m, symObjAddr: 0x62B50, symBinAddr: 0x100066BC8, symSize: 0x34 }
  - { offsetInCU: 0x5F2C4, offset: 0x5F2C4, size: 0x8, addend: 0x0, symName: __ZN5Eigen8internal26destruct_elements_of_arrayIfEEvPT_m, symObjAddr: 0x62B84, symBinAddr: 0x100066BFC, symSize: 0x54 }
  - { offsetInCU: 0x5F356, offset: 0x5F356, size: 0x8, addend: 0x0, symName: __ZN5Eigen8internal18check_for_aliasingINS_6MatrixIfLin1ELin1ELi0ELi3ELi3EEENS2_IfLin1ELin1ELi0ELin1ELi3EEEEEvRKT_RKT0_, symObjAddr: 0x62C88, symBinAddr: 0x100066D00, symSize: 0x60 }
  - { offsetInCU: 0x5F3A1, offset: 0x5F3A1, size: 0x8, addend: 0x0, symName: __ZN5Eigen8internal26call_dense_assignment_loopINS_6MatrixIfLin1ELin1ELi0ELi3ELi3EEENS2_IfLin1ELin1ELi0ELin1ELi3EEENS0_9assign_opIffEEEEvRT_RKT0_RKT1_, symObjAddr: 0x62CE8, symBinAddr: 0x100066D60, symSize: 0xE0 }
  - { offsetInCU: 0x5F493, offset: 0x5F493, size: 0x8, addend: 0x0, symName: __ZN5Eigen8internal17resize_if_allowedINS_6MatrixIfLin1ELin1ELi0ELi3ELi3EEENS2_IfLin1ELin1ELi0ELin1ELi3EEEffEEvRT_RKT0_RKNS0_9assign_opIT1_T2_EE, symObjAddr: 0x62E10, symBinAddr: 0x100066E88, symSize: 0xF8 }
  - { offsetInCU: 0x5F519, offset: 0x5F519, size: 0x8, addend: 0x0, symName: __ZN5Eigen8internal15call_assignmentINS_6MatrixIfLin1ELin1ELi0ELi3ELi3EEENS_7ProductINS_14TriangularViewIKNS_9TransposeIKNS2_IfLin1ELin1ELi1ELin1ELin1EEEEELj1EEES3_Li0EEEEEvRT_RKT0_, symObjAddr: 0x63A68, symBinAddr: 0x100067AE0, symSize: 0x50 }
  - { offsetInCU: 0x5F564, offset: 0x5F564, size: 0x8, addend: 0x0, symName: __ZN5Eigen8internal15call_assignmentINS_6MatrixIfLin1ELin1ELi0ELi3ELi3EEENS_7ProductINS_14TriangularViewIKNS_9TransposeIKNS2_IfLin1ELin1ELi1ELin1ELin1EEEEELj1EEES3_Li0EEENS0_9assign_opIffEEEEvRT_RKT0_RKT1_NS0_9enable_ifIXsr25evaluator_assume_aliasingISH_EE5valueEPvE4typeE, symObjAddr: 0x63ACC, symBinAddr: 0x100067B44, symSize: 0x74 }
  - { offsetInCU: 0x5F5E1, offset: 0x5F5E1, size: 0x8, addend: 0x0, symName: __ZN5Eigen8internal24call_assignment_no_aliasINS_6MatrixIfLin1ELin1ELi0ELin1ELi3EEENS_7ProductINS_14TriangularViewIKNS_9TransposeIKNS2_IfLin1ELin1ELi1ELin1ELin1EEEEELj1EEENS2_IfLin1ELin1ELi0ELi3ELi3EEELi0EEENS0_9assign_opIffEEEEvRT_RKT0_RKT1_, symObjAddr: 0x63C68, symBinAddr: 0x100067CE0, symSize: 0x3C }
  - { offsetInCU: 0x5F81D, offset: 0x5F81D, size: 0x8, addend: 0x0, symName: __ZN5Eigen8internal15call_assignmentINS_6MatrixIfLi24ELi24ELi0ELi24ELi24EEENS_14CwiseNullaryOpINS0_18scalar_constant_opIfEES3_EEEEvRT_RKT0_, symObjAddr: 0x66348, symBinAddr: 0x10006A3C0, symSize: 0x50 }
  - { offsetInCU: 0x5F868, offset: 0x5F868, size: 0x8, addend: 0x0, symName: __ZN5Eigen8internal15call_assignmentINS_6MatrixIfLi24ELi24ELi0ELi24ELi24EEENS_14CwiseNullaryOpINS0_18scalar_constant_opIfEES3_EENS0_9assign_opIffEEEEvRT_RKT0_RKT1_NS0_9enable_ifIXntsr25evaluator_assume_aliasingISC_EE5valueEPvE4typeE, symObjAddr: 0x663AC, symBinAddr: 0x10006A424, symSize: 0x38 }
  - { offsetInCU: 0x5F8D6, offset: 0x5F8D6, size: 0x8, addend: 0x0, symName: __ZN5Eigen8internal24call_assignment_no_aliasINS_6MatrixIfLi24ELi24ELi0ELi24ELi24EEENS_14CwiseNullaryOpINS0_18scalar_constant_opIfEES3_EENS0_9assign_opIffEEEEvRT_RKT0_RKT1_, symObjAddr: 0x663E4, symBinAddr: 0x10006A45C, symSize: 0x3C }
  - { offsetInCU: 0x5F9A4, offset: 0x5F9A4, size: 0x8, addend: 0x0, symName: __ZN5Eigen8internal18check_for_aliasingINS_6MatrixIfLi24ELi24ELi0ELi24ELi24EEENS_14CwiseNullaryOpINS0_18scalar_constant_opIfEES3_EEEEvRKT_RKT0_, symObjAddr: 0x66460, symBinAddr: 0x10006A4D8, symSize: 0x60 }
  - { offsetInCU: 0x5F9EF, offset: 0x5F9EF, size: 0x8, addend: 0x0, symName: __ZN5Eigen8internal26call_dense_assignment_loopINS_6MatrixIfLi24ELi24ELi0ELi24ELi24EEEEEvRT_RKNS_14CwiseNullaryOpINS0_18scalar_constant_opINS4_6ScalarEEES4_EERKNS0_9assign_opIS8_S8_EE, symObjAddr: 0x664C0, symBinAddr: 0x10006A538, symSize: 0x6C }
  - { offsetInCU: 0x5FA7E, offset: 0x5FA7E, size: 0x8, addend: 0x0, symName: __ZN5Eigen8internal17resize_if_allowedINS_6MatrixIfLi24ELi24ELi0ELi24ELi24EEENS_14CwiseNullaryOpINS0_18scalar_constant_opIfEES3_EEffEEvRT_RKT0_RKNS0_9assign_opIT1_T2_EE, symObjAddr: 0x66540, symBinAddr: 0x10006A5B8, symSize: 0xF8 }
  - { offsetInCU: 0x5FB04, offset: 0x5FB04, size: 0x8, addend: 0x0, symName: __ZN5Eigen8internal15call_assignmentINS_8DiagonalINS_6MatrixIfLi24ELi24ELi0ELi24ELi24EEELi0EEENS_14CwiseNullaryOpINS0_18scalar_constant_opIfEENS3_IfLi24ELi1ELi0ELi24ELi1EEEEEEEvRT_RKT0_, symObjAddr: 0x66C98, symBinAddr: 0x10006AD10, symSize: 0x50 }
  - { offsetInCU: 0x5FB4F, offset: 0x5FB4F, size: 0x8, addend: 0x0, symName: __ZN5Eigen8internal15call_assignmentINS_8DiagonalINS_6MatrixIfLi24ELi24ELi0ELi24ELi24EEELi0EEENS_14CwiseNullaryOpINS0_18scalar_constant_opIfEENS3_IfLi24ELi1ELi0ELi24ELi1EEEEENS0_9assign_opIffEEEEvRT_RKT0_RKT1_NS0_9enable_ifIXntsr25evaluator_assume_aliasingISF_EE5valueEPvE4typeE, symObjAddr: 0x66CE8, symBinAddr: 0x10006AD60, symSize: 0x38 }
  - { offsetInCU: 0x5FBBD, offset: 0x5FBBD, size: 0x8, addend: 0x0, symName: __ZN5Eigen8internal24call_assignment_no_aliasINS_8DiagonalINS_6MatrixIfLi24ELi24ELi0ELi24ELi24EEELi0EEENS_14CwiseNullaryOpINS0_18scalar_constant_opIfEENS3_IfLi24ELi1ELi0ELi24ELi1EEEEENS0_9assign_opIffEEEEvRT_RKT0_RKT1_, symObjAddr: 0x66D20, symBinAddr: 0x10006AD98, symSize: 0x3C }
  - { offsetInCU: 0x5FC8B, offset: 0x5FC8B, size: 0x8, addend: 0x0, symName: __ZN5Eigen8internal18check_for_aliasingINS_8DiagonalINS_6MatrixIfLi24ELi24ELi0ELi24ELi24EEELi0EEENS_14CwiseNullaryOpINS0_18scalar_constant_opIfEENS3_IfLi24ELi1ELi0ELi24ELi1EEEEEEEvRKT_RKT0_, symObjAddr: 0x66D9C, symBinAddr: 0x10006AE14, symSize: 0x14 }
  - { offsetInCU: 0x5FCD6, offset: 0x5FCD6, size: 0x8, addend: 0x0, symName: __ZN5Eigen8internal26call_dense_assignment_loopINS_8DiagonalINS_6MatrixIfLi24ELi24ELi0ELi24ELi24EEELi0EEENS_14CwiseNullaryOpINS0_18scalar_constant_opIfEENS3_IfLi24ELi1ELi0ELi24ELi1EEEEENS0_9assign_opIffEEEEvRT_RKT0_RKT1_, symObjAddr: 0x66DB0, symBinAddr: 0x10006AE28, symSize: 0xE0 }
  - { offsetInCU: 0x5FD8A, offset: 0x5FD8A, size: 0x8, addend: 0x0, symName: __ZN5Eigen8internal17resize_if_allowedINS_8DiagonalINS_6MatrixIfLi24ELi24ELi0ELi24ELi24EEELi0EEENS_14CwiseNullaryOpINS0_18scalar_constant_opIfEENS3_IfLi24ELi1ELi0ELi24ELi1EEEEEffEEvRT_RKT0_RKNS0_9assign_opIT1_T2_EE, symObjAddr: 0x66E90, symBinAddr: 0x10006AF08, symSize: 0xF8 }
  - { offsetInCU: 0x607A3, offset: 0x607A3, size: 0x8, addend: 0x0, symName: __ZN5Eigen8internal24call_assignment_no_aliasINS_5BlockINS_6MatrixIfLi3ELi3ELi0ELi3ELi3EEELin1ELin1ELb0EEENS_7ProductINS_14TriangularViewIKS5_Lj5EEENS3_IfLin1ELin1ELi0ELi3ELi3EEELi0EEENS0_13sub_assign_opIffEEEEvRT_RKT0_RKT1_, symObjAddr: 0x67D80, symBinAddr: 0x10006BDF8, symSize: 0x3C }
  - { offsetInCU: 0x60970, offset: 0x60970, size: 0x8, addend: 0x0, symName: __ZN5Eigen8internal15call_assignmentINS_5BlockINS2_INS_6MatrixIfLi3ELi3ELi0ELi3ELi3EEELin1ELin1ELb0EEELin1ELin1ELb0EEENS2_IKNS_13CwiseBinaryOpINS0_17scalar_product_opIffEEKNS_14CwiseNullaryOpINS0_18scalar_constant_opIfEEKNS3_IfLin1ELin1ELi0ELi3ELi3EEEEESE_EELin1ELin1ELb0EEENS0_13sub_assign_opIffEEEEvRT_RKT0_RKT1_NS0_9enable_ifIXntsr25evaluator_assume_aliasingISO_EE5valueEPvE4typeE, symObjAddr: 0x69CA0, symBinAddr: 0x10006DD18, symSize: 0x38 }
  - { offsetInCU: 0x609DE, offset: 0x609DE, size: 0x8, addend: 0x0, symName: __ZN5Eigen8internal24call_assignment_no_aliasINS_5BlockINS2_INS_6MatrixIfLi3ELi3ELi0ELi3ELi3EEELin1ELin1ELb0EEELin1ELin1ELb0EEENS2_IKNS_13CwiseBinaryOpINS0_17scalar_product_opIffEEKNS_14CwiseNullaryOpINS0_18scalar_constant_opIfEEKNS3_IfLin1ELin1ELi0ELi3ELi3EEEEESE_EELin1ELin1ELb0EEENS0_13sub_assign_opIffEEEEvRT_RKT0_RKT1_, symObjAddr: 0x69CEC, symBinAddr: 0x10006DD64, symSize: 0x3C }
  - { offsetInCU: 0x60AAC, offset: 0x60AAC, size: 0x8, addend: 0x0, symName: __ZN5Eigen8internal18check_for_aliasingINS_5BlockINS2_INS_6MatrixIfLi3ELi3ELi0ELi3ELi3EEELin1ELin1ELb0EEELin1ELin1ELb0EEENS2_IKNS_13CwiseBinaryOpINS0_17scalar_product_opIffEEKNS_14CwiseNullaryOpINS0_18scalar_constant_opIfEEKNS3_IfLin1ELin1ELi0ELi3ELi3EEEEESE_EELin1ELin1ELb0EEEEEvRKT_RKT0_, symObjAddr: 0x69D68, symBinAddr: 0x10006DDE0, symSize: 0x60 }
  - { offsetInCU: 0x60AF7, offset: 0x60AF7, size: 0x8, addend: 0x0, symName: __ZN5Eigen8internal26call_dense_assignment_loopINS_5BlockINS2_INS_6MatrixIfLi3ELi3ELi0ELi3ELi3EEELin1ELin1ELb0EEELin1ELin1ELb0EEENS2_IKNS_13CwiseBinaryOpINS0_17scalar_product_opIffEEKNS_14CwiseNullaryOpINS0_18scalar_constant_opIfEEKNS3_IfLin1ELin1ELi0ELi3ELi3EEEEESE_EELin1ELin1ELb0EEENS0_13sub_assign_opIffEEEEvRT_RKT0_RKT1_, symObjAddr: 0x69DC8, symBinAddr: 0x10006DE40, symSize: 0xD8 }
  - { offsetInCU: 0x610C4, offset: 0x610C4, size: 0x8, addend: 0x0, symName: __ZN5Eigen8internal17resize_if_allowedINS_5BlockINS2_INS_6MatrixIfLi3ELi3ELi0ELi3ELi3EEELin1ELin1ELb0EEELin1ELin1ELb0EEENS2_IKNS_13CwiseBinaryOpINS0_17scalar_product_opIffEEKNS_14CwiseNullaryOpINS0_18scalar_constant_opIfEEKNS3_IfLin1ELin1ELi0ELi3ELi3EEEEESE_EELin1ELin1ELb0EEENS0_13sub_assign_opIffEEEEvRT_RKT0_RKT1_, symObjAddr: 0x69EE8, symBinAddr: 0x10006DF60, symSize: 0xB4 }
  - { offsetInCU: 0x61375, offset: 0x61375, size: 0x8, addend: 0x0, symName: __ZN5Eigen8internal24call_assignment_no_aliasINS_14TriangularViewINS_5BlockINS_6MatrixIfLi3ELi3ELi0ELi3ELi3EEELin1ELin1ELb0EEELj1EEENS_14CwiseNullaryOpINS0_18scalar_constant_opIfEENS4_IfLin1ELin1ELi0ELi3ELi3EEEEENS0_9assign_opIffEEEEvRT_RKT0_RKT1_, symObjAddr: 0x6C988, symBinAddr: 0x100070A00, symSize: 0x3C }
  - { offsetInCU: 0x61443, offset: 0x61443, size: 0x8, addend: 0x0, symName: __ZN5Eigen8internal31call_triangular_assignment_loopILi1ELb0ENS_14TriangularViewINS_5BlockINS_6MatrixIfLi3ELi3ELi0ELi3ELi3EEELin1ELin1ELb0EEELj1EEENS_14CwiseNullaryOpINS0_18scalar_constant_opIfEENS4_IfLin1ELin1ELi0ELi3ELi3EEEEENS0_9assign_opIffEEEEvRT1_RKT2_RKT3_, symObjAddr: 0x6C9F8, symBinAddr: 0x100070A70, symSize: 0x134 }
  - { offsetInCU: 0x61B9A, offset: 0x61B9A, size: 0x8, addend: 0x0, symName: __ZN5Eigen8internalL21first_default_alignedINS_12CwiseUnaryOpINS0_13scalar_abs_opIfEEKNS_5BlockINS5_INS_6MatrixIfLi3ELi3ELi0ELi3ELi3EEELi3ELi1ELb1EEELin1ELi1ELb0EEEEEEElRKNS_9DenseBaseIT_EE, symObjAddr: 0x6DA90, symBinAddr: 0x100071B08, symSize: 0x24 }
  - { offsetInCU: 0x61BD1, offset: 0x61BD1, size: 0x8, addend: 0x0, symName: __ZN5Eigen8internalL13first_alignedILi16ENS_12CwiseUnaryOpINS0_13scalar_abs_opIfEEKNS_5BlockINS5_INS_6MatrixIfLi3ELi3ELi0ELi3ELi3EEELi3ELi1ELb1EEELin1ELi1ELb0EEEEEEElRKNS_9DenseBaseIT0_EE, symObjAddr: 0x6DB50, symBinAddr: 0x100071BC8, symSize: 0x28 }
  - { offsetInCU: 0x61C50, offset: 0x61C50, size: 0x8, addend: 0x0, symName: __ZN5Eigen8internal4pabsI19__simd128_float32_tEET_RKS3_, symObjAddr: 0x6DBC8, symBinAddr: 0x100071C40, symSize: 0x2C }
  - { offsetInCU: 0x61C87, offset: 0x61C87, size: 0x8, addend: 0x0, symName: __ZN5Eigen8internal27apply_rotation_in_the_planeINS_5BlockINS2_INS_6MatrixIfLi3ELi3ELi0ELi3ELi3EEELi3ELin1ELb1EEELi1ELin1ELb0EEES6_fEEvRNS_9DenseBaseIT_EERNS7_IT0_EERKNS_14JacobiRotationIT1_EE, symObjAddr: 0x6E2A8, symBinAddr: 0x100072320, symSize: 0x13C }
  - { offsetInCU: 0x61DD9, offset: 0x61DD9, size: 0x8, addend: 0x0, symName: __ZN5Eigen8internal27apply_rotation_in_the_planeINS_5BlockINS2_INS_6MatrixIfLi3ELi3ELi0ELi3ELi3EEELin1ELi3ELb0EEELin1ELi1ELb1EEES6_fEEvRNS_9DenseBaseIT_EERNS7_IT0_EERKNS_14JacobiRotationIT1_EE, symObjAddr: 0x6F060, symBinAddr: 0x1000730D8, symSize: 0x13C }
  - { offsetInCU: 0x61EC0, offset: 0x61EC0, size: 0x8, addend: 0x0, symName: __ZN5Eigen8internal27apply_rotation_in_the_planeINS_5BlockINS_6MatrixIfLi3ELi3ELi0ELi3ELi3EEELi3ELi1ELb1EEES5_fEEvRNS_9DenseBaseIT_EERNS6_IT0_EERKNS_14JacobiRotationIT1_EE, symObjAddr: 0x6F81C, symBinAddr: 0x100073894, symSize: 0x13C }
  - { offsetInCU: 0x62012, offset: 0x62012, size: 0x8, addend: 0x0, symName: __ZN5Eigen8internal24call_assignment_no_aliasINS_6MatrixIfLi3ELi1ELi0ELi3ELi1EEENS_14CwiseNullaryOpINS0_18scalar_constant_opIfEES3_EENS0_9assign_opIffEEEEvRT_RKT0_RKT1_, symObjAddr: 0x6FCE4, symBinAddr: 0x100073D5C, symSize: 0x3C }
  - { offsetInCU: 0x620E0, offset: 0x620E0, size: 0x8, addend: 0x0, symName: __ZN5Eigen8internal18check_for_aliasingINS_6MatrixIfLi3ELi1ELi0ELi3ELi1EEENS_14CwiseNullaryOpINS0_18scalar_constant_opIfEES3_EEEEvRKT_RKT0_, symObjAddr: 0x6FD60, symBinAddr: 0x100073DD8, symSize: 0x14 }
  - { offsetInCU: 0x6212B, offset: 0x6212B, size: 0x8, addend: 0x0, symName: __ZN5Eigen8internal26call_dense_assignment_loopINS_6MatrixIfLi3ELi1ELi0ELi3ELi1EEEEEvRT_RKNS_14CwiseNullaryOpINS0_18scalar_constant_opINS4_6ScalarEEES4_EERKNS0_9assign_opIS8_S8_EE, symObjAddr: 0x6FD74, symBinAddr: 0x100073DEC, symSize: 0x6C }
  - { offsetInCU: 0x6217C, offset: 0x6217C, size: 0x8, addend: 0x0, symName: __ZN5Eigen8internal17resize_if_allowedINS_6MatrixIfLi3ELi1ELi0ELi3ELi1EEENS_14CwiseNullaryOpINS0_18scalar_constant_opIfEES3_EEffEEvRT_RKT0_RKNS0_9assign_opIT1_T2_EE, symObjAddr: 0x6FDE0, symBinAddr: 0x100073E58, symSize: 0xF8 }
  - { offsetInCU: 0x62202, offset: 0x62202, size: 0x8, addend: 0x0, symName: __ZN5Eigen8internal15call_assignmentINS_6MatrixIfLi3ELi1ELi0ELi3ELi1EEENS_14CwiseNullaryOpINS0_18scalar_constant_opIfEES3_EEEEvRT_RKT0_, symObjAddr: 0x70044, symBinAddr: 0x1000740BC, symSize: 0x50 }
  - { offsetInCU: 0x6224D, offset: 0x6224D, size: 0x8, addend: 0x0, symName: __ZN5Eigen8internal15call_assignmentINS_6MatrixIfLi3ELi1ELi0ELi3ELi1EEENS_14CwiseNullaryOpINS0_18scalar_constant_opIfEES3_EENS0_9assign_opIffEEEEvRT_RKT0_RKT1_NS0_9enable_ifIXntsr25evaluator_assume_aliasingISC_EE5valueEPvE4typeE, symObjAddr: 0x70094, symBinAddr: 0x10007410C, symSize: 0x38 }
  - { offsetInCU: 0x622BB, offset: 0x622BB, size: 0x8, addend: 0x0, symName: __ZN5Eigen8internal15call_assignmentINS_6MatrixIfLi3ELi1ELi0ELi3ELi1EEENS_5BlockINS2_IfLi3ELi3ELi0ELi3ELi3EEELi3ELi1ELb0EEEEEvRT_RKT0_, symObjAddr: 0x71324, symBinAddr: 0x10007539C, symSize: 0x50 }
  - { offsetInCU: 0x62306, offset: 0x62306, size: 0x8, addend: 0x0, symName: __ZN5Eigen8internal15call_assignmentINS_6MatrixIfLi3ELi1ELi0ELi3ELi1EEENS_5BlockINS2_IfLi3ELi3ELi0ELi3ELi3EEELi3ELi1ELb0EEENS0_9assign_opIffEEEEvRT_RKT0_RKT1_NS0_9enable_ifIXntsr25evaluator_assume_aliasingISB_EE5valueEPvE4typeE, symObjAddr: 0x71388, symBinAddr: 0x100075400, symSize: 0x38 }
  - { offsetInCU: 0x62374, offset: 0x62374, size: 0x8, addend: 0x0, symName: __ZN5Eigen8internal24call_assignment_no_aliasINS_6MatrixIfLi3ELi1ELi0ELi3ELi1EEENS_5BlockINS2_IfLi3ELi3ELi0ELi3ELi3EEELi3ELi1ELb0EEENS0_9assign_opIffEEEEvRT_RKT0_RKT1_, symObjAddr: 0x713C0, symBinAddr: 0x100075438, symSize: 0x3C }
  - { offsetInCU: 0x62442, offset: 0x62442, size: 0x8, addend: 0x0, symName: __ZN5Eigen8internal18check_for_aliasingINS_6MatrixIfLi3ELi1ELi0ELi3ELi1EEENS_5BlockINS2_IfLi3ELi3ELi0ELi3ELi3EEELi3ELi1ELb0EEEEEvRKT_RKT0_, symObjAddr: 0x7143C, symBinAddr: 0x1000754B4, symSize: 0x14 }
  - { offsetInCU: 0x6248D, offset: 0x6248D, size: 0x8, addend: 0x0, symName: __ZN5Eigen8internal26call_dense_assignment_loopINS_6MatrixIfLi3ELi1ELi0ELi3ELi1EEENS_5BlockINS2_IfLi3ELi3ELi0ELi3ELi3EEELi3ELi1ELb0EEENS0_9assign_opIffEEEEvRT_RKT0_RKT1_, symObjAddr: 0x71450, symBinAddr: 0x1000754C8, symSize: 0xD8 }
  - { offsetInCU: 0x62541, offset: 0x62541, size: 0x8, addend: 0x0, symName: __ZN5Eigen8internal17resize_if_allowedINS_6MatrixIfLi3ELi1ELi0ELi3ELi1EEENS_5BlockINS2_IfLi3ELi3ELi0ELi3ELi3EEELi3ELi1ELb0EEEffEEvRT_RKT0_RKNS0_9assign_opIT1_T2_EE, symObjAddr: 0x7155C, symBinAddr: 0x1000755D4, symSize: 0xF8 }
  - { offsetInCU: 0x626D9, offset: 0x626D9, size: 0x8, addend: 0x0, symName: __ZN5Eigen8internal15call_assignmentINS_6MatrixIfLi2ELi1ELi0ELi2ELi1EEENS_14CwiseNullaryOpINS0_18scalar_constant_opIfEES3_EEEEvRT_RKT0_, symObjAddr: 0x73470, symBinAddr: 0x1000774E8, symSize: 0x50 }
  - { offsetInCU: 0x62724, offset: 0x62724, size: 0x8, addend: 0x0, symName: __ZN5Eigen8internal15call_assignmentINS_6MatrixIfLi2ELi1ELi0ELi2ELi1EEENS_14CwiseNullaryOpINS0_18scalar_constant_opIfEES3_EENS0_9assign_opIffEEEEvRT_RKT0_RKT1_NS0_9enable_ifIXntsr25evaluator_assume_aliasingISC_EE5valueEPvE4typeE, symObjAddr: 0x734D4, symBinAddr: 0x10007754C, symSize: 0x38 }
  - { offsetInCU: 0x62792, offset: 0x62792, size: 0x8, addend: 0x0, symName: __ZN5Eigen8internal24call_assignment_no_aliasINS_6MatrixIfLi2ELi1ELi0ELi2ELi1EEENS_14CwiseNullaryOpINS0_18scalar_constant_opIfEES3_EENS0_9assign_opIffEEEEvRT_RKT0_RKT1_, symObjAddr: 0x7350C, symBinAddr: 0x100077584, symSize: 0x3C }
  - { offsetInCU: 0x62860, offset: 0x62860, size: 0x8, addend: 0x0, symName: __ZN5Eigen8internal18check_for_aliasingINS_6MatrixIfLi2ELi1ELi0ELi2ELi1EEENS_14CwiseNullaryOpINS0_18scalar_constant_opIfEES3_EEEEvRKT_RKT0_, symObjAddr: 0x73588, symBinAddr: 0x100077600, symSize: 0x14 }
  - { offsetInCU: 0x628AB, offset: 0x628AB, size: 0x8, addend: 0x0, symName: __ZN5Eigen8internal26call_dense_assignment_loopINS_6MatrixIfLi2ELi1ELi0ELi2ELi1EEEEEvRT_RKNS_14CwiseNullaryOpINS0_18scalar_constant_opINS4_6ScalarEEES4_EERKNS0_9assign_opIS8_S8_EE, symObjAddr: 0x7359C, symBinAddr: 0x100077614, symSize: 0x6C }
  - { offsetInCU: 0x628FC, offset: 0x628FC, size: 0x8, addend: 0x0, symName: __ZN5Eigen8internal17resize_if_allowedINS_6MatrixIfLi2ELi1ELi0ELi2ELi1EEENS_14CwiseNullaryOpINS0_18scalar_constant_opIfEES3_EEffEEvRT_RKT0_RKNS0_9assign_opIT1_T2_EE, symObjAddr: 0x73608, symBinAddr: 0x100077680, symSize: 0xF8 }
  - { offsetInCU: 0x62982, offset: 0x62982, size: 0x8, addend: 0x0, symName: __ZN5Eigen8internal15call_assignmentINS_6MatrixIfLi2ELi1ELi0ELi2ELi1EEENS_13CwiseBinaryOpINS0_18scalar_quotient_opIffEEKNS_5BlockIKNS2_IfLi3ELi1ELi0ELi3ELi1EEELi2ELi1ELb0EEEKNS_14CwiseNullaryOpINS0_18scalar_constant_opIfEEKS3_EEEEEEvRT_RKT0_, symObjAddr: 0x73BBC, symBinAddr: 0x100077C34, symSize: 0x50 }
  - { offsetInCU: 0x629CD, offset: 0x629CD, size: 0x8, addend: 0x0, symName: __ZN5Eigen8internal15call_assignmentINS_6MatrixIfLi2ELi1ELi0ELi2ELi1EEENS_13CwiseBinaryOpINS0_18scalar_quotient_opIffEEKNS_5BlockIKNS2_IfLi3ELi1ELi0ELi3ELi1EEELi2ELi1ELb0EEEKNS_14CwiseNullaryOpINS0_18scalar_constant_opIfEEKS3_EEEENS0_9assign_opIffEEEEvRT_RKT0_RKT1_NS0_9enable_ifIXntsr25evaluator_assume_aliasingISN_EE5valueEPvE4typeE, symObjAddr: 0x73C20, symBinAddr: 0x100077C98, symSize: 0x38 }
  - { offsetInCU: 0x62A3B, offset: 0x62A3B, size: 0x8, addend: 0x0, symName: __ZN5Eigen8internal24call_assignment_no_aliasINS_6MatrixIfLi2ELi1ELi0ELi2ELi1EEENS_13CwiseBinaryOpINS0_18scalar_quotient_opIffEEKNS_5BlockIKNS2_IfLi3ELi1ELi0ELi3ELi1EEELi2ELi1ELb0EEEKNS_14CwiseNullaryOpINS0_18scalar_constant_opIfEEKS3_EEEENS0_9assign_opIffEEEEvRT_RKT0_RKT1_, symObjAddr: 0x73C58, symBinAddr: 0x100077CD0, symSize: 0x3C }
  - { offsetInCU: 0x62B09, offset: 0x62B09, size: 0x8, addend: 0x0, symName: __ZN5Eigen8internal18check_for_aliasingINS_6MatrixIfLi2ELi1ELi0ELi2ELi1EEENS_13CwiseBinaryOpINS0_18scalar_quotient_opIffEEKNS_5BlockIKNS2_IfLi3ELi1ELi0ELi3ELi1EEELi2ELi1ELb0EEEKNS_14CwiseNullaryOpINS0_18scalar_constant_opIfEEKS3_EEEEEEvRKT_RKT0_, symObjAddr: 0x73CD4, symBinAddr: 0x100077D4C, symSize: 0x14 }
  - { offsetInCU: 0x62B54, offset: 0x62B54, size: 0x8, addend: 0x0, symName: __ZN5Eigen8internal26call_dense_assignment_loopINS_6MatrixIfLi2ELi1ELi0ELi2ELi1EEENS_13CwiseBinaryOpINS0_18scalar_quotient_opIffEEKNS_5BlockIKNS2_IfLi3ELi1ELi0ELi3ELi1EEELi2ELi1ELb0EEEKNS_14CwiseNullaryOpINS0_18scalar_constant_opIfEEKS3_EEEENS0_9assign_opIffEEEEvRT_RKT0_RKT1_, symObjAddr: 0x73CE8, symBinAddr: 0x100077D60, symSize: 0xE0 }
  - { offsetInCU: 0x62C08, offset: 0x62C08, size: 0x8, addend: 0x0, symName: __ZN5Eigen8internal17resize_if_allowedINS_6MatrixIfLi2ELi1ELi0ELi2ELi1EEENS_13CwiseBinaryOpINS0_18scalar_quotient_opIffEEKNS_5BlockIKNS2_IfLi3ELi1ELi0ELi3ELi1EEELi2ELi1ELb0EEEKNS_14CwiseNullaryOpINS0_18scalar_constant_opIfEEKS3_EEEEffEEvRT_RKT0_RKNS0_9assign_opIT1_T2_EE, symObjAddr: 0x73DFC, symBinAddr: 0x100077E74, symSize: 0xF8 }
  - { offsetInCU: 0x62D02, offset: 0x62D02, size: 0x8, addend: 0x0, symName: __ZN5Eigen8internal17get_runtime_valueIiEElRKT_, symObjAddr: 0x74868, symBinAddr: 0x1000788E0, symSize: 0x18 }
  - { offsetInCU: 0x62D37, offset: 0x62D37, size: 0x8, addend: 0x0, symName: __ZN5Eigen8internal24call_assignment_no_aliasINS_3MapINS_6MatrixIfLi1ELin1ELi1ELi1ELi3EEELi0ENS_6StrideILi0ELi0EEEEENS_7ProductINS_9TransposeIKNS3_IfLi2ELi1ELi0ELi2ELi1EEEEENS_5BlockINSD_INS3_IfLi3ELi3ELi0ELi3ELi3EEELin1ELin1ELb0EEELi2ELin1ELb0EEELi0EEENS0_9assign_opIffEEEEvRT_RKT0_RKT1_, symObjAddr: 0x75310, symBinAddr: 0x100079388, symSize: 0x3C }
  - { offsetInCU: 0x62E6C, offset: 0x62E6C, size: 0x8, addend: 0x0, symName: __ZN5Eigen8internal24call_assignment_no_aliasINS_3MapINS_6MatrixIfLi1ELin1ELi1ELi1ELi3EEELi0ENS_6StrideILi0ELi0EEEEENS_7ProductINS_9TransposeIKNS3_IfLi2ELi1ELi0ELi2ELi1EEEEENS_5BlockINSD_INS3_IfLi3ELi3ELi0ELi3ELi3EEELin1ELin1ELb0EEELi2ELin1ELb0EEELi1EEENS0_9assign_opIffEEEEvRT_RKT0_RKT1_, symObjAddr: 0x7553C, symBinAddr: 0x1000795B4, symSize: 0x3C }
  - { offsetInCU: 0x63146, offset: 0x63146, size: 0x8, addend: 0x0, symName: __ZN5Eigen8internal18check_for_aliasingINS_3MapINS_6MatrixIfLi1ELin1ELi1ELi1ELi3EEELi0ENS_6StrideILi0ELi0EEEEENS_7ProductINS_9TransposeIKNS3_IfLi2ELi1ELi0ELi2ELi1EEEEENS_5BlockINSD_INS3_IfLi3ELi3ELi0ELi3ELi3EEELin1ELin1ELb0EEELi2ELin1ELb0EEELi1EEEEEvRKT_RKT0_, symObjAddr: 0x75600, symBinAddr: 0x100079678, symSize: 0x14 }
  - { offsetInCU: 0x63191, offset: 0x63191, size: 0x8, addend: 0x0, symName: __ZN5Eigen8internal26call_dense_assignment_loopINS_3MapINS_6MatrixIfLi1ELin1ELi1ELi1ELi3EEELi0ENS_6StrideILi0ELi0EEEEENS_7ProductINS_9TransposeIKNS3_IfLi2ELi1ELi0ELi2ELi1EEEEENS_5BlockINSD_INS3_IfLi3ELi3ELi0ELi3ELi3EEELin1ELin1ELb0EEELi2ELin1ELb0EEELi1EEENS0_9assign_opIffEEEEvRT_RKT0_RKT1_, symObjAddr: 0x75614, symBinAddr: 0x10007968C, symSize: 0xE0 }
  - { offsetInCU: 0x63674, offset: 0x63674, size: 0x8, addend: 0x0, symName: __ZN5Eigen8internal17resize_if_allowedINS_3MapINS_6MatrixIfLi1ELin1ELi1ELi1ELi3EEELi0ENS_6StrideILi0ELi0EEEEENS_7ProductINS_9TransposeIKNS3_IfLi2ELi1ELi0ELi2ELi1EEEEENS_5BlockINSD_INS3_IfLi3ELi3ELi0ELi3ELi3EEELin1ELin1ELb0EEELi2ELin1ELb0EEELi1EEEffEEvRT_RKT0_RKNS0_9assign_opIT1_T2_EE, symObjAddr: 0x75728, symBinAddr: 0x1000797A0, symSize: 0xF8 }
  - { offsetInCU: 0x639B2, offset: 0x639B2, size: 0x8, addend: 0x0, symName: __ZN5Eigen8internal24call_assignment_no_aliasINS_5BlockINS2_INS_6MatrixIfLi3ELi3ELi0ELi3ELi3EEELin1ELin1ELb0EEELi2ELin1ELb0EEENS_7ProductINS_13CwiseBinaryOpINS0_17scalar_product_opIffEEKNS_14CwiseNullaryOpINS0_18scalar_constant_opIfEEKNS3_IfLi2ELi1ELi0ELi2ELi1EEEEESF_EENS_3MapINS3_IfLi1ELin1ELi1ELi1ELi3EEELi0ENS_6StrideILi0ELi0EEEEELi0EEENS0_13sub_assign_opIffEEEEvRT_RKT0_RKT1_, symObjAddr: 0x78724, symBinAddr: 0x10007C79C, symSize: 0x3C }
  - { offsetInCU: 0x63AE7, offset: 0x63AE7, size: 0x8, addend: 0x0, symName: __ZN5Eigen8internal24call_assignment_no_aliasINS_5BlockINS2_INS_6MatrixIfLi3ELi3ELi0ELi3ELi3EEELin1ELin1ELb0EEELi2ELin1ELb0EEENS_7ProductINS_13CwiseBinaryOpINS0_17scalar_product_opIffEEKNS_14CwiseNullaryOpINS0_18scalar_constant_opIfEEKNS3_IfLi2ELi1ELi0ELi2ELi1EEEEESF_EENS_3MapINS3_IfLi1ELin1ELi1ELi1ELi3EEELi0ENS_6StrideILi0ELi0EEEEELi1EEENS0_13sub_assign_opIffEEEEvRT_RKT0_RKT1_, symObjAddr: 0x78950, symBinAddr: 0x10007C9C8, symSize: 0x3C }
  - { offsetInCU: 0x63DB9, offset: 0x63DB9, size: 0x8, addend: 0x0, symName: __ZN5Eigen8internal18check_for_aliasingINS_5BlockINS2_INS_6MatrixIfLi3ELi3ELi0ELi3ELi3EEELin1ELin1ELb0EEELi2ELin1ELb0EEENS_7ProductINS_13CwiseBinaryOpINS0_17scalar_product_opIffEEKNS_14CwiseNullaryOpINS0_18scalar_constant_opIfEEKNS3_IfLi2ELi1ELi0ELi2ELi1EEEEESF_EENS_3MapINS3_IfLi1ELin1ELi1ELi1ELi3EEELi0ENS_6StrideILi0ELi0EEEEELi1EEEEEvRKT_RKT0_, symObjAddr: 0x78A18, symBinAddr: 0x10007CA90, symSize: 0x60 }
  - { offsetInCU: 0x63E04, offset: 0x63E04, size: 0x8, addend: 0x0, symName: __ZN5Eigen8internal26call_dense_assignment_loopINS_5BlockINS2_INS_6MatrixIfLi3ELi3ELi0ELi3ELi3EEELin1ELin1ELb0EEELi2ELin1ELb0EEENS_7ProductINS_13CwiseBinaryOpINS0_17scalar_product_opIffEEKNS_14CwiseNullaryOpINS0_18scalar_constant_opIfEEKNS3_IfLi2ELi1ELi0ELi2ELi1EEEEESF_EENS_3MapINS3_IfLi1ELin1ELi1ELi1ELi3EEELi0ENS_6StrideILi0ELi0EEEEELi1EEENS0_13sub_assign_opIffEEEEvRT_RKT0_RKT1_, symObjAddr: 0x78A78, symBinAddr: 0x10007CAF0, symSize: 0xE0 }
  - { offsetInCU: 0x640DD, offset: 0x640DD, size: 0x8, addend: 0x0, symName: __ZN5Eigen8internal17resize_if_allowedINS_5BlockINS2_INS_6MatrixIfLi3ELi3ELi0ELi3ELi3EEELin1ELin1ELb0EEELi2ELin1ELb0EEENS_7ProductINS_13CwiseBinaryOpINS0_17scalar_product_opIffEEKNS_14CwiseNullaryOpINS0_18scalar_constant_opIfEEKNS3_IfLi2ELi1ELi0ELi2ELi1EEEEESF_EENS_3MapINS3_IfLi1ELin1ELi1ELi1ELi3EEELi0ENS_6StrideILi0ELi0EEEEELi1EEENS0_13sub_assign_opIffEEEEvRT_RKT0_RKT1_, symObjAddr: 0x78BA0, symBinAddr: 0x10007CC18, symSize: 0xB4 }
  - { offsetInCU: 0x64402, offset: 0x64402, size: 0x8, addend: 0x0, symName: __ZN5Eigen8internal24call_assignment_no_aliasINS_6MatrixIfLi2ELi1ELi0ELi2ELi1EEENS_13CwiseBinaryOpINS0_17scalar_product_opIffEEKNS_14CwiseNullaryOpINS0_18scalar_constant_opIfEEKS3_EESA_EENS0_9assign_opIffEEEEvRT_RKT0_RKT1_, symObjAddr: 0x79000, symBinAddr: 0x10007D078, symSize: 0x3C }
  - { offsetInCU: 0x644D0, offset: 0x644D0, size: 0x8, addend: 0x0, symName: __ZN5Eigen8internal18check_for_aliasingINS_6MatrixIfLi2ELi1ELi0ELi2ELi1EEENS_13CwiseBinaryOpINS0_17scalar_product_opIffEEKNS_14CwiseNullaryOpINS0_18scalar_constant_opIfEEKS3_EESA_EEEEvRKT_RKT0_, symObjAddr: 0x7907C, symBinAddr: 0x10007D0F4, symSize: 0x14 }
  - { offsetInCU: 0x6451B, offset: 0x6451B, size: 0x8, addend: 0x0, symName: __ZN5Eigen8internal26call_dense_assignment_loopINS_6MatrixIfLi2ELi1ELi0ELi2ELi1EEENS_13CwiseBinaryOpINS0_17scalar_product_opIffEEKNS_14CwiseNullaryOpINS0_18scalar_constant_opIfEEKS3_EESA_EENS0_9assign_opIffEEEEvRT_RKT0_RKT1_, symObjAddr: 0x79090, symBinAddr: 0x10007D108, symSize: 0xD8 }
  - { offsetInCU: 0x645CF, offset: 0x645CF, size: 0x8, addend: 0x0, symName: __ZN5Eigen8internal17resize_if_allowedINS_6MatrixIfLi2ELi1ELi0ELi2ELi1EEENS_13CwiseBinaryOpINS0_17scalar_product_opIffEEKNS_14CwiseNullaryOpINS0_18scalar_constant_opIfEEKS3_EESA_EEffEEvRT_RKT0_RKNS0_9assign_opIT1_T2_EE, symObjAddr: 0x7919C, symBinAddr: 0x10007D214, symSize: 0xF8 }
  - { offsetInCU: 0x6481B, offset: 0x6481B, size: 0x8, addend: 0x0, symName: __ZN5Eigen8internal24call_assignment_no_aliasINS_3MapINS_6MatrixIfLin1ELi1ELi0ELi3ELi1EEELi0ENS_6StrideILi0ELi0EEEEENS_7ProductINS_5BlockINS9_INS3_IfLi3ELi3ELi0ELi3ELi3EEELin1ELin1ELb0EEELin1ELi2ELb0EEENS3_IfLi2ELi1ELi0ELi2ELi1EEELi0EEENS0_9assign_opIffEEEEvRT_RKT0_RKT1_, symObjAddr: 0x7A758, symBinAddr: 0x10007E7D0, symSize: 0x3C }
  - { offsetInCU: 0x64950, offset: 0x64950, size: 0x8, addend: 0x0, symName: __ZN5Eigen8internal24call_assignment_no_aliasINS_3MapINS_6MatrixIfLin1ELi1ELi0ELi3ELi1EEELi0ENS_6StrideILi0ELi0EEEEENS_7ProductINS_5BlockINS9_INS3_IfLi3ELi3ELi0ELi3ELi3EEELin1ELin1ELb0EEELin1ELi2ELb0EEENS3_IfLi2ELi1ELi0ELi2ELi1EEELi1EEENS0_9assign_opIffEEEEvRT_RKT0_RKT1_, symObjAddr: 0x7A95C, symBinAddr: 0x10007E9D4, symSize: 0x3C }
  - { offsetInCU: 0x64A1E, offset: 0x64A1E, size: 0x8, addend: 0x0, symName: __ZN5Eigen8internal18check_for_aliasingINS_3MapINS_6MatrixIfLin1ELi1ELi0ELi3ELi1EEELi0ENS_6StrideILi0ELi0EEEEENS_7ProductINS_5BlockINS9_INS3_IfLi3ELi3ELi0ELi3ELi3EEELin1ELin1ELb0EEELin1ELi2ELb0EEENS3_IfLi2ELi1ELi0ELi2ELi1EEELi1EEEEEvRKT_RKT0_, symObjAddr: 0x7AA20, symBinAddr: 0x10007EA98, symSize: 0x14 }
  - { offsetInCU: 0x64A69, offset: 0x64A69, size: 0x8, addend: 0x0, symName: __ZN5Eigen8internal26call_dense_assignment_loopINS_3MapINS_6MatrixIfLin1ELi1ELi0ELi3ELi1EEELi0ENS_6StrideILi0ELi0EEEEENS_7ProductINS_5BlockINS9_INS3_IfLi3ELi3ELi0ELi3ELi3EEELin1ELin1ELb0EEELin1ELi2ELb0EEENS3_IfLi2ELi1ELi0ELi2ELi1EEELi1EEENS0_9assign_opIffEEEEvRT_RKT0_RKT1_, symObjAddr: 0x7AA34, symBinAddr: 0x10007EAAC, symSize: 0xE0 }
  - { offsetInCU: 0x64B1E, offset: 0x64B1E, size: 0x8, addend: 0x0, symName: __ZN5Eigen8internal17resize_if_allowedINS_3MapINS_6MatrixIfLin1ELi1ELi0ELi3ELi1EEELi0ENS_6StrideILi0ELi0EEEEENS_7ProductINS_5BlockINS9_INS3_IfLi3ELi3ELi0ELi3ELi3EEELin1ELin1ELb0EEELin1ELi2ELb0EEENS3_IfLi2ELi1ELi0ELi2ELi1EEELi1EEEffEEvRT_RKT0_RKNS0_9assign_opIT1_T2_EE, symObjAddr: 0x7AB48, symBinAddr: 0x10007EBC0, symSize: 0xF8 }
  - { offsetInCU: 0x64D40, offset: 0x64D40, size: 0x8, addend: 0x0, symName: __ZN5Eigen8internal24call_assignment_no_aliasINS_5BlockINS2_INS_6MatrixIfLi3ELi3ELi0ELi3ELi3EEELin1ELin1ELb0EEELin1ELi2ELb0EEENS_7ProductINS_13CwiseBinaryOpINS0_17scalar_product_opIffEEKNS_14CwiseNullaryOpINS0_18scalar_constant_opIfEEKNS3_IfLin1ELi1ELi0ELi3ELi1EEEEEKNS_3MapISE_Li0ENS_6StrideILi0ELi0EEEEEEENS_9TransposeIKNS3_IfLi2ELi1ELi0ELi2ELi1EEEEELi0EEENS0_13sub_assign_opIffEEEEvRT_RKT0_RKT1_, symObjAddr: 0x7D9A4, symBinAddr: 0x100081A1C, symSize: 0x3C }
  - { offsetInCU: 0x64E75, offset: 0x64E75, size: 0x8, addend: 0x0, symName: __ZN5Eigen8internal24call_assignment_no_aliasINS_5BlockINS2_INS_6MatrixIfLi3ELi3ELi0ELi3ELi3EEELin1ELin1ELb0EEELin1ELi2ELb0EEENS_7ProductINS_13CwiseBinaryOpINS0_17scalar_product_opIffEEKNS_14CwiseNullaryOpINS0_18scalar_constant_opIfEEKNS3_IfLin1ELi1ELi0ELi3ELi1EEEEEKNS_3MapISE_Li0ENS_6StrideILi0ELi0EEEEEEENS_9TransposeIKNS3_IfLi2ELi1ELi0ELi2ELi1EEEEELi1EEENS0_13sub_assign_opIffEEEEvRT_RKT0_RKT1_, symObjAddr: 0x7DBDC, symBinAddr: 0x100081C54, symSize: 0x3C }
  - { offsetInCU: 0x65147, offset: 0x65147, size: 0x8, addend: 0x0, symName: __ZN5Eigen8internal18check_for_aliasingINS_5BlockINS2_INS_6MatrixIfLi3ELi3ELi0ELi3ELi3EEELin1ELin1ELb0EEELin1ELi2ELb0EEENS_7ProductINS_13CwiseBinaryOpINS0_17scalar_product_opIffEEKNS_14CwiseNullaryOpINS0_18scalar_constant_opIfEEKNS3_IfLin1ELi1ELi0ELi3ELi1EEEEEKNS_3MapISE_Li0ENS_6StrideILi0ELi0EEEEEEENS_9TransposeIKNS3_IfLi2ELi1ELi0ELi2ELi1EEEEELi1EEEEEvRKT_RKT0_, symObjAddr: 0x7DCA4, symBinAddr: 0x100081D1C, symSize: 0x60 }
  - { offsetInCU: 0x65192, offset: 0x65192, size: 0x8, addend: 0x0, symName: __ZN5Eigen8internal26call_dense_assignment_loopINS_5BlockINS2_INS_6MatrixIfLi3ELi3ELi0ELi3ELi3EEELin1ELin1ELb0EEELin1ELi2ELb0EEENS_7ProductINS_13CwiseBinaryOpINS0_17scalar_product_opIffEEKNS_14CwiseNullaryOpINS0_18scalar_constant_opIfEEKNS3_IfLin1ELi1ELi0ELi3ELi1EEEEEKNS_3MapISE_Li0ENS_6StrideILi0ELi0EEEEEEENS_9TransposeIKNS3_IfLi2ELi1ELi0ELi2ELi1EEEEELi1EEENS0_13sub_assign_opIffEEEEvRT_RKT0_RKT1_, symObjAddr: 0x7DD04, symBinAddr: 0x100081D7C, symSize: 0x11C }
  - { offsetInCU: 0x6543B, offset: 0x6543B, size: 0x8, addend: 0x0, symName: __ZN5Eigen8internal17resize_if_allowedINS_5BlockINS2_INS_6MatrixIfLi3ELi3ELi0ELi3ELi3EEELin1ELin1ELb0EEELin1ELi2ELb0EEENS_7ProductINS_13CwiseBinaryOpINS0_17scalar_product_opIffEEKNS_14CwiseNullaryOpINS0_18scalar_constant_opIfEEKNS3_IfLin1ELi1ELi0ELi3ELi1EEEEEKNS_3MapISE_Li0ENS_6StrideILi0ELi0EEEEEEENS_9TransposeIKNS3_IfLi2ELi1ELi0ELi2ELi1EEEEELi1EEENS0_13sub_assign_opIffEEEEvRT_RKT0_RKT1_, symObjAddr: 0x7DE68, symBinAddr: 0x100081EE0, symSize: 0xB4 }
  - { offsetInCU: 0x65752, offset: 0x65752, size: 0x8, addend: 0x0, symName: __ZN5Eigen8internal24call_assignment_no_aliasINS_6MatrixIfLi2ELi1ELi0ELi2ELi1EEENS_5BlockINS2_IfLi3ELi3ELi0ELi3ELi3EEELi2ELi1ELb0EEENS0_9assign_opIffEEEEvRT_RKT0_RKT1_, symObjAddr: 0x80C94, symBinAddr: 0x100084D0C, symSize: 0x3C }
  - { offsetInCU: 0x65820, offset: 0x65820, size: 0x8, addend: 0x0, symName: __ZN5Eigen8internal18check_for_aliasingINS_6MatrixIfLi2ELi1ELi0ELi2ELi1EEENS_5BlockINS2_IfLi3ELi3ELi0ELi3ELi3EEELi2ELi1ELb0EEEEEvRKT_RKT0_, symObjAddr: 0x80D10, symBinAddr: 0x100084D88, symSize: 0x14 }
  - { offsetInCU: 0x6586B, offset: 0x6586B, size: 0x8, addend: 0x0, symName: __ZN5Eigen8internal26call_dense_assignment_loopINS_6MatrixIfLi2ELi1ELi0ELi2ELi1EEENS_5BlockINS2_IfLi3ELi3ELi0ELi3ELi3EEELi2ELi1ELb0EEENS0_9assign_opIffEEEEvRT_RKT0_RKT1_, symObjAddr: 0x80D24, symBinAddr: 0x100084D9C, symSize: 0xD8 }
  - { offsetInCU: 0x6591F, offset: 0x6591F, size: 0x8, addend: 0x0, symName: __ZN5Eigen8internal17resize_if_allowedINS_6MatrixIfLi2ELi1ELi0ELi2ELi1EEENS_5BlockINS2_IfLi3ELi3ELi0ELi3ELi3EEELi2ELi1ELb0EEEffEEvRT_RKT0_RKNS0_9assign_opIT1_T2_EE, symObjAddr: 0x80E30, symBinAddr: 0x100084EA8, symSize: 0xF8 }
  - { offsetInCU: 0x65A19, offset: 0x65A19, size: 0x8, addend: 0x0, symName: __ZN5Eigen8internal28check_static_allocation_sizeIfLi1EEEvv, symObjAddr: 0x81648, symBinAddr: 0x1000856C0, symSize: 0x4 }
  - { offsetInCU: 0x65AAC, offset: 0x65AAC, size: 0x8, addend: 0x0, symName: __ZN5Eigen8internal15call_assignmentINS_6MatrixIfLi1ELi1ELi0ELi1ELi1EEENS_14CwiseNullaryOpINS0_18scalar_constant_opIfEES3_EEEEvRT_RKT0_, symObjAddr: 0x82D90, symBinAddr: 0x100086E08, symSize: 0x50 }
  - { offsetInCU: 0x65AF7, offset: 0x65AF7, size: 0x8, addend: 0x0, symName: __ZN5Eigen8internal15call_assignmentINS_6MatrixIfLi1ELi1ELi0ELi1ELi1EEENS_14CwiseNullaryOpINS0_18scalar_constant_opIfEES3_EENS0_9assign_opIffEEEEvRT_RKT0_RKT1_NS0_9enable_ifIXntsr25evaluator_assume_aliasingISC_EE5valueEPvE4typeE, symObjAddr: 0x82DF4, symBinAddr: 0x100086E6C, symSize: 0x38 }
  - { offsetInCU: 0x65B65, offset: 0x65B65, size: 0x8, addend: 0x0, symName: __ZN5Eigen8internal24call_assignment_no_aliasINS_6MatrixIfLi1ELi1ELi0ELi1ELi1EEENS_14CwiseNullaryOpINS0_18scalar_constant_opIfEES3_EENS0_9assign_opIffEEEEvRT_RKT0_RKT1_, symObjAddr: 0x82E2C, symBinAddr: 0x100086EA4, symSize: 0x3C }
  - { offsetInCU: 0x65C33, offset: 0x65C33, size: 0x8, addend: 0x0, symName: __ZN5Eigen8internal18check_for_aliasingINS_6MatrixIfLi1ELi1ELi0ELi1ELi1EEENS_14CwiseNullaryOpINS0_18scalar_constant_opIfEES3_EEEEvRKT_RKT0_, symObjAddr: 0x82EA8, symBinAddr: 0x100086F20, symSize: 0x14 }
  - { offsetInCU: 0x65C7E, offset: 0x65C7E, size: 0x8, addend: 0x0, symName: __ZN5Eigen8internal26call_dense_assignment_loopINS_6MatrixIfLi1ELi1ELi0ELi1ELi1EEEEEvRT_RKNS_14CwiseNullaryOpINS0_18scalar_constant_opINS4_6ScalarEEES4_EERKNS0_9assign_opIS8_S8_EE, symObjAddr: 0x82EBC, symBinAddr: 0x100086F34, symSize: 0x6C }
  - { offsetInCU: 0x65CCF, offset: 0x65CCF, size: 0x8, addend: 0x0, symName: __ZN5Eigen8internal17resize_if_allowedINS_6MatrixIfLi1ELi1ELi0ELi1ELi1EEENS_14CwiseNullaryOpINS0_18scalar_constant_opIfEES3_EEffEEvRT_RKT0_RKNS0_9assign_opIT1_T2_EE, symObjAddr: 0x82F28, symBinAddr: 0x100086FA0, symSize: 0xF8 }
  - { offsetInCU: 0x65D55, offset: 0x65D55, size: 0x8, addend: 0x0, symName: __ZN5Eigen8internal15call_assignmentINS_6MatrixIfLi1ELi1ELi0ELi1ELi1EEENS_13CwiseBinaryOpINS0_18scalar_quotient_opIffEEKNS_5BlockIKNS2_IfLi2ELi1ELi0ELi2ELi1EEELi1ELi1ELb0EEEKNS_14CwiseNullaryOpINS0_18scalar_constant_opIfEEKS3_EEEEEEvRT_RKT0_, symObjAddr: 0x83654, symBinAddr: 0x1000876CC, symSize: 0x50 }
  - { offsetInCU: 0x65DA0, offset: 0x65DA0, size: 0x8, addend: 0x0, symName: __ZN5Eigen8internal15call_assignmentINS_6MatrixIfLi1ELi1ELi0ELi1ELi1EEENS_13CwiseBinaryOpINS0_18scalar_quotient_opIffEEKNS_5BlockIKNS2_IfLi2ELi1ELi0ELi2ELi1EEELi1ELi1ELb0EEEKNS_14CwiseNullaryOpINS0_18scalar_constant_opIfEEKS3_EEEENS0_9assign_opIffEEEEvRT_RKT0_RKT1_NS0_9enable_ifIXntsr25evaluator_assume_aliasingISN_EE5valueEPvE4typeE, symObjAddr: 0x836B8, symBinAddr: 0x100087730, symSize: 0x38 }
  - { offsetInCU: 0x65E0E, offset: 0x65E0E, size: 0x8, addend: 0x0, symName: __ZN5Eigen8internal24call_assignment_no_aliasINS_6MatrixIfLi1ELi1ELi0ELi1ELi1EEENS_13CwiseBinaryOpINS0_18scalar_quotient_opIffEEKNS_5BlockIKNS2_IfLi2ELi1ELi0ELi2ELi1EEELi1ELi1ELb0EEEKNS_14CwiseNullaryOpINS0_18scalar_constant_opIfEEKS3_EEEENS0_9assign_opIffEEEEvRT_RKT0_RKT1_, symObjAddr: 0x836F0, symBinAddr: 0x100087768, symSize: 0x3C }
  - { offsetInCU: 0x65EDC, offset: 0x65EDC, size: 0x8, addend: 0x0, symName: __ZN5Eigen8internal18check_for_aliasingINS_6MatrixIfLi1ELi1ELi0ELi1ELi1EEENS_13CwiseBinaryOpINS0_18scalar_quotient_opIffEEKNS_5BlockIKNS2_IfLi2ELi1ELi0ELi2ELi1EEELi1ELi1ELb0EEEKNS_14CwiseNullaryOpINS0_18scalar_constant_opIfEEKS3_EEEEEEvRKT_RKT0_, symObjAddr: 0x8376C, symBinAddr: 0x1000877E4, symSize: 0x14 }
  - { offsetInCU: 0x65F27, offset: 0x65F27, size: 0x8, addend: 0x0, symName: __ZN5Eigen8internal26call_dense_assignment_loopINS_6MatrixIfLi1ELi1ELi0ELi1ELi1EEENS_13CwiseBinaryOpINS0_18scalar_quotient_opIffEEKNS_5BlockIKNS2_IfLi2ELi1ELi0ELi2ELi1EEELi1ELi1ELb0EEEKNS_14CwiseNullaryOpINS0_18scalar_constant_opIfEEKS3_EEEENS0_9assign_opIffEEEEvRT_RKT0_RKT1_, symObjAddr: 0x83780, symBinAddr: 0x1000877F8, symSize: 0xE0 }
  - { offsetInCU: 0x65FDB, offset: 0x65FDB, size: 0x8, addend: 0x0, symName: __ZN5Eigen8internal17resize_if_allowedINS_6MatrixIfLi1ELi1ELi0ELi1ELi1EEENS_13CwiseBinaryOpINS0_18scalar_quotient_opIffEEKNS_5BlockIKNS2_IfLi2ELi1ELi0ELi2ELi1EEELi1ELi1ELb0EEEKNS_14CwiseNullaryOpINS0_18scalar_constant_opIfEEKS3_EEEEffEEvRT_RKT0_RKNS0_9assign_opIT1_T2_EE, symObjAddr: 0x83894, symBinAddr: 0x10008790C, symSize: 0xF8 }
  - { offsetInCU: 0x6610D, offset: 0x6610D, size: 0x8, addend: 0x0, symName: __ZN5Eigen8internal24call_assignment_no_aliasINS_3MapINS_6MatrixIfLi1ELin1ELi1ELi1ELi3EEELi0ENS_6StrideILi0ELi0EEEEENS_7ProductINS_9TransposeIKNS3_IfLi1ELi1ELi0ELi1ELi1EEEEENS_5BlockINSD_INS3_IfLi3ELi3ELi0ELi3ELi3EEELin1ELin1ELb0EEELi1ELin1ELb0EEELi0EEENS0_9assign_opIffEEEEvRT_RKT0_RKT1_, symObjAddr: 0x84BB8, symBinAddr: 0x100088C30, symSize: 0x3C }
  - { offsetInCU: 0x66242, offset: 0x66242, size: 0x8, addend: 0x0, symName: __ZN5Eigen8internal24call_assignment_no_aliasINS_3MapINS_6MatrixIfLi1ELin1ELi1ELi1ELi3EEELi0ENS_6StrideILi0ELi0EEEEENS_7ProductINS_9TransposeIKNS3_IfLi1ELi1ELi0ELi1ELi1EEEEENS_5BlockINSD_INS3_IfLi3ELi3ELi0ELi3ELi3EEELin1ELin1ELb0EEELi1ELin1ELb0EEELi1EEENS0_9assign_opIffEEEEvRT_RKT0_RKT1_, symObjAddr: 0x84DBC, symBinAddr: 0x100088E34, symSize: 0x3C }
  - { offsetInCU: 0x6651C, offset: 0x6651C, size: 0x8, addend: 0x0, symName: __ZN5Eigen8internal18check_for_aliasingINS_3MapINS_6MatrixIfLi1ELin1ELi1ELi1ELi3EEELi0ENS_6StrideILi0ELi0EEEEENS_7ProductINS_9TransposeIKNS3_IfLi1ELi1ELi0ELi1ELi1EEEEENS_5BlockINSD_INS3_IfLi3ELi3ELi0ELi3ELi3EEELin1ELin1ELb0EEELi1ELin1ELb0EEELi1EEEEEvRKT_RKT0_, symObjAddr: 0x84E80, symBinAddr: 0x100088EF8, symSize: 0x14 }
  - { offsetInCU: 0x66567, offset: 0x66567, size: 0x8, addend: 0x0, symName: __ZN5Eigen8internal26call_dense_assignment_loopINS_3MapINS_6MatrixIfLi1ELin1ELi1ELi1ELi3EEELi0ENS_6StrideILi0ELi0EEEEENS_7ProductINS_9TransposeIKNS3_IfLi1ELi1ELi0ELi1ELi1EEEEENS_5BlockINSD_INS3_IfLi3ELi3ELi0ELi3ELi3EEELin1ELin1ELb0EEELi1ELin1ELb0EEELi1EEENS0_9assign_opIffEEEEvRT_RKT0_RKT1_, symObjAddr: 0x84E94, symBinAddr: 0x100088F0C, symSize: 0xE0 }
  - { offsetInCU: 0x667ED, offset: 0x667ED, size: 0x8, addend: 0x0, symName: __ZN5Eigen8internal17resize_if_allowedINS_3MapINS_6MatrixIfLi1ELin1ELi1ELi1ELi3EEELi0ENS_6StrideILi0ELi0EEEEENS_7ProductINS_9TransposeIKNS3_IfLi1ELi1ELi0ELi1ELi1EEEEENS_5BlockINSD_INS3_IfLi3ELi3ELi0ELi3ELi3EEELin1ELin1ELb0EEELi1ELin1ELb0EEELi1EEEffEEvRT_RKT0_RKNS0_9assign_opIT1_T2_EE, symObjAddr: 0x84FA8, symBinAddr: 0x100089020, symSize: 0xF8 }
  - { offsetInCU: 0x66B2E, offset: 0x66B2E, size: 0x8, addend: 0x0, symName: __ZN5Eigen8internal24call_assignment_no_aliasINS_5BlockINS2_INS_6MatrixIfLi3ELi3ELi0ELi3ELi3EEELin1ELin1ELb0EEELi1ELin1ELb0EEENS_7ProductINS_13CwiseBinaryOpINS0_17scalar_product_opIffEEKNS_14CwiseNullaryOpINS0_18scalar_constant_opIfEEKNS3_IfLi1ELi1ELi0ELi1ELi1EEEEESF_EENS_3MapINS3_IfLi1ELin1ELi1ELi1ELi3EEELi0ENS_6StrideILi0ELi0EEEEELi0EEENS0_13sub_assign_opIffEEEEvRT_RKT0_RKT1_, symObjAddr: 0x87BF0, symBinAddr: 0x10008BC68, symSize: 0x3C }
  - { offsetInCU: 0x66C63, offset: 0x66C63, size: 0x8, addend: 0x0, symName: __ZN5Eigen8internal24call_assignment_no_aliasINS_5BlockINS2_INS_6MatrixIfLi3ELi3ELi0ELi3ELi3EEELin1ELin1ELb0EEELi1ELin1ELb0EEENS_7ProductINS_13CwiseBinaryOpINS0_17scalar_product_opIffEEKNS_14CwiseNullaryOpINS0_18scalar_constant_opIfEEKNS3_IfLi1ELi1ELi0ELi1ELi1EEEEESF_EENS_3MapINS3_IfLi1ELin1ELi1ELi1ELi3EEELi0ENS_6StrideILi0ELi0EEEEELi1EEENS0_13sub_assign_opIffEEEEvRT_RKT0_RKT1_, symObjAddr: 0x87E1C, symBinAddr: 0x10008BE94, symSize: 0x3C }
  - { offsetInCU: 0x66F3D, offset: 0x66F3D, size: 0x8, addend: 0x0, symName: __ZN5Eigen8internal18check_for_aliasingINS_5BlockINS2_INS_6MatrixIfLi3ELi3ELi0ELi3ELi3EEELin1ELin1ELb0EEELi1ELin1ELb0EEENS_7ProductINS_13CwiseBinaryOpINS0_17scalar_product_opIffEEKNS_14CwiseNullaryOpINS0_18scalar_constant_opIfEEKNS3_IfLi1ELi1ELi0ELi1ELi1EEEEESF_EENS_3MapINS3_IfLi1ELin1ELi1ELi1ELi3EEELi0ENS_6StrideILi0ELi0EEEEELi1EEEEEvRKT_RKT0_, symObjAddr: 0x87EE4, symBinAddr: 0x10008BF5C, symSize: 0x14 }
  - { offsetInCU: 0x66F88, offset: 0x66F88, size: 0x8, addend: 0x0, symName: __ZN5Eigen8internal26call_dense_assignment_loopINS_5BlockINS2_INS_6MatrixIfLi3ELi3ELi0ELi3ELi3EEELin1ELin1ELb0EEELi1ELin1ELb0EEENS_7ProductINS_13CwiseBinaryOpINS0_17scalar_product_opIffEEKNS_14CwiseNullaryOpINS0_18scalar_constant_opIfEEKNS3_IfLi1ELi1ELi0ELi1ELi1EEEEESF_EENS_3MapINS3_IfLi1ELin1ELi1ELi1ELi3EEELi0ENS_6StrideILi0ELi0EEEEELi1EEENS0_13sub_assign_opIffEEEEvRT_RKT0_RKT1_, symObjAddr: 0x87EF8, symBinAddr: 0x10008BF70, symSize: 0xD8 }
  - { offsetInCU: 0x671F0, offset: 0x671F0, size: 0x8, addend: 0x0, symName: __ZN5Eigen8internal17resize_if_allowedINS_5BlockINS2_INS_6MatrixIfLi3ELi3ELi0ELi3ELi3EEELin1ELin1ELb0EEELi1ELin1ELb0EEENS_7ProductINS_13CwiseBinaryOpINS0_17scalar_product_opIffEEKNS_14CwiseNullaryOpINS0_18scalar_constant_opIfEEKNS3_IfLi1ELi1ELi0ELi1ELi1EEEEESF_EENS_3MapINS3_IfLi1ELin1ELi1ELi1ELi3EEELi0ENS_6StrideILi0ELi0EEEEELi1EEENS0_13sub_assign_opIffEEEEvRT_RKT0_RKT1_, symObjAddr: 0x88004, symBinAddr: 0x10008C07C, symSize: 0xB4 }
  - { offsetInCU: 0x674A1, offset: 0x674A1, size: 0x8, addend: 0x0, symName: __ZN5Eigen8internal24call_assignment_no_aliasINS_6MatrixIfLi1ELi1ELi0ELi1ELi1EEENS_13CwiseBinaryOpINS0_17scalar_product_opIffEEKNS_14CwiseNullaryOpINS0_18scalar_constant_opIfEEKS3_EESA_EENS0_9assign_opIffEEEEvRT_RKT0_RKT1_, symObjAddr: 0x88444, symBinAddr: 0x10008C4BC, symSize: 0x3C }
  - { offsetInCU: 0x6756F, offset: 0x6756F, size: 0x8, addend: 0x0, symName: __ZN5Eigen8internal18check_for_aliasingINS_6MatrixIfLi1ELi1ELi0ELi1ELi1EEENS_13CwiseBinaryOpINS0_17scalar_product_opIffEEKNS_14CwiseNullaryOpINS0_18scalar_constant_opIfEEKS3_EESA_EEEEvRKT_RKT0_, symObjAddr: 0x884C0, symBinAddr: 0x10008C538, symSize: 0x14 }
  - { offsetInCU: 0x675BA, offset: 0x675BA, size: 0x8, addend: 0x0, symName: __ZN5Eigen8internal26call_dense_assignment_loopINS_6MatrixIfLi1ELi1ELi0ELi1ELi1EEENS_13CwiseBinaryOpINS0_17scalar_product_opIffEEKNS_14CwiseNullaryOpINS0_18scalar_constant_opIfEEKS3_EESA_EENS0_9assign_opIffEEEEvRT_RKT0_RKT1_, symObjAddr: 0x884D4, symBinAddr: 0x10008C54C, symSize: 0xD8 }
  - { offsetInCU: 0x6766E, offset: 0x6766E, size: 0x8, addend: 0x0, symName: __ZN5Eigen8internal17resize_if_allowedINS_6MatrixIfLi1ELi1ELi0ELi1ELi1EEENS_13CwiseBinaryOpINS0_17scalar_product_opIffEEKNS_14CwiseNullaryOpINS0_18scalar_constant_opIfEEKS3_EESA_EEffEEvRT_RKT0_RKNS0_9assign_opIT1_T2_EE, symObjAddr: 0x885E0, symBinAddr: 0x10008C658, symSize: 0xF8 }
  - { offsetInCU: 0x67806, offset: 0x67806, size: 0x8, addend: 0x0, symName: __ZN5Eigen8internal24call_assignment_no_aliasINS_3MapINS_6MatrixIfLin1ELi1ELi0ELi3ELi1EEELi0ENS_6StrideILi0ELi0EEEEENS_7ProductINS_5BlockINS9_INS3_IfLi3ELi3ELi0ELi3ELi3EEELin1ELin1ELb0EEELin1ELi1ELb0EEENS3_IfLi1ELi1ELi0ELi1ELi1EEELi0EEENS0_9assign_opIffEEEEvRT_RKT0_RKT1_, symObjAddr: 0x8ADF8, symBinAddr: 0x10008EE70, symSize: 0x3C }
  - { offsetInCU: 0x6793B, offset: 0x6793B, size: 0x8, addend: 0x0, symName: __ZN5Eigen8internal24call_assignment_no_aliasINS_3MapINS_6MatrixIfLin1ELi1ELi0ELi3ELi1EEELi0ENS_6StrideILi0ELi0EEEEENS_7ProductINS_5BlockINS9_INS3_IfLi3ELi3ELi0ELi3ELi3EEELin1ELin1ELb0EEELin1ELi1ELb0EEENS3_IfLi1ELi1ELi0ELi1ELi1EEELi1EEENS0_9assign_opIffEEEEvRT_RKT0_RKT1_, symObjAddr: 0x8AFFC, symBinAddr: 0x10008F074, symSize: 0x3C }
  - { offsetInCU: 0x67A09, offset: 0x67A09, size: 0x8, addend: 0x0, symName: __ZN5Eigen8internal18check_for_aliasingINS_3MapINS_6MatrixIfLin1ELi1ELi0ELi3ELi1EEELi0ENS_6StrideILi0ELi0EEEEENS_7ProductINS_5BlockINS9_INS3_IfLi3ELi3ELi0ELi3ELi3EEELin1ELin1ELb0EEELin1ELi1ELb0EEENS3_IfLi1ELi1ELi0ELi1ELi1EEELi1EEEEEvRKT_RKT0_, symObjAddr: 0x8B0C0, symBinAddr: 0x10008F138, symSize: 0x14 }
  - { offsetInCU: 0x67A54, offset: 0x67A54, size: 0x8, addend: 0x0, symName: __ZN5Eigen8internal26call_dense_assignment_loopINS_3MapINS_6MatrixIfLin1ELi1ELi0ELi3ELi1EEELi0ENS_6StrideILi0ELi0EEEEENS_7ProductINS_5BlockINS9_INS3_IfLi3ELi3ELi0ELi3ELi3EEELin1ELin1ELb0EEELin1ELi1ELb0EEENS3_IfLi1ELi1ELi0ELi1ELi1EEELi1EEENS0_9assign_opIffEEEEvRT_RKT0_RKT1_, symObjAddr: 0x8B0D4, symBinAddr: 0x10008F14C, symSize: 0xE0 }
  - { offsetInCU: 0x67B09, offset: 0x67B09, size: 0x8, addend: 0x0, symName: __ZN5Eigen8internal17resize_if_allowedINS_3MapINS_6MatrixIfLin1ELi1ELi0ELi3ELi1EEELi0ENS_6StrideILi0ELi0EEEEENS_7ProductINS_5BlockINS9_INS3_IfLi3ELi3ELi0ELi3ELi3EEELin1ELin1ELb0EEELin1ELi1ELb0EEENS3_IfLi1ELi1ELi0ELi1ELi1EEELi1EEEffEEvRT_RKT0_RKNS0_9assign_opIT1_T2_EE, symObjAddr: 0x8B1E8, symBinAddr: 0x10008F260, symSize: 0xF8 }
  - { offsetInCU: 0x67C67, offset: 0x67C67, size: 0x8, addend: 0x0, symName: __ZN5Eigen8internal24call_assignment_no_aliasINS_5BlockINS2_INS_6MatrixIfLi3ELi3ELi0ELi3ELi3EEELin1ELin1ELb0EEELin1ELi1ELb0EEENS_7ProductINS_13CwiseBinaryOpINS0_17scalar_product_opIffEEKNS_14CwiseNullaryOpINS0_18scalar_constant_opIfEEKNS3_IfLin1ELi1ELi0ELi3ELi1EEEEEKNS_3MapISE_Li0ENS_6StrideILi0ELi0EEEEEEENS_9TransposeIKNS3_IfLi1ELi1ELi0ELi1ELi1EEEEELi0EEENS0_13sub_assign_opIffEEEEvRT_RKT0_RKT1_, symObjAddr: 0x8DEDC, symBinAddr: 0x100091F54, symSize: 0x3C }
  - { offsetInCU: 0x67D9C, offset: 0x67D9C, size: 0x8, addend: 0x0, symName: __ZN5Eigen8internal24call_assignment_no_aliasINS_5BlockINS2_INS_6MatrixIfLi3ELi3ELi0ELi3ELi3EEELin1ELin1ELb0EEELin1ELi1ELb0EEENS_7ProductINS_13CwiseBinaryOpINS0_17scalar_product_opIffEEKNS_14CwiseNullaryOpINS0_18scalar_constant_opIfEEKNS3_IfLin1ELi1ELi0ELi3ELi1EEEEEKNS_3MapISE_Li0ENS_6StrideILi0ELi0EEEEEEENS_9TransposeIKNS3_IfLi1ELi1ELi0ELi1ELi1EEEEELi1EEENS0_13sub_assign_opIffEEEEvRT_RKT0_RKT1_, symObjAddr: 0x8E114, symBinAddr: 0x10009218C, symSize: 0x3C }
  - { offsetInCU: 0x67E6A, offset: 0x67E6A, size: 0x8, addend: 0x0, symName: __ZN5Eigen8internal18check_for_aliasingINS_5BlockINS2_INS_6MatrixIfLi3ELi3ELi0ELi3ELi3EEELin1ELin1ELb0EEELin1ELi1ELb0EEENS_7ProductINS_13CwiseBinaryOpINS0_17scalar_product_opIffEEKNS_14CwiseNullaryOpINS0_18scalar_constant_opIfEEKNS3_IfLin1ELi1ELi0ELi3ELi1EEEEEKNS_3MapISE_Li0ENS_6StrideILi0ELi0EEEEEEENS_9TransposeIKNS3_IfLi1ELi1ELi0ELi1ELi1EEEEELi1EEEEEvRKT_RKT0_, symObjAddr: 0x8E1DC, symBinAddr: 0x100092254, symSize: 0x14 }
  - { offsetInCU: 0x67EB5, offset: 0x67EB5, size: 0x8, addend: 0x0, symName: __ZN5Eigen8internal26call_dense_assignment_loopINS_5BlockINS2_INS_6MatrixIfLi3ELi3ELi0ELi3ELi3EEELin1ELin1ELb0EEELin1ELi1ELb0EEENS_7ProductINS_13CwiseBinaryOpINS0_17scalar_product_opIffEEKNS_14CwiseNullaryOpINS0_18scalar_constant_opIfEEKNS3_IfLin1ELi1ELi0ELi3ELi1EEEEEKNS_3MapISE_Li0ENS_6StrideILi0ELi0EEEEEEENS_9TransposeIKNS3_IfLi1ELi1ELi0ELi1ELi1EEEEELi1EEENS0_13sub_assign_opIffEEEEvRT_RKT0_RKT1_, symObjAddr: 0x8E1F0, symBinAddr: 0x100092268, symSize: 0x11C }
  - { offsetInCU: 0x67F6D, offset: 0x67F6D, size: 0x8, addend: 0x0, symName: __ZN5Eigen8internal17resize_if_allowedINS_5BlockINS2_INS_6MatrixIfLi3ELi3ELi0ELi3ELi3EEELin1ELin1ELb0EEELin1ELi1ELb0EEENS_7ProductINS_13CwiseBinaryOpINS0_17scalar_product_opIffEEKNS_14CwiseNullaryOpINS0_18scalar_constant_opIfEEKNS3_IfLin1ELi1ELi0ELi3ELi1EEEEEKNS_3MapISE_Li0ENS_6StrideILi0ELi0EEEEEEENS_9TransposeIKNS3_IfLi1ELi1ELi0ELi1ELi1EEEEELi1EEENS0_13sub_assign_opIffEEEEvRT_RKT0_RKT1_, symObjAddr: 0x8E340, symBinAddr: 0x1000923B8, symSize: 0xB4 }
  - { offsetInCU: 0x680A1, offset: 0x680A1, size: 0x8, addend: 0x0, symName: __ZN5Eigen8internal15call_assignmentINS_6MatrixIfLi3ELi3ELi0ELi3ELi3EEENS_14CwiseNullaryOpINS0_18scalar_constant_opIfEES3_EENS0_13mul_assign_opIffEEEEvRT_RKT0_RKT1_NS0_9enable_ifIXntsr25evaluator_assume_aliasingISC_EE5valueEPvE4typeE, symObjAddr: 0x901DC, symBinAddr: 0x100094254, symSize: 0x38 }
  - { offsetInCU: 0x6810F, offset: 0x6810F, size: 0x8, addend: 0x0, symName: __ZN5Eigen8internal24call_assignment_no_aliasINS_6MatrixIfLi3ELi3ELi0ELi3ELi3EEENS_14CwiseNullaryOpINS0_18scalar_constant_opIfEES3_EENS0_13mul_assign_opIffEEEEvRT_RKT0_RKT1_, symObjAddr: 0x90214, symBinAddr: 0x10009428C, symSize: 0x3C }
  - { offsetInCU: 0x681DD, offset: 0x681DD, size: 0x8, addend: 0x0, symName: __ZN5Eigen8internal26call_dense_assignment_loopINS_6MatrixIfLi3ELi3ELi0ELi3ELi3EEENS_14CwiseNullaryOpINS0_18scalar_constant_opIfEES3_EENS0_13mul_assign_opIffEEEEvRT_RKT0_RKT1_, symObjAddr: 0x90290, symBinAddr: 0x100094308, symSize: 0xD8 }
  - { offsetInCU: 0x68291, offset: 0x68291, size: 0x8, addend: 0x0, symName: __ZN5Eigen8internal17resize_if_allowedINS_6MatrixIfLi3ELi3ELi0ELi3ELi3EEENS_14CwiseNullaryOpINS0_18scalar_constant_opIfEES3_EENS0_13mul_assign_opIffEEEEvRT_RKT0_RKT1_, symObjAddr: 0x90368, symBinAddr: 0x1000943E0, symSize: 0xB4 }
  - { offsetInCU: 0x6839C, offset: 0x6839C, size: 0x8, addend: 0x0, symName: __ZN5Eigen8internal15call_assignmentINS_6MatrixIfLi3ELi3ELi0ELi3ELi3EEES3_EEvRT_RKT0_, symObjAddr: 0x908C0, symBinAddr: 0x100094938, symSize: 0x50 }
  - { offsetInCU: 0x683E7, offset: 0x683E7, size: 0x8, addend: 0x0, symName: __ZN5Eigen8internal15call_assignmentINS_6MatrixIfLi3ELi3ELi0ELi3ELi3EEES3_NS0_9assign_opIffEEEEvRT_RKT0_RKT1_NS0_9enable_ifIXntsr25evaluator_assume_aliasingIS8_EE5valueEPvE4typeE, symObjAddr: 0x90910, symBinAddr: 0x100094988, symSize: 0x38 }
  - { offsetInCU: 0x68455, offset: 0x68455, size: 0x8, addend: 0x0, symName: __ZN5Eigen8internal24call_assignment_no_aliasINS_6MatrixIfLi3ELi3ELi0ELi3ELi3EEES3_NS0_9assign_opIffEEEEvRT_RKT0_RKT1_, symObjAddr: 0x90948, symBinAddr: 0x1000949C0, symSize: 0x3C }
  - { offsetInCU: 0x68523, offset: 0x68523, size: 0x8, addend: 0x0, symName: __ZN5Eigen8internal18check_for_aliasingINS_6MatrixIfLi3ELi3ELi0ELi3ELi3EEES3_EEvRKT_RKT0_, symObjAddr: 0x909C4, symBinAddr: 0x100094A3C, symSize: 0x60 }
  - { offsetInCU: 0x6856E, offset: 0x6856E, size: 0x8, addend: 0x0, symName: __ZN5Eigen8internal26call_dense_assignment_loopINS_6MatrixIfLi3ELi3ELi0ELi3ELi3EEES3_NS0_9assign_opIffEEEEvRT_RKT0_RKT1_, symObjAddr: 0x90A24, symBinAddr: 0x100094A9C, symSize: 0xD8 }
  - { offsetInCU: 0x68660, offset: 0x68660, size: 0x8, addend: 0x0, symName: __ZN5Eigen8internal17resize_if_allowedINS_6MatrixIfLi3ELi3ELi0ELi3ELi3EEES3_ffEEvRT_RKT0_RKNS0_9assign_opIT1_T2_EE, symObjAddr: 0x90B10, symBinAddr: 0x100094B88, symSize: 0xF8 }
  - { offsetInCU: 0x68792, offset: 0x68792, size: 0x8, addend: 0x0, symName: __ZN5Eigen8internal13isfinite_implIfEEbRKNSt3__17complexIT_EE, symObjAddr: 0x90FC8, symBinAddr: 0x100095040, symSize: 0x64 }
  - { offsetInCU: 0x687C9, offset: 0x687C9, size: 0x8, addend: 0x0, symName: __ZN5Eigen8internal13isfinite_implIfEENS0_9enable_ifIXaantsr8internal11is_integralIT_EE5valuentsr9NumTraitsIS3_EE9IsComplexEbE4typeERKS3_, symObjAddr: 0x9109C, symBinAddr: 0x100095114, symSize: 0x2C }
  - { offsetInCU: 0x69089, offset: 0x69089, size: 0x8, addend: 0x0, symName: __ZN5Eigen8internal15call_assignmentINS_5BlockINS2_INS_6MatrixIfLi3ELi3ELi0ELi3ELi3EEELi3ELi1ELb1EEELin1ELi1ELb0EEENS_14CwiseNullaryOpINS0_18scalar_constant_opIfEENS3_IfLin1ELi1ELi0ELi3ELi1EEEEENS0_13div_assign_opIffEEEEvRT_RKT0_RKT1_NS0_9enable_ifIXntsr25evaluator_assume_aliasingISG_EE5valueEPvE4typeE, symObjAddr: 0x942D4, symBinAddr: 0x10009834C, symSize: 0x38 }
  - { offsetInCU: 0x690F7, offset: 0x690F7, size: 0x8, addend: 0x0, symName: __ZN5Eigen8internal24call_assignment_no_aliasINS_5BlockINS2_INS_6MatrixIfLi3ELi3ELi0ELi3ELi3EEELi3ELi1ELb1EEELin1ELi1ELb0EEENS_14CwiseNullaryOpINS0_18scalar_constant_opIfEENS3_IfLin1ELi1ELi0ELi3ELi1EEEEENS0_13div_assign_opIffEEEEvRT_RKT0_RKT1_, symObjAddr: 0x94398, symBinAddr: 0x100098410, symSize: 0x3C }
  - { offsetInCU: 0x691C5, offset: 0x691C5, size: 0x8, addend: 0x0, symName: __ZN5Eigen8internal26call_dense_assignment_loopINS_5BlockINS2_INS_6MatrixIfLi3ELi3ELi0ELi3ELi3EEELi3ELi1ELb1EEELin1ELi1ELb0EEENS_14CwiseNullaryOpINS0_18scalar_constant_opIfEENS3_IfLin1ELi1ELi0ELi3ELi1EEEEENS0_13div_assign_opIffEEEEvRT_RKT0_RKT1_, symObjAddr: 0x94414, symBinAddr: 0x10009848C, symSize: 0xD8 }
  - { offsetInCU: 0x69279, offset: 0x69279, size: 0x8, addend: 0x0, symName: __ZN5Eigen8internal17resize_if_allowedINS_5BlockINS2_INS_6MatrixIfLi3ELi3ELi0ELi3ELi3EEELi3ELi1ELb1EEELin1ELi1ELb0EEENS_14CwiseNullaryOpINS0_18scalar_constant_opIfEENS3_IfLin1ELi1ELi0ELi3ELi1EEEEENS0_13div_assign_opIffEEEEvRT_RKT0_RKT1_, symObjAddr: 0x944EC, symBinAddr: 0x100098564, symSize: 0xB4 }
  - { offsetInCU: 0x692D8, offset: 0x692D8, size: 0x8, addend: 0x0, symName: __ZN5Eigen8internal15call_assignmentINS_5BlockINS_6MatrixIfLi3ELi3ELi0ELi3ELi3EEELin1ELin1ELb0EEENS_14CwiseNullaryOpINS0_18scalar_constant_opIfEENS3_IfLin1ELin1ELi0ELi3ELi3EEEEENS0_13div_assign_opIffEEEEvRT_RKT0_RKT1_NS0_9enable_ifIXntsr25evaluator_assume_aliasingISF_EE5valueEPvE4typeE, symObjAddr: 0x94ACC, symBinAddr: 0x100098B44, symSize: 0x38 }
  - { offsetInCU: 0x69346, offset: 0x69346, size: 0x8, addend: 0x0, symName: __ZN5Eigen8internal24call_assignment_no_aliasINS_5BlockINS_6MatrixIfLi3ELi3ELi0ELi3ELi3EEELin1ELin1ELb0EEENS_14CwiseNullaryOpINS0_18scalar_constant_opIfEENS3_IfLin1ELin1ELi0ELi3ELi3EEEEENS0_13div_assign_opIffEEEEvRT_RKT0_RKT1_, symObjAddr: 0x94B04, symBinAddr: 0x100098B7C, symSize: 0x3C }
  - { offsetInCU: 0x69414, offset: 0x69414, size: 0x8, addend: 0x0, symName: __ZN5Eigen8internal26call_dense_assignment_loopINS_5BlockINS_6MatrixIfLi3ELi3ELi0ELi3ELi3EEELin1ELin1ELb0EEENS_14CwiseNullaryOpINS0_18scalar_constant_opIfEENS3_IfLin1ELin1ELi0ELi3ELi3EEEEENS0_13div_assign_opIffEEEEvRT_RKT0_RKT1_, symObjAddr: 0x94B80, symBinAddr: 0x100098BF8, symSize: 0xD8 }
  - { offsetInCU: 0x694C8, offset: 0x694C8, size: 0x8, addend: 0x0, symName: __ZN5Eigen8internal17resize_if_allowedINS_5BlockINS_6MatrixIfLi3ELi3ELi0ELi3ELi3EEELin1ELin1ELb0EEENS_14CwiseNullaryOpINS0_18scalar_constant_opIfEENS3_IfLin1ELin1ELi0ELi3ELi3EEEEENS0_13div_assign_opIffEEEEvRT_RKT0_RKT1_, symObjAddr: 0x94C58, symBinAddr: 0x100098CD0, symSize: 0xB4 }
  - { offsetInCU: 0x69779, offset: 0x69779, size: 0x8, addend: 0x0, symName: __ZN5Eigen8internal24call_assignment_no_aliasINS_6MatrixIfLi3ELi1ELi0ELi3ELi1EEENS_7ProductINS_5BlockINS2_IfLi3ELi3ELi0ELi3ELi3EEELi3ELin1ELb1EEENS5_INS5_IS6_Li3ELi1ELb1EEELin1ELi1ELb0EEELi0EEENS0_9assign_opIffEEEEvRT_RKT0_RKT1_, symObjAddr: 0x9518C, symBinAddr: 0x100099204, symSize: 0x3C }
  - { offsetInCU: 0x698AE, offset: 0x698AE, size: 0x8, addend: 0x0, symName: __ZN5Eigen8internal24call_assignment_no_aliasINS_6MatrixIfLi3ELi1ELi0ELi3ELi1EEENS_7ProductINS_5BlockINS2_IfLi3ELi3ELi0ELi3ELi3EEELi3ELin1ELb1EEENS5_INS5_IS6_Li3ELi1ELb1EEELin1ELi1ELb0EEELi1EEENS0_9assign_opIffEEEEvRT_RKT0_RKT1_, symObjAddr: 0x95368, symBinAddr: 0x1000993E0, symSize: 0x3C }
  - { offsetInCU: 0x6997C, offset: 0x6997C, size: 0x8, addend: 0x0, symName: __ZN5Eigen8internal18check_for_aliasingINS_6MatrixIfLi3ELi1ELi0ELi3ELi1EEENS_7ProductINS_5BlockINS2_IfLi3ELi3ELi0ELi3ELi3EEELi3ELin1ELb1EEENS5_INS5_IS6_Li3ELi1ELb1EEELin1ELi1ELb0EEELi1EEEEEvRKT_RKT0_, symObjAddr: 0x9542C, symBinAddr: 0x1000994A4, symSize: 0x14 }
  - { offsetInCU: 0x699C7, offset: 0x699C7, size: 0x8, addend: 0x0, symName: __ZN5Eigen8internal26call_dense_assignment_loopINS_6MatrixIfLi3ELi1ELi0ELi3ELi1EEENS_7ProductINS_5BlockINS2_IfLi3ELi3ELi0ELi3ELi3EEELi3ELin1ELb1EEENS5_INS5_IS6_Li3ELi1ELb1EEELin1ELi1ELb0EEELi1EEENS0_9assign_opIffEEEEvRT_RKT0_RKT1_, symObjAddr: 0x95440, symBinAddr: 0x1000994B8, symSize: 0xE0 }
  - { offsetInCU: 0x69A7C, offset: 0x69A7C, size: 0x8, addend: 0x0, symName: __ZN5Eigen8internal17resize_if_allowedINS_6MatrixIfLi3ELi1ELi0ELi3ELi1EEENS_7ProductINS_5BlockINS2_IfLi3ELi3ELi0ELi3ELi3EEELi3ELin1ELb1EEENS5_INS5_IS6_Li3ELi1ELb1EEELin1ELi1ELb0EEELi1EEEffEEvRT_RKT0_RKNS0_9assign_opIT1_T2_EE, symObjAddr: 0x95554, symBinAddr: 0x1000995CC, symSize: 0xF8 }
  - { offsetInCU: 0x6A0B9, offset: 0x6A0B9, size: 0x8, addend: 0x0, symName: __ZN5Eigen8internal15call_assignmentINS_5BlockINS_6MatrixIfLi3ELi3ELi0ELi3ELi3EEELi3ELi1ELb1EEENS3_IfLi3ELi1ELi0ELi3ELi1EEEEEvRT_RKT0_, symObjAddr: 0x9781C, symBinAddr: 0x10009B894, symSize: 0x50 }
  - { offsetInCU: 0x6A104, offset: 0x6A104, size: 0x8, addend: 0x0, symName: __ZN5Eigen8internal15call_assignmentINS_5BlockINS_6MatrixIfLi3ELi3ELi0ELi3ELi3EEELi3ELi1ELb1EEENS3_IfLi3ELi1ELi0ELi3ELi1EEENS0_9assign_opIffEEEEvRT_RKT0_RKT1_NS0_9enable_ifIXntsr25evaluator_assume_aliasingISB_EE5valueEPvE4typeE, symObjAddr: 0x9786C, symBinAddr: 0x10009B8E4, symSize: 0x38 }
  - { offsetInCU: 0x6A172, offset: 0x6A172, size: 0x8, addend: 0x0, symName: __ZN5Eigen8internal24call_assignment_no_aliasINS_5BlockINS_6MatrixIfLi3ELi3ELi0ELi3ELi3EEELi3ELi1ELb1EEENS3_IfLi3ELi1ELi0ELi3ELi1EEENS0_9assign_opIffEEEEvRT_RKT0_RKT1_, symObjAddr: 0x978A4, symBinAddr: 0x10009B91C, symSize: 0x3C }
  - { offsetInCU: 0x6A240, offset: 0x6A240, size: 0x8, addend: 0x0, symName: __ZN5Eigen8internal18check_for_aliasingINS_5BlockINS_6MatrixIfLi3ELi3ELi0ELi3ELi3EEELi3ELi1ELb1EEENS3_IfLi3ELi1ELi0ELi3ELi1EEEEEvRKT_RKT0_, symObjAddr: 0x97920, symBinAddr: 0x10009B998, symSize: 0x14 }
  - { offsetInCU: 0x6A28B, offset: 0x6A28B, size: 0x8, addend: 0x0, symName: __ZN5Eigen8internal26call_dense_assignment_loopINS_5BlockINS_6MatrixIfLi3ELi3ELi0ELi3ELi3EEELi3ELi1ELb1EEENS3_IfLi3ELi1ELi0ELi3ELi1EEENS0_9assign_opIffEEEEvRT_RKT0_RKT1_, symObjAddr: 0x97934, symBinAddr: 0x10009B9AC, symSize: 0xE0 }
  - { offsetInCU: 0x6A33F, offset: 0x6A33F, size: 0x8, addend: 0x0, symName: __ZN5Eigen8internal17resize_if_allowedINS_5BlockINS_6MatrixIfLi3ELi3ELi0ELi3ELi3EEELi3ELi1ELb1EEENS3_IfLi3ELi1ELi0ELi3ELi1EEEffEEvRT_RKT0_RKNS0_9assign_opIT1_T2_EE, symObjAddr: 0x97A14, symBinAddr: 0x10009BA8C, symSize: 0xF8 }
  - { offsetInCU: 0x6A471, offset: 0x6A471, size: 0x8, addend: 0x0, symName: __ZN5Eigen8internal17isMuchSmallerThanIffEEbRKT_RKT0_RKNS_9NumTraitsIS2_E4RealE, symObjAddr: 0x987BC, symBinAddr: 0x10009C834, symSize: 0x38 }
  - { offsetInCU: 0x6A4CF, offset: 0x6A4CF, size: 0x8, addend: 0x0, symName: __ZN5Eigen8internal28check_static_allocation_sizeINSt3__17complexIfEELi9EEEvv, symObjAddr: 0x98BA4, symBinAddr: 0x10009CC1C, symSize: 0x4 }
  - { offsetInCU: 0x6A599, offset: 0x6A599, size: 0x8, addend: 0x0, symName: __ZN5Eigen8internal15call_assignmentINS_5BlockINS_6MatrixINSt3__17complexIfEELi3ELi3ELi0ELi3ELi3EEELi3ELi1ELb1EEENS_12CwiseUnaryOpINS0_14scalar_cast_opIfS6_EEKNS2_IKNS3_IfLi3ELi3ELi0ELi3ELi3EEELi3ELi1ELb1EEEEEEEvRT_RKT0_, symObjAddr: 0x99348, symBinAddr: 0x10009D3C0, symSize: 0x50 }
  - { offsetInCU: 0x6A5E4, offset: 0x6A5E4, size: 0x8, addend: 0x0, symName: __ZN5Eigen8internal15call_assignmentINS_5BlockINS_6MatrixINSt3__17complexIfEELi3ELi3ELi0ELi3ELi3EEELi3ELi1ELb1EEENS_12CwiseUnaryOpINS0_14scalar_cast_opIfS6_EEKNS2_IKNS3_IfLi3ELi3ELi0ELi3ELi3EEELi3ELi1ELb1EEEEENS0_9assign_opIS6_S6_EEEEvRT_RKT0_RKT1_NS0_9enable_ifIXntsr25evaluator_assume_aliasingISL_EE5valueEPvE4typeE, symObjAddr: 0x993AC, symBinAddr: 0x10009D424, symSize: 0x38 }
  - { offsetInCU: 0x6A6A8, offset: 0x6A6A8, size: 0x8, addend: 0x0, symName: __ZN5Eigen8internal24call_assignment_no_aliasINS_5BlockINS_6MatrixINSt3__17complexIfEELi3ELi3ELi0ELi3ELi3EEELi3ELi1ELb1EEENS_12CwiseUnaryOpINS0_14scalar_cast_opIfS6_EEKNS2_IKNS3_IfLi3ELi3ELi0ELi3ELi3EEELi3ELi1ELb1EEEEENS0_9assign_opIS6_S6_EEEEvRT_RKT0_RKT1_, symObjAddr: 0x99410, symBinAddr: 0x10009D488, symSize: 0x3C }
  - { offsetInCU: 0x6A776, offset: 0x6A776, size: 0x8, addend: 0x0, symName: __ZN5Eigen8internal18check_for_aliasingINS_5BlockINS_6MatrixINSt3__17complexIfEELi3ELi3ELi0ELi3ELi3EEELi3ELi1ELb1EEENS_12CwiseUnaryOpINS0_14scalar_cast_opIfS6_EEKNS2_IKNS3_IfLi3ELi3ELi0ELi3ELi3EEELi3ELi1ELb1EEEEEEEvRKT_RKT0_, symObjAddr: 0x9948C, symBinAddr: 0x10009D504, symSize: 0x14 }
  - { offsetInCU: 0x6A7C1, offset: 0x6A7C1, size: 0x8, addend: 0x0, symName: __ZN5Eigen8internal26call_dense_assignment_loopINS_5BlockINS_6MatrixINSt3__17complexIfEELi3ELi3ELi0ELi3ELi3EEELi3ELi1ELb1EEENS_12CwiseUnaryOpINS0_14scalar_cast_opIfS6_EEKNS2_IKNS3_IfLi3ELi3ELi0ELi3ELi3EEELi3ELi1ELb1EEEEENS0_9assign_opIS6_S6_EEEEvRT_RKT0_RKT1_, symObjAddr: 0x994A0, symBinAddr: 0x10009D518, symSize: 0xE0 }
  - { offsetInCU: 0x6AAF1, offset: 0x6AAF1, size: 0x8, addend: 0x0, symName: __ZN5Eigen8internal17resize_if_allowedINS_5BlockINS_6MatrixINSt3__17complexIfEELi3ELi3ELi0ELi3ELi3EEELi3ELi1ELb1EEENS_12CwiseUnaryOpINS0_14scalar_cast_opIfS6_EEKNS2_IKNS3_IfLi3ELi3ELi0ELi3ELi3EEELi3ELi1ELb1EEEEES6_S6_EEvRT_RKT0_RKNS0_9assign_opIT1_T2_EE, symObjAddr: 0x995B4, symBinAddr: 0x10009D62C, symSize: 0xF8 }
  - { offsetInCU: 0x6AE39, offset: 0x6AE39, size: 0x8, addend: 0x0, symName: __ZN5Eigen8internal4castIfNSt3__17complexIfEEEET0_RKT_, symObjAddr: 0x9A3E4, symBinAddr: 0x10009E45C, symSize: 0x34 }
  - { offsetInCU: 0x6B072, offset: 0x6B072, size: 0x8, addend: 0x0, symName: __ZN5Eigen8internal15call_assignmentINS_5BlockINS_6MatrixINSt3__17complexIfEELi3ELi3ELi0ELi3ELi3EEELi3ELi1ELb1EEENS_14CwiseNullaryOpINS0_18scalar_constant_opIS6_EENS3_IS6_Li3ELi1ELi0ELi3ELi1EEEEENS0_13div_assign_opIS6_S6_EEEEvRT_RKT0_RKT1_NS0_9enable_ifIXntsr25evaluator_assume_aliasingISI_EE5valueEPvE4typeE, symObjAddr: 0x9B258, symBinAddr: 0x10009F2D0, symSize: 0x38 }
  - { offsetInCU: 0x6B0E0, offset: 0x6B0E0, size: 0x8, addend: 0x0, symName: __ZN5Eigen8internal24call_assignment_no_aliasINS_5BlockINS_6MatrixINSt3__17complexIfEELi3ELi3ELi0ELi3ELi3EEELi3ELi1ELb1EEENS_14CwiseNullaryOpINS0_18scalar_constant_opIS6_EENS3_IS6_Li3ELi1ELi0ELi3ELi1EEEEENS0_13div_assign_opIS6_S6_EEEEvRT_RKT0_RKT1_, symObjAddr: 0x9B31C, symBinAddr: 0x10009F394, symSize: 0x3C }
  - { offsetInCU: 0x6B1AE, offset: 0x6B1AE, size: 0x8, addend: 0x0, symName: __ZN5Eigen8internal18check_for_aliasingINS_5BlockINS_6MatrixINSt3__17complexIfEELi3ELi3ELi0ELi3ELi3EEELi3ELi1ELb1EEENS_14CwiseNullaryOpINS0_18scalar_constant_opIS6_EENS3_IS6_Li3ELi1ELi0ELi3ELi1EEEEEEEvRKT_RKT0_, symObjAddr: 0x9B398, symBinAddr: 0x10009F410, symSize: 0x14 }
  - { offsetInCU: 0x6B1F9, offset: 0x6B1F9, size: 0x8, addend: 0x0, symName: __ZN5Eigen8internal26call_dense_assignment_loopINS_5BlockINS_6MatrixINSt3__17complexIfEELi3ELi3ELi0ELi3ELi3EEELi3ELi1ELb1EEENS_14CwiseNullaryOpINS0_18scalar_constant_opIS6_EENS3_IS6_Li3ELi1ELi0ELi3ELi1EEEEENS0_13div_assign_opIS6_S6_EEEEvRT_RKT0_RKT1_, symObjAddr: 0x9B3AC, symBinAddr: 0x10009F424, symSize: 0xD8 }
  - { offsetInCU: 0x6B2AD, offset: 0x6B2AD, size: 0x8, addend: 0x0, symName: __ZN5Eigen8internal17resize_if_allowedINS_5BlockINS_6MatrixINSt3__17complexIfEELi3ELi3ELi0ELi3ELi3EEELi3ELi1ELb1EEENS_14CwiseNullaryOpINS0_18scalar_constant_opIS6_EENS3_IS6_Li3ELi1ELi0ELi3ELi1EEEEENS0_13div_assign_opIS6_S6_EEEEvRT_RKT0_RKT1_, symObjAddr: 0x9B4B8, symBinAddr: 0x10009F530, symSize: 0xB4 }
  - { offsetInCU: 0x6B3D7, offset: 0x6B3D7, size: 0x8, addend: 0x0, symName: __ZN5Eigen8internal4pdivINS0_9Packet1cfEEET_RKS3_S5_, symObjAddr: 0x9BA30, symBinAddr: 0x10009FAA8, symSize: 0xD8 }
  - { offsetInCU: 0x6B44B, offset: 0x6B44B, size: 0x8, addend: 0x0, symName: __ZN5Eigen8internal7pstoreuINSt3__17complexIfEENS0_9Packet1cfEEEvPT_RKT0_, symObjAddr: 0x9BB08, symBinAddr: 0x10009FB80, symSize: 0x2C }
  - { offsetInCU: 0x6B493, offset: 0x6B493, size: 0x8, addend: 0x0, symName: __ZN5Eigen8internal4pmulINS0_9Packet1cfEEET_RKS3_S5_, symObjAddr: 0x9BB34, symBinAddr: 0x10009FBAC, symSize: 0x1AC }
  - { offsetInCU: 0x6B5A3, offset: 0x6B5A3, size: 0x8, addend: 0x0, symName: __ZN5Eigen8internal5pconjINS0_9Packet1cfEEET_RKS3_, symObjAddr: 0x9BCE0, symBinAddr: 0x10009FD58, symSize: 0x88 }
  - { offsetInCU: 0x6B5E6, offset: 0x6B5E6, size: 0x8, addend: 0x0, symName: __ZN5Eigen8internal6ploaduINS0_9Packet1cfEEET_PKNS0_15unpacket_traitsIS3_E4typeE, symObjAddr: 0x9BDE8, symBinAddr: 0x10009FE60, symSize: 0x38 }
  - { offsetInCU: 0x6B61B, offset: 0x6B61B, size: 0x8, addend: 0x0, symName: __ZN5Eigen8internal5pset1INS0_9Packet1cfEEET_RKNS0_15unpacket_traitsIS3_E4typeE, symObjAddr: 0x9BE84, symBinAddr: 0x10009FEFC, symSize: 0x48 }
  - { offsetInCU: 0x6B6A6, offset: 0x6B6A6, size: 0x8, addend: 0x0, symName: __ZN5Eigen8internal15call_assignmentINS_6MatrixIfLi3ELi1ELi0ELi3ELi1EEENS_14CwiseUnaryViewINS0_18scalar_real_ref_opINSt3__17complexIfEEEENS_5BlockINS2_IS8_Li3ELi3ELi0ELi3ELi3EEELi3ELi1ELb1EEEEEEEvRT_RKT0_, symObjAddr: 0x9CB00, symBinAddr: 0x1000A0B78, symSize: 0x50 }
  - { offsetInCU: 0x6B6F1, offset: 0x6B6F1, size: 0x8, addend: 0x0, symName: __ZN5Eigen8internal15call_assignmentINS_6MatrixIfLi3ELi1ELi0ELi3ELi1EEENS_14CwiseUnaryViewINS0_18scalar_real_ref_opINSt3__17complexIfEEEENS_5BlockINS2_IS8_Li3ELi3ELi0ELi3ELi3EEELi3ELi1ELb1EEEEENS0_9assign_opIffEEEEvRT_RKT0_RKT1_NS0_9enable_ifIXntsr25evaluator_assume_aliasingISI_EE5valueEPvE4typeE, symObjAddr: 0x9CB64, symBinAddr: 0x1000A0BDC, symSize: 0x38 }
  - { offsetInCU: 0x6B75F, offset: 0x6B75F, size: 0x8, addend: 0x0, symName: __ZN5Eigen8internal24call_assignment_no_aliasINS_6MatrixIfLi3ELi1ELi0ELi3ELi1EEENS_14CwiseUnaryViewINS0_18scalar_real_ref_opINSt3__17complexIfEEEENS_5BlockINS2_IS8_Li3ELi3ELi0ELi3ELi3EEELi3ELi1ELb1EEEEENS0_9assign_opIffEEEEvRT_RKT0_RKT1_, symObjAddr: 0x9CB9C, symBinAddr: 0x1000A0C14, symSize: 0x3C }
  - { offsetInCU: 0x6B82D, offset: 0x6B82D, size: 0x8, addend: 0x0, symName: __ZN5Eigen8internal18check_for_aliasingINS_6MatrixIfLi3ELi1ELi0ELi3ELi1EEENS_14CwiseUnaryViewINS0_18scalar_real_ref_opINSt3__17complexIfEEEENS_5BlockINS2_IS8_Li3ELi3ELi0ELi3ELi3EEELi3ELi1ELb1EEEEEEEvRKT_RKT0_, symObjAddr: 0x9CC18, symBinAddr: 0x1000A0C90, symSize: 0x14 }
  - { offsetInCU: 0x6B878, offset: 0x6B878, size: 0x8, addend: 0x0, symName: __ZN5Eigen8internal26call_dense_assignment_loopINS_6MatrixIfLi3ELi1ELi0ELi3ELi1EEENS_14CwiseUnaryViewINS0_18scalar_real_ref_opINSt3__17complexIfEEEENS_5BlockINS2_IS8_Li3ELi3ELi0ELi3ELi3EEELi3ELi1ELb1EEEEENS0_9assign_opIffEEEEvRT_RKT0_RKT1_, symObjAddr: 0x9CC2C, symBinAddr: 0x1000A0CA4, symSize: 0xD8 }
  - { offsetInCU: 0x6BB09, offset: 0x6BB09, size: 0x8, addend: 0x0, symName: __ZN5Eigen8internal17resize_if_allowedINS_6MatrixIfLi3ELi1ELi0ELi3ELi1EEENS_14CwiseUnaryViewINS0_18scalar_real_ref_opINSt3__17complexIfEEEENS_5BlockINS2_IS8_Li3ELi3ELi0ELi3ELi3EEELi3ELi1ELb1EEEEEffEEvRT_RKT0_RKNS0_9assign_opIT1_T2_EE, symObjAddr: 0x9CD38, symBinAddr: 0x1000A0DB0, symSize: 0xF8 }
  - { offsetInCU: 0x6BF27, offset: 0x6BF27, size: 0x8, addend: 0x0, symName: __ZN5Eigen8internal24call_assignment_no_aliasINS_6MatrixIfLi3ELi1ELi0ELi3ELi1EEENS_13CwiseBinaryOpINS0_18scalar_quotient_opIffEEKS3_KNS_14CwiseNullaryOpINS0_18scalar_constant_opIfEES7_EEEENS0_9assign_opIffEEEEvRT_RKT0_RKT1_, symObjAddr: 0x9E144, symBinAddr: 0x1000A21BC, symSize: 0x3C }
  - { offsetInCU: 0x6BFF5, offset: 0x6BFF5, size: 0x8, addend: 0x0, symName: __ZN5Eigen8internal18check_for_aliasingINS_6MatrixIfLi3ELi1ELi0ELi3ELi1EEENS_13CwiseBinaryOpINS0_18scalar_quotient_opIffEEKS3_KNS_14CwiseNullaryOpINS0_18scalar_constant_opIfEES7_EEEEEEvRKT_RKT0_, symObjAddr: 0x9E1C0, symBinAddr: 0x1000A2238, symSize: 0x14 }
  - { offsetInCU: 0x6C040, offset: 0x6C040, size: 0x8, addend: 0x0, symName: __ZN5Eigen8internal26call_dense_assignment_loopINS_6MatrixIfLi3ELi1ELi0ELi3ELi1EEENS_13CwiseBinaryOpINS0_18scalar_quotient_opIffEEKS3_KNS_14CwiseNullaryOpINS0_18scalar_constant_opIfEES7_EEEENS0_9assign_opIffEEEEvRT_RKT0_RKT1_, symObjAddr: 0x9E1D4, symBinAddr: 0x1000A224C, symSize: 0xD8 }
  - { offsetInCU: 0x6C0F4, offset: 0x6C0F4, size: 0x8, addend: 0x0, symName: __ZN5Eigen8internal17resize_if_allowedINS_6MatrixIfLi3ELi1ELi0ELi3ELi1EEENS_13CwiseBinaryOpINS0_18scalar_quotient_opIffEEKS3_KNS_14CwiseNullaryOpINS0_18scalar_constant_opIfEES7_EEEEffEEvRT_RKT0_RKNS0_9assign_opIT1_T2_EE, symObjAddr: 0x9E2E0, symBinAddr: 0x1000A2358, symSize: 0xF8 }
  - { offsetInCU: 0x6C226, offset: 0x6C226, size: 0x8, addend: 0x0, symName: __ZN5Eigen8internal24call_assignment_no_aliasINS_6MatrixIfLi3ELi1ELi0ELi3ELi1EEENS_13CwiseBinaryOpINS0_17scalar_product_opIffEEKNS_14CwiseNullaryOpINS0_18scalar_constant_opIfEEKS3_EESA_EENS0_9assign_opIffEEEEvRT_RKT0_RKT1_, symObjAddr: 0x9EFC8, symBinAddr: 0x1000A3040, symSize: 0x3C }
  - { offsetInCU: 0x6C2F4, offset: 0x6C2F4, size: 0x8, addend: 0x0, symName: __ZN5Eigen8internal18check_for_aliasingINS_6MatrixIfLi3ELi1ELi0ELi3ELi1EEENS_13CwiseBinaryOpINS0_17scalar_product_opIffEEKNS_14CwiseNullaryOpINS0_18scalar_constant_opIfEEKS3_EESA_EEEEvRKT_RKT0_, symObjAddr: 0x9F044, symBinAddr: 0x1000A30BC, symSize: 0x14 }
  - { offsetInCU: 0x6C33F, offset: 0x6C33F, size: 0x8, addend: 0x0, symName: __ZN5Eigen8internal26call_dense_assignment_loopINS_6MatrixIfLi3ELi1ELi0ELi3ELi1EEENS_13CwiseBinaryOpINS0_17scalar_product_opIffEEKNS_14CwiseNullaryOpINS0_18scalar_constant_opIfEEKS3_EESA_EENS0_9assign_opIffEEEEvRT_RKT0_RKT1_, symObjAddr: 0x9F058, symBinAddr: 0x1000A30D0, symSize: 0xD8 }
  - { offsetInCU: 0x6C3F3, offset: 0x6C3F3, size: 0x8, addend: 0x0, symName: __ZN5Eigen8internal17resize_if_allowedINS_6MatrixIfLi3ELi1ELi0ELi3ELi1EEENS_13CwiseBinaryOpINS0_17scalar_product_opIffEEKNS_14CwiseNullaryOpINS0_18scalar_constant_opIfEEKS3_EESA_EEffEEvRT_RKT0_RKNS0_9assign_opIT1_T2_EE, symObjAddr: 0x9F164, symBinAddr: 0x1000A31DC, symSize: 0xF8 }
  - { offsetInCU: 0x6C525, offset: 0x6C525, size: 0x8, addend: 0x0, symName: __ZN5Eigen8internal24call_assignment_no_aliasINS_6MatrixIfLi3ELi1ELi0ELi3ELi1EEENS_13CwiseBinaryOpINS0_13scalar_sum_opIffEEKS3_KNS4_INS0_17scalar_product_opIffEEKNS_14CwiseNullaryOpINS0_18scalar_constant_opIfEES7_EES7_EEEENS0_9assign_opIffEEEEvRT_RKT0_RKT1_, symObjAddr: 0x9FDD0, symBinAddr: 0x1000A3E48, symSize: 0x3C }
  - { offsetInCU: 0x6C5F3, offset: 0x6C5F3, size: 0x8, addend: 0x0, symName: __ZN5Eigen8internal18check_for_aliasingINS_6MatrixIfLi3ELi1ELi0ELi3ELi1EEENS_13CwiseBinaryOpINS0_13scalar_sum_opIffEEKS3_KNS4_INS0_17scalar_product_opIffEEKNS_14CwiseNullaryOpINS0_18scalar_constant_opIfEES7_EES7_EEEEEEvRKT_RKT0_, symObjAddr: 0x9FE4C, symBinAddr: 0x1000A3EC4, symSize: 0x14 }
  - { offsetInCU: 0x6C63E, offset: 0x6C63E, size: 0x8, addend: 0x0, symName: __ZN5Eigen8internal26call_dense_assignment_loopINS_6MatrixIfLi3ELi1ELi0ELi3ELi1EEENS_13CwiseBinaryOpINS0_13scalar_sum_opIffEEKS3_KNS4_INS0_17scalar_product_opIffEEKNS_14CwiseNullaryOpINS0_18scalar_constant_opIfEES7_EES7_EEEENS0_9assign_opIffEEEEvRT_RKT0_RKT1_, symObjAddr: 0x9FE60, symBinAddr: 0x1000A3ED8, symSize: 0xD8 }
  - { offsetInCU: 0x6C6F3, offset: 0x6C6F3, size: 0x8, addend: 0x0, symName: __ZN5Eigen8internal17resize_if_allowedINS_6MatrixIfLi3ELi1ELi0ELi3ELi1EEENS_13CwiseBinaryOpINS0_13scalar_sum_opIffEEKS3_KNS4_INS0_17scalar_product_opIffEEKNS_14CwiseNullaryOpINS0_18scalar_constant_opIfEES7_EES7_EEEEffEEvRT_RKT0_RKNS0_9assign_opIT1_T2_EE, symObjAddr: 0x9FF6C, symBinAddr: 0x1000A3FE4, symSize: 0xF8 }
  - { offsetInCU: 0x6C825, offset: 0x6C825, size: 0x8, addend: 0x0, symName: __ZN5Eigen8internal24call_assignment_no_aliasINS_6MatrixIfLi3ELi1ELi0ELi3ELi1EEENS_13CwiseBinaryOpINS0_13scalar_sum_opIffEEKNS4_IS6_KS3_KNS4_INS0_17scalar_product_opIffEEKNS_14CwiseNullaryOpINS0_18scalar_constant_opIfEES7_EES7_EEEESG_EENS0_9assign_opIffEEEEvRT_RKT0_RKT1_, symObjAddr: 0xA0C98, symBinAddr: 0x1000A4D10, symSize: 0x3C }
  - { offsetInCU: 0x6C8F3, offset: 0x6C8F3, size: 0x8, addend: 0x0, symName: __ZN5Eigen8internal18check_for_aliasingINS_6MatrixIfLi3ELi1ELi0ELi3ELi1EEENS_13CwiseBinaryOpINS0_13scalar_sum_opIffEEKNS4_IS6_KS3_KNS4_INS0_17scalar_product_opIffEEKNS_14CwiseNullaryOpINS0_18scalar_constant_opIfEES7_EES7_EEEESG_EEEEvRKT_RKT0_, symObjAddr: 0xA0D14, symBinAddr: 0x1000A4D8C, symSize: 0x14 }
  - { offsetInCU: 0x6C93E, offset: 0x6C93E, size: 0x8, addend: 0x0, symName: __ZN5Eigen8internal26call_dense_assignment_loopINS_6MatrixIfLi3ELi1ELi0ELi3ELi1EEENS_13CwiseBinaryOpINS0_13scalar_sum_opIffEEKNS4_IS6_KS3_KNS4_INS0_17scalar_product_opIffEEKNS_14CwiseNullaryOpINS0_18scalar_constant_opIfEES7_EES7_EEEESG_EENS0_9assign_opIffEEEEvRT_RKT0_RKT1_, symObjAddr: 0xA0D28, symBinAddr: 0x1000A4DA0, symSize: 0xD8 }
  - { offsetInCU: 0x6C9F3, offset: 0x6C9F3, size: 0x8, addend: 0x0, symName: __ZN5Eigen8internal17resize_if_allowedINS_6MatrixIfLi3ELi1ELi0ELi3ELi1EEENS_13CwiseBinaryOpINS0_13scalar_sum_opIffEEKNS4_IS6_KS3_KNS4_INS0_17scalar_product_opIffEEKNS_14CwiseNullaryOpINS0_18scalar_constant_opIfEES7_EES7_EEEESG_EEffEEvRT_RKT0_RKNS0_9assign_opIT1_T2_EE, symObjAddr: 0xA0E34, symBinAddr: 0x1000A4EAC, symSize: 0xF8 }
  - { offsetInCU: 0x6CB25, offset: 0x6CB25, size: 0x8, addend: 0x0, symName: __ZN5Eigen8internal24call_assignment_no_aliasINS_6MatrixIfLi3ELi1ELi0ELi3ELi1EEENS_13CwiseBinaryOpINS0_13scalar_sum_opIffEEKNS4_IS6_KNS4_IS6_KS3_KNS4_INS0_17scalar_product_opIffEEKNS_14CwiseNullaryOpINS0_18scalar_constant_opIfEES7_EES7_EEEESG_EESG_EENS0_9assign_opIffEEEEvRT_RKT0_RKT1_, symObjAddr: 0xA1B70, symBinAddr: 0x1000A5BE8, symSize: 0x3C }
  - { offsetInCU: 0x6CBF3, offset: 0x6CBF3, size: 0x8, addend: 0x0, symName: __ZN5Eigen8internal18check_for_aliasingINS_6MatrixIfLi3ELi1ELi0ELi3ELi1EEENS_13CwiseBinaryOpINS0_13scalar_sum_opIffEEKNS4_IS6_KNS4_IS6_KS3_KNS4_INS0_17scalar_product_opIffEEKNS_14CwiseNullaryOpINS0_18scalar_constant_opIfEES7_EES7_EEEESG_EESG_EEEEvRKT_RKT0_, symObjAddr: 0xA1BEC, symBinAddr: 0x1000A5C64, symSize: 0x14 }
  - { offsetInCU: 0x6CC3E, offset: 0x6CC3E, size: 0x8, addend: 0x0, symName: __ZN5Eigen8internal26call_dense_assignment_loopINS_6MatrixIfLi3ELi1ELi0ELi3ELi1EEENS_13CwiseBinaryOpINS0_13scalar_sum_opIffEEKNS4_IS6_KNS4_IS6_KS3_KNS4_INS0_17scalar_product_opIffEEKNS_14CwiseNullaryOpINS0_18scalar_constant_opIfEES7_EES7_EEEESG_EESG_EENS0_9assign_opIffEEEEvRT_RKT0_RKT1_, symObjAddr: 0xA1C00, symBinAddr: 0x1000A5C78, symSize: 0xD8 }
  - { offsetInCU: 0x6CCF3, offset: 0x6CCF3, size: 0x8, addend: 0x0, symName: __ZN5Eigen8internal17resize_if_allowedINS_6MatrixIfLi3ELi1ELi0ELi3ELi1EEENS_13CwiseBinaryOpINS0_13scalar_sum_opIffEEKNS4_IS6_KNS4_IS6_KS3_KNS4_INS0_17scalar_product_opIffEEKNS_14CwiseNullaryOpINS0_18scalar_constant_opIfEES7_EES7_EEEESG_EESG_EEffEEvRT_RKT0_RKNS0_9assign_opIT1_T2_EE, symObjAddr: 0xA1D0C, symBinAddr: 0x1000A5D84, symSize: 0xF8 }
  - { offsetInCU: 0x6CE25, offset: 0x6CE25, size: 0x8, addend: 0x0, symName: __ZN5Eigen8internal24call_assignment_no_aliasINS_6MatrixIfLi3ELi1ELi0ELi3ELi1EEENS_13CwiseBinaryOpINS0_13scalar_sum_opIffEEKNS4_IS6_KNS4_IS6_KNS4_IS6_KS3_KNS4_INS0_17scalar_product_opIffEEKNS_14CwiseNullaryOpINS0_18scalar_constant_opIfEES7_EES7_EEEESG_EESG_EESG_EENS0_9assign_opIffEEEEvRT_RKT0_RKT1_, symObjAddr: 0xA2A48, symBinAddr: 0x1000A6AC0, symSize: 0x3C }
  - { offsetInCU: 0x6CEF3, offset: 0x6CEF3, size: 0x8, addend: 0x0, symName: __ZN5Eigen8internal18check_for_aliasingINS_6MatrixIfLi3ELi1ELi0ELi3ELi1EEENS_13CwiseBinaryOpINS0_13scalar_sum_opIffEEKNS4_IS6_KNS4_IS6_KNS4_IS6_KS3_KNS4_INS0_17scalar_product_opIffEEKNS_14CwiseNullaryOpINS0_18scalar_constant_opIfEES7_EES7_EEEESG_EESG_EESG_EEEEvRKT_RKT0_, symObjAddr: 0xA2AC4, symBinAddr: 0x1000A6B3C, symSize: 0x14 }
  - { offsetInCU: 0x6CF3E, offset: 0x6CF3E, size: 0x8, addend: 0x0, symName: __ZN5Eigen8internal26call_dense_assignment_loopINS_6MatrixIfLi3ELi1ELi0ELi3ELi1EEENS_13CwiseBinaryOpINS0_13scalar_sum_opIffEEKNS4_IS6_KNS4_IS6_KNS4_IS6_KS3_KNS4_INS0_17scalar_product_opIffEEKNS_14CwiseNullaryOpINS0_18scalar_constant_opIfEES7_EES7_EEEESG_EESG_EESG_EENS0_9assign_opIffEEEEvRT_RKT0_RKT1_, symObjAddr: 0xA2AD8, symBinAddr: 0x1000A6B50, symSize: 0xD8 }
  - { offsetInCU: 0x6CFF3, offset: 0x6CFF3, size: 0x8, addend: 0x0, symName: __ZN5Eigen8internal17resize_if_allowedINS_6MatrixIfLi3ELi1ELi0ELi3ELi1EEENS_13CwiseBinaryOpINS0_13scalar_sum_opIffEEKNS4_IS6_KNS4_IS6_KNS4_IS6_KS3_KNS4_INS0_17scalar_product_opIffEEKNS_14CwiseNullaryOpINS0_18scalar_constant_opIfEES7_EES7_EEEESG_EESG_EESG_EEffEEvRT_RKT0_RKNS0_9assign_opIT1_T2_EE, symObjAddr: 0xA2BE4, symBinAddr: 0x1000A6C5C, symSize: 0xF8 }
  - { offsetInCU: 0x6D125, offset: 0x6D125, size: 0x8, addend: 0x0, symName: __ZN5Eigen8internal24call_assignment_no_aliasINS_6MatrixIfLi3ELi1ELi0ELi3ELi1EEENS_13CwiseBinaryOpINS0_13scalar_sum_opIffEEKNS4_IS6_KNS4_IS6_KNS4_IS6_KNS4_IS6_KS3_KNS4_INS0_17scalar_product_opIffEEKNS_14CwiseNullaryOpINS0_18scalar_constant_opIfEES7_EES7_EEEESG_EESG_EESG_EESG_EENS0_9assign_opIffEEEEvRT_RKT0_RKT1_, symObjAddr: 0xA3920, symBinAddr: 0x1000A7998, symSize: 0x3C }
  - { offsetInCU: 0x6D1F3, offset: 0x6D1F3, size: 0x8, addend: 0x0, symName: __ZN5Eigen8internal18check_for_aliasingINS_6MatrixIfLi3ELi1ELi0ELi3ELi1EEENS_13CwiseBinaryOpINS0_13scalar_sum_opIffEEKNS4_IS6_KNS4_IS6_KNS4_IS6_KNS4_IS6_KS3_KNS4_INS0_17scalar_product_opIffEEKNS_14CwiseNullaryOpINS0_18scalar_constant_opIfEES7_EES7_EEEESG_EESG_EESG_EESG_EEEEvRKT_RKT0_, symObjAddr: 0xA399C, symBinAddr: 0x1000A7A14, symSize: 0x14 }
  - { offsetInCU: 0x6D23E, offset: 0x6D23E, size: 0x8, addend: 0x0, symName: __ZN5Eigen8internal26call_dense_assignment_loopINS_6MatrixIfLi3ELi1ELi0ELi3ELi1EEENS_13CwiseBinaryOpINS0_13scalar_sum_opIffEEKNS4_IS6_KNS4_IS6_KNS4_IS6_KNS4_IS6_KS3_KNS4_INS0_17scalar_product_opIffEEKNS_14CwiseNullaryOpINS0_18scalar_constant_opIfEES7_EES7_EEEESG_EESG_EESG_EESG_EENS0_9assign_opIffEEEEvRT_RKT0_RKT1_, symObjAddr: 0xA39B0, symBinAddr: 0x1000A7A28, symSize: 0xE0 }
  - { offsetInCU: 0x6D2F3, offset: 0x6D2F3, size: 0x8, addend: 0x0, symName: __ZN5Eigen8internal17resize_if_allowedINS_6MatrixIfLi3ELi1ELi0ELi3ELi1EEENS_13CwiseBinaryOpINS0_13scalar_sum_opIffEEKNS4_IS6_KNS4_IS6_KNS4_IS6_KNS4_IS6_KS3_KNS4_INS0_17scalar_product_opIffEEKNS_14CwiseNullaryOpINS0_18scalar_constant_opIfEES7_EES7_EEEESG_EESG_EESG_EESG_EEffEEvRT_RKT0_RKNS0_9assign_opIT1_T2_EE, symObjAddr: 0xA3AC4, symBinAddr: 0x1000A7B3C, symSize: 0xF8 }
  - { offsetInCU: 0x6D425, offset: 0x6D425, size: 0x8, addend: 0x0, symName: __ZN5Eigen8internal24call_assignment_no_aliasINS_6MatrixIfLi3ELi1ELi0ELi3ELi1EEENS_13CwiseBinaryOpINS0_13scalar_sum_opIffEEKNS4_IS6_KNS4_IS6_KNS4_IS6_KNS4_INS0_17scalar_product_opIffEEKNS_14CwiseNullaryOpINS0_18scalar_constant_opIfEEKS3_EESC_EESG_EESG_EESG_EESG_EENS0_9assign_opIffEEEEvRT_RKT0_RKT1_, symObjAddr: 0xA4F60, symBinAddr: 0x1000A8FD8, symSize: 0x3C }
  - { offsetInCU: 0x6D4F3, offset: 0x6D4F3, size: 0x8, addend: 0x0, symName: __ZN5Eigen8internal18check_for_aliasingINS_6MatrixIfLi3ELi1ELi0ELi3ELi1EEENS_13CwiseBinaryOpINS0_13scalar_sum_opIffEEKNS4_IS6_KNS4_IS6_KNS4_IS6_KNS4_INS0_17scalar_product_opIffEEKNS_14CwiseNullaryOpINS0_18scalar_constant_opIfEEKS3_EESC_EESG_EESG_EESG_EESG_EEEEvRKT_RKT0_, symObjAddr: 0xA4FDC, symBinAddr: 0x1000A9054, symSize: 0x14 }
  - { offsetInCU: 0x6D53E, offset: 0x6D53E, size: 0x8, addend: 0x0, symName: __ZN5Eigen8internal26call_dense_assignment_loopINS_6MatrixIfLi3ELi1ELi0ELi3ELi1EEENS_13CwiseBinaryOpINS0_13scalar_sum_opIffEEKNS4_IS6_KNS4_IS6_KNS4_IS6_KNS4_INS0_17scalar_product_opIffEEKNS_14CwiseNullaryOpINS0_18scalar_constant_opIfEEKS3_EESC_EESG_EESG_EESG_EESG_EENS0_9assign_opIffEEEEvRT_RKT0_RKT1_, symObjAddr: 0xA4FF0, symBinAddr: 0x1000A9068, symSize: 0xE0 }
  - { offsetInCU: 0x6D5F3, offset: 0x6D5F3, size: 0x8, addend: 0x0, symName: __ZN5Eigen8internal17resize_if_allowedINS_6MatrixIfLi3ELi1ELi0ELi3ELi1EEENS_13CwiseBinaryOpINS0_13scalar_sum_opIffEEKNS4_IS6_KNS4_IS6_KNS4_IS6_KNS4_INS0_17scalar_product_opIffEEKNS_14CwiseNullaryOpINS0_18scalar_constant_opIfEEKS3_EESC_EESG_EESG_EESG_EESG_EEffEEvRT_RKT0_RKNS0_9assign_opIT1_T2_EE, symObjAddr: 0xA5104, symBinAddr: 0x1000A917C, symSize: 0xF8 }
  - { offsetInCU: 0x6D761, offset: 0x6D761, size: 0x8, addend: 0x0, symName: __ZN5Eigen8internal15call_assignmentINS_6MatrixIfLi3ELi1ELi0ELi3ELi1EEENS_13CwiseBinaryOpINS0_13scalar_sum_opIffEEKNS4_IS6_KNS4_IS6_KNS4_INS0_17scalar_product_opIffEEKNS_14CwiseNullaryOpINS0_18scalar_constant_opIfEEKS3_EESC_EESG_EESG_EESG_EEEEvRT_RKT0_, symObjAddr: 0xA7C50, symBinAddr: 0x1000ABCC8, symSize: 0x50 }
  - { offsetInCU: 0x6D7AC, offset: 0x6D7AC, size: 0x8, addend: 0x0, symName: __ZN5Eigen8internal15call_assignmentINS_6MatrixIfLi3ELi1ELi0ELi3ELi1EEENS_13CwiseBinaryOpINS0_13scalar_sum_opIffEEKNS4_IS6_KNS4_IS6_KNS4_INS0_17scalar_product_opIffEEKNS_14CwiseNullaryOpINS0_18scalar_constant_opIfEEKS3_EESC_EESG_EESG_EESG_EENS0_9assign_opIffEEEEvRT_RKT0_RKT1_NS0_9enable_ifIXntsr25evaluator_assume_aliasingISQ_EE5valueEPvE4typeE, symObjAddr: 0xA7CA0, symBinAddr: 0x1000ABD18, symSize: 0x38 }
  - { offsetInCU: 0x6D81A, offset: 0x6D81A, size: 0x8, addend: 0x0, symName: __ZN5Eigen8internal24call_assignment_no_aliasINS_6MatrixIfLi3ELi1ELi0ELi3ELi1EEENS_13CwiseBinaryOpINS0_13scalar_sum_opIffEEKNS4_IS6_KNS4_IS6_KNS4_INS0_17scalar_product_opIffEEKNS_14CwiseNullaryOpINS0_18scalar_constant_opIfEEKS3_EESC_EESG_EESG_EESG_EENS0_9assign_opIffEEEEvRT_RKT0_RKT1_, symObjAddr: 0xA7CD8, symBinAddr: 0x1000ABD50, symSize: 0x3C }
  - { offsetInCU: 0x6D8E8, offset: 0x6D8E8, size: 0x8, addend: 0x0, symName: __ZN5Eigen8internal18check_for_aliasingINS_6MatrixIfLi3ELi1ELi0ELi3ELi1EEENS_13CwiseBinaryOpINS0_13scalar_sum_opIffEEKNS4_IS6_KNS4_IS6_KNS4_INS0_17scalar_product_opIffEEKNS_14CwiseNullaryOpINS0_18scalar_constant_opIfEEKS3_EESC_EESG_EESG_EESG_EEEEvRKT_RKT0_, symObjAddr: 0xA7D54, symBinAddr: 0x1000ABDCC, symSize: 0x14 }
  - { offsetInCU: 0x6D933, offset: 0x6D933, size: 0x8, addend: 0x0, symName: __ZN5Eigen8internal26call_dense_assignment_loopINS_6MatrixIfLi3ELi1ELi0ELi3ELi1EEENS_13CwiseBinaryOpINS0_13scalar_sum_opIffEEKNS4_IS6_KNS4_IS6_KNS4_INS0_17scalar_product_opIffEEKNS_14CwiseNullaryOpINS0_18scalar_constant_opIfEEKS3_EESC_EESG_EESG_EESG_EENS0_9assign_opIffEEEEvRT_RKT0_RKT1_, symObjAddr: 0xA7D68, symBinAddr: 0x1000ABDE0, symSize: 0xD8 }
  - { offsetInCU: 0x6D9E8, offset: 0x6D9E8, size: 0x8, addend: 0x0, symName: __ZN5Eigen8internal17resize_if_allowedINS_6MatrixIfLi3ELi1ELi0ELi3ELi1EEENS_13CwiseBinaryOpINS0_13scalar_sum_opIffEEKNS4_IS6_KNS4_IS6_KNS4_INS0_17scalar_product_opIffEEKNS_14CwiseNullaryOpINS0_18scalar_constant_opIfEEKS3_EESC_EESG_EESG_EESG_EEffEEvRT_RKT0_RKNS0_9assign_opIT1_T2_EE, symObjAddr: 0xA7E74, symBinAddr: 0x1000ABEEC, symSize: 0xF8 }
  - { offsetInCU: 0x6DBCB, offset: 0x6DBCB, size: 0x8, addend: 0x0, symName: __ZN5Eigen8internal15call_assignmentINS_6MatrixIfLi3ELi1ELi0ELi3ELi1EEENS_14CwiseNullaryOpINS0_18scalar_constant_opIfEES3_EENS0_13mul_assign_opIffEEEEvRT_RKT0_RKT1_NS0_9enable_ifIXntsr25evaluator_assume_aliasingISC_EE5valueEPvE4typeE, symObjAddr: 0xA8FA0, symBinAddr: 0x1000AD018, symSize: 0x38 }
  - { offsetInCU: 0x6DC39, offset: 0x6DC39, size: 0x8, addend: 0x0, symName: __ZN5Eigen8internal24call_assignment_no_aliasINS_6MatrixIfLi3ELi1ELi0ELi3ELi1EEENS_14CwiseNullaryOpINS0_18scalar_constant_opIfEES3_EENS0_13mul_assign_opIffEEEEvRT_RKT0_RKT1_, symObjAddr: 0xA8FD8, symBinAddr: 0x1000AD050, symSize: 0x3C }
  - { offsetInCU: 0x6DD07, offset: 0x6DD07, size: 0x8, addend: 0x0, symName: __ZN5Eigen8internal26call_dense_assignment_loopINS_6MatrixIfLi3ELi1ELi0ELi3ELi1EEENS_14CwiseNullaryOpINS0_18scalar_constant_opIfEES3_EENS0_13mul_assign_opIffEEEEvRT_RKT0_RKT1_, symObjAddr: 0xA9054, symBinAddr: 0x1000AD0CC, symSize: 0xD8 }
  - { offsetInCU: 0x6DDBB, offset: 0x6DDBB, size: 0x8, addend: 0x0, symName: __ZN5Eigen8internal17resize_if_allowedINS_6MatrixIfLi3ELi1ELi0ELi3ELi1EEENS_14CwiseNullaryOpINS0_18scalar_constant_opIfEES3_EENS0_13mul_assign_opIffEEEEvRT_RKT0_RKT1_, symObjAddr: 0xA912C, symBinAddr: 0x1000AD1A4, symSize: 0xB4 }
  - { offsetInCU: 0x6DEC6, offset: 0x6DEC6, size: 0x8, addend: 0x0, symName: __ZN5Eigen8internal15call_assignmentINS_6MatrixIfLi3ELi1ELi0ELi3ELi1EEES3_NS0_13add_assign_opIffEEEEvRT_RKT0_RKT1_NS0_9enable_ifIXntsr25evaluator_assume_aliasingIS8_EE5valueEPvE4typeE, symObjAddr: 0xA956C, symBinAddr: 0x1000AD5E4, symSize: 0x38 }
  - { offsetInCU: 0x6DF34, offset: 0x6DF34, size: 0x8, addend: 0x0, symName: __ZN5Eigen8internal24call_assignment_no_aliasINS_6MatrixIfLi3ELi1ELi0ELi3ELi1EEES3_NS0_13add_assign_opIffEEEEvRT_RKT0_RKT1_, symObjAddr: 0xA95A4, symBinAddr: 0x1000AD61C, symSize: 0x3C }
  - { offsetInCU: 0x6E002, offset: 0x6E002, size: 0x8, addend: 0x0, symName: __ZN5Eigen8internal18check_for_aliasingINS_6MatrixIfLi3ELi1ELi0ELi3ELi1EEES3_EEvRKT_RKT0_, symObjAddr: 0xA9620, symBinAddr: 0x1000AD698, symSize: 0x14 }
  - { offsetInCU: 0x6E04D, offset: 0x6E04D, size: 0x8, addend: 0x0, symName: __ZN5Eigen8internal26call_dense_assignment_loopINS_6MatrixIfLi3ELi1ELi0ELi3ELi1EEES3_NS0_13add_assign_opIffEEEEvRT_RKT0_RKT1_, symObjAddr: 0xA9634, symBinAddr: 0x1000AD6AC, symSize: 0xD8 }
  - { offsetInCU: 0x6E101, offset: 0x6E101, size: 0x8, addend: 0x0, symName: __ZN5Eigen8internal17resize_if_allowedINS_6MatrixIfLi3ELi1ELi0ELi3ELi1EEES3_NS0_13add_assign_opIffEEEEvRT_RKT0_RKT1_, symObjAddr: 0xA970C, symBinAddr: 0x1000AD784, symSize: 0xB4 }
  - { offsetInCU: 0x6E20C, offset: 0x6E20C, size: 0x8, addend: 0x0, symName: __ZN5Eigen8internal15call_assignmentINS_6MatrixIfLi3ELi1ELi0ELi3ELi1EEENS_13CwiseBinaryOpINS0_18scalar_quotient_opIffEEKS3_KNS_14CwiseNullaryOpINS0_18scalar_constant_opIfEES7_EEEEEEvRT_RKT0_, symObjAddr: 0xA9B1C, symBinAddr: 0x1000ADB94, symSize: 0x50 }
  - { offsetInCU: 0x6E257, offset: 0x6E257, size: 0x8, addend: 0x0, symName: __ZN5Eigen8internal15call_assignmentINS_6MatrixIfLi3ELi1ELi0ELi3ELi1EEENS_13CwiseBinaryOpINS0_18scalar_quotient_opIffEEKS3_KNS_14CwiseNullaryOpINS0_18scalar_constant_opIfEES7_EEEENS0_9assign_opIffEEEEvRT_RKT0_RKT1_NS0_9enable_ifIXntsr25evaluator_assume_aliasingISI_EE5valueEPvE4typeE, symObjAddr: 0xA9B6C, symBinAddr: 0x1000ADBE4, symSize: 0x38 }
  - { offsetInCU: 0x6E2C5, offset: 0x6E2C5, size: 0x8, addend: 0x0, symName: __ZN5Eigen8internal15call_assignmentINS_6MatrixIfLi3ELi1ELi0ELi3ELi1EEES3_EEvRT_RKT0_, symObjAddr: 0xA9C48, symBinAddr: 0x1000ADCC0, symSize: 0x50 }
  - { offsetInCU: 0x6E310, offset: 0x6E310, size: 0x8, addend: 0x0, symName: __ZN5Eigen8internal15call_assignmentINS_6MatrixIfLi3ELi1ELi0ELi3ELi1EEES3_NS0_9assign_opIffEEEEvRT_RKT0_RKT1_NS0_9enable_ifIXntsr25evaluator_assume_aliasingIS8_EE5valueEPvE4typeE, symObjAddr: 0xA9C98, symBinAddr: 0x1000ADD10, symSize: 0x38 }
  - { offsetInCU: 0x6E37E, offset: 0x6E37E, size: 0x8, addend: 0x0, symName: __ZN5Eigen8internal24call_assignment_no_aliasINS_6MatrixIfLi3ELi1ELi0ELi3ELi1EEES3_NS0_9assign_opIffEEEEvRT_RKT0_RKT1_, symObjAddr: 0xA9CD0, symBinAddr: 0x1000ADD48, symSize: 0x3C }
  - { offsetInCU: 0x6E44C, offset: 0x6E44C, size: 0x8, addend: 0x0, symName: __ZN5Eigen8internal26call_dense_assignment_loopINS_6MatrixIfLi3ELi1ELi0ELi3ELi1EEES3_NS0_9assign_opIffEEEEvRT_RKT0_RKT1_, symObjAddr: 0xA9D4C, symBinAddr: 0x1000ADDC4, symSize: 0xD8 }
  - { offsetInCU: 0x6E500, offset: 0x6E500, size: 0x8, addend: 0x0, symName: __ZN5Eigen8internal17resize_if_allowedINS_6MatrixIfLi3ELi1ELi0ELi3ELi1EEES3_ffEEvRT_RKT0_RKNS0_9assign_opIT1_T2_EE, symObjAddr: 0xA9E24, symBinAddr: 0x1000ADE9C, symSize: 0xF8 }
  - { offsetInCU: 0x6F2BD, offset: 0x6F2BD, size: 0x8, addend: 0x0, symName: __ZN5EigenL6lastp1E, symObjAddr: 0x1550A36, symBinAddr: 0x1000D0021, symSize: 0x0 }
  - { offsetInCU: 0x6F2D6, offset: 0x6F2D6, size: 0x8, addend: 0x0, symName: __ZN5EigenL3allE, symObjAddr: 0x1550A39, symBinAddr: 0x1000D0024, symSize: 0x0 }
  - { offsetInCU: 0x6F2EF, offset: 0x6F2EF, size: 0x8, addend: 0x0, symName: __ZN5EigenL3fixILi1EEE, symObjAddr: 0x1550A38, symBinAddr: 0x1000D0023, symSize: 0x0 }
  - { offsetInCU: 0x6F313, offset: 0x6F313, size: 0x8, addend: 0x0, symName: __ZN5EigenL3fixILi0EEE, symObjAddr: 0x1550A3A, symBinAddr: 0x1000D0025, symSize: 0x0 }
  - { offsetInCU: 0x6F337, offset: 0x6F337, size: 0x8, addend: 0x0, symName: __ZN5EigenL3fixILi2EEE, symObjAddr: 0x1550A3B, symBinAddr: 0x1000D0026, symSize: 0x0 }
  - { offsetInCU: 0x6F35B, offset: 0x6F35B, size: 0x8, addend: 0x0, symName: __ZN5EigenL3fixILi3EEE, symObjAddr: 0x1550A3C, symBinAddr: 0x1000D0027, symSize: 0x0 }
  - { offsetInCU: 0x21F21F, offset: 0x21F21F, size: 0x8, addend: 0x0, symName: __ZN5EigenmlIiEEKNS_13CwiseBinaryOpINS_8internal17scalar_product_opINS2_18promote_scalar_argIfT_Xsr5Eigen8internal14has_ReturnTypeINS_20ScalarBinaryOpTraitsIS5_fNS3_IS5_fEEEEEE5valueEE4typeEfEEKNS2_19plain_constant_typeINS_6MatrixIfLi3ELi3ELi0ELi3ELi3EEESA_E4typeEKSE_EERKS5_RKNS_10MatrixBaseISE_EE, symObjAddr: 0x116C, symBinAddr: 0x1000051E4, symSize: 0xAC }
  - { offsetInCU: 0x21F2C1, offset: 0x21F2C1, size: 0x8, addend: 0x0, symName: __ZN5Eigen6numext8isfiniteINSt3__17complexIfEEEEbRKT_, symObjAddr: 0xBEE8, symBinAddr: 0x10000FF60, symSize: 0x28 }
  - { offsetInCU: 0x21F327, offset: 0x21F327, size: 0x8, addend: 0x0, symName: __ZN5Eigen6numext4conjIfEENS_8internal11conj_retvalINS2_36global_math_functions_filtering_baseIT_vE4typeEE4typeERKS5_, symObjAddr: 0x1195C, symBinAddr: 0x1000159D4, symSize: 0x24 }
  - { offsetInCU: 0x21F35E, offset: 0x21F35E, size: 0x8, addend: 0x0, symName: __ZN5Eigen6numext4abs2IfEENS_8internal11abs2_retvalINS2_36global_math_functions_filtering_baseIT_vE4typeEE4typeERKS5_, symObjAddr: 0x12F80, symBinAddr: 0x100016FF8, symSize: 0x24 }
  - { offsetInCU: 0x21F395, offset: 0x21F395, size: 0x8, addend: 0x0, symName: __ZN5Eigen6numext4imagIfEENS_8internal11imag_retvalINS2_36global_math_functions_filtering_baseIT_vE4typeEE4typeERKS5_, symObjAddr: 0x12FA4, symBinAddr: 0x10001701C, symSize: 0x24 }
  - { offsetInCU: 0x21F3CC, offset: 0x21F3CC, size: 0x8, addend: 0x0, symName: __ZN5Eigen6numext4realIfEENS_8internal11real_retvalINS2_36global_math_functions_filtering_baseIT_vE4typeEE4typeERKS5_, symObjAddr: 0x12FC8, symBinAddr: 0x100017040, symSize: 0x24 }
  - { offsetInCU: 0x21F469, offset: 0x21F469, size: 0x8, addend: 0x0, symName: __ZN5Eigen6numext8div_ceilIlEET_RKS2_S4_, symObjAddr: 0x62964, symBinAddr: 0x1000669DC, symSize: 0x38 }
  - { offsetInCU: 0x21F4AF, offset: 0x21F4AF, size: 0x8, addend: 0x0, symName: __ZN5Eigen6numext8isfiniteIfEEbRKT_, symObjAddr: 0x9102C, symBinAddr: 0x1000950A4, symSize: 0x28 }
  - { offsetInCU: 0x21F4E6, offset: 0x21F4E6, size: 0x8, addend: 0x0, symName: __ZN5Eigen6numext4realINSt3__17complexIfEEEENS_8internal11real_retvalINS5_36global_math_functions_filtering_baseIT_vE4typeEE4typeERKS8_, symObjAddr: 0x91054, symBinAddr: 0x1000950CC, symSize: 0x24 }
  - { offsetInCU: 0x21F51D, offset: 0x21F51D, size: 0x8, addend: 0x0, symName: __ZN5Eigen6numext4imagINSt3__17complexIfEEEENS_8internal11imag_retvalINS5_36global_math_functions_filtering_baseIT_vE4typeEE4typeERKS8_, symObjAddr: 0x91078, symBinAddr: 0x1000950F0, symSize: 0x24 }
  - { offsetInCU: 0x21F554, offset: 0x21F554, size: 0x8, addend: 0x0, symName: __ZN5Eigen6numext4abs2INSt3__17complexIfEEEENS_8internal11abs2_retvalINS5_36global_math_functions_filtering_baseIT_vE4typeEE4typeERKS8_, symObjAddr: 0x9AFD0, symBinAddr: 0x10009F048, symSize: 0x24 }
  - { offsetInCU: 0x21F58B, offset: 0x21F58B, size: 0x8, addend: 0x0, symName: __ZN5Eigen6numext8real_refINSt3__17complexIfEEEENS_8internal15real_ref_retvalINS5_36global_math_functions_filtering_baseIT_vE4typeEE4typeERS8_, symObjAddr: 0x9D260, symBinAddr: 0x1000A12D8, symSize: 0x24 }
  - { offsetInCU: 0x21F5C3, offset: 0x21F5C3, size: 0x8, addend: 0x0, symName: __ZN5EigenmlIdEEKNS_13CwiseBinaryOpINS_8internal17scalar_product_opINS2_18promote_scalar_argIfT_Xsr5Eigen8internal14has_ReturnTypeINS_20ScalarBinaryOpTraitsIS5_fNS3_IS5_fEEEEEE5valueEE4typeEfEEKNS2_19plain_constant_typeINS_6MatrixIfLi3ELi1ELi0ELi3ELi1EEESA_E4typeEKSE_EERKS5_RKNS_10MatrixBaseISE_EE, symObjAddr: 0x3568, symBinAddr: 0x1000075E0, symSize: 0xAC }
  - { offsetInCU: 0x21F711, offset: 0x21F711, size: 0x8, addend: 0x0, symName: __ZN5EigenmlIfEEKNS_13CwiseBinaryOpINS_8internal17scalar_product_opINS2_18promote_scalar_argIfT_Xsr5Eigen8internal14has_ReturnTypeINS_20ScalarBinaryOpTraitsIS5_fNS3_IS5_fEEEEEE5valueEE4typeEfEEKNS2_19plain_constant_typeINS_3MapINS_6MatrixIfLi1ELin1ELi1ELi1ELi3EEELi0ENS_6StrideILi0ELi0EEEEESA_E4typeEKSI_EERKS5_RKNS_10MatrixBaseISI_EE, symObjAddr: 0x17730, symBinAddr: 0x10001B7A8, symSize: 0x9C }
  - { offsetInCU: 0x21F754, offset: 0x21F754, size: 0x8, addend: 0x0, symName: __ZN5EigenmlIfEEKNS_13CwiseBinaryOpINS_8internal17scalar_product_opINS2_18promote_scalar_argIfT_Xsr5Eigen8internal14has_ReturnTypeINS_20ScalarBinaryOpTraitsIS5_fNS3_IS5_fEEEEEE5valueEE4typeEfEEKNS2_19plain_constant_typeINS_5BlockINSD_INS_6MatrixIfLi3ELi3ELi0ELi3ELi3EEELi3ELi1ELb1EEELin1ELi1ELb0EEESA_E4typeEKSH_EERKS5_RKNS_10MatrixBaseISH_EE, symObjAddr: 0x17830, symBinAddr: 0x10001B8A8, symSize: 0x9C }
  - { offsetInCU: 0x222B6B, offset: 0x222B6B, size: 0x8, addend: 0x0, symName: __ZN5EigenmlIfEEKNS_13CwiseBinaryOpINS_8internal17scalar_product_opINS2_18promote_scalar_argIfT_Xsr5Eigen8internal14has_ReturnTypeINS_20ScalarBinaryOpTraitsIS5_fNS3_IS5_fEEEEEE5valueEE4typeEfEEKNS2_19plain_constant_typeINS_3MapINS_6MatrixIfLi3ELi1ELi0ELi3ELi1EEELi0ENS_6StrideILi0ELi0EEEEESA_E4typeEKSI_EERKS5_RKNS_10MatrixBaseISI_EE, symObjAddr: 0x231B8, symBinAddr: 0x100027230, symSize: 0x9C }
  - { offsetInCU: 0x2245A2, offset: 0x2245A2, size: 0x8, addend: 0x0, symName: __ZN5EigenmlIfEEKNS_13CwiseBinaryOpINS_8internal17scalar_product_opINS2_18promote_scalar_argIfT_Xsr5Eigen8internal14has_ReturnTypeINS_20ScalarBinaryOpTraitsIS5_fNS3_IS5_fEEEEEE5valueEE4typeEfEEKNS2_19plain_constant_typeINS_3MapINS_6MatrixIfLin1ELi1ELi0ELi3ELi1EEELi0ENS_6StrideILi0ELi0EEEEESA_E4typeEKSI_EERKS5_RKNS_10MatrixBaseISI_EE, symObjAddr: 0x30AC8, symBinAddr: 0x100034B40, symSize: 0x9C }
  - { offsetInCU: 0x225FCF, offset: 0x225FCF, size: 0x8, addend: 0x0, symName: __ZN5EigenmlIfEEKNS_13CwiseBinaryOpINS_8internal17scalar_product_opINS2_18promote_scalar_argIfT_Xsr5Eigen8internal14has_ReturnTypeINS_20ScalarBinaryOpTraitsIS5_fNS3_IS5_fEEEEEE5valueEE4typeEfEEKNS2_19plain_constant_typeINS_5BlockIKNS_6MatrixIfLi3ELi3ELi0ELi3ELi3EEELin1ELi1ELb0EEESA_E4typeEKSH_EERKS5_RKNS_10MatrixBaseISH_EE, symObjAddr: 0x394C8, symBinAddr: 0x10003D540, symSize: 0x9C }
  - { offsetInCU: 0x22943F, offset: 0x22943F, size: 0x8, addend: 0x0, symName: __ZN5EigenmlINS_13CwiseBinaryOpINS_8internal17scalar_product_opIffEEKNS_14CwiseNullaryOpINS2_18scalar_constant_opIfEEKNS_6MatrixIfLi1ELin1ELi1ELi1ELi3EEEEEKNS_9TransposeIKNS_5BlockIKNSE_IKNSE_INS8_IfLi3ELi3ELi0ELi3ELi3EEELin1ELin1ELb0EEELin1ELi1ELb1EEELin1ELi1ELb0EEEEEEEEEKNS_7ProductIT_NS_14TriangularViewIKNSE_ISH_Lin1ELin1ELb0EEELj5EEELi0EEERKNS_10MatrixBaseISQ_EERKNS_18TriangularViewImplIST_Lj5ENS_5DenseEEE, symObjAddr: 0x3F564, symBinAddr: 0x1000435DC, symSize: 0x4C }
  - { offsetInCU: 0x229485, offset: 0x229485, size: 0x8, addend: 0x0, symName: __ZN5EigenmlIfEEKNS_13CwiseBinaryOpINS_8internal17scalar_product_opINS2_18promote_scalar_argIfT_Xsr5Eigen8internal14has_ReturnTypeINS_20ScalarBinaryOpTraitsIS5_fNS3_IS5_fEEEEEE5valueEE4typeEfEEKNS2_19plain_constant_typeINS_9TransposeIKNS_5BlockIKNSE_IKNSE_INS_6MatrixIfLi3ELi3ELi0ELi3ELi3EEELin1ELin1ELb0EEELin1ELi1ELb1EEELin1ELi1ELb0EEEEESA_E4typeEKSN_EERKS5_RKNS_10MatrixBaseISN_EE, symObjAddr: 0x3F5B0, symBinAddr: 0x100043628, symSize: 0x9C }
  - { offsetInCU: 0x22957A, offset: 0x22957A, size: 0x8, addend: 0x0, symName: __ZN5EigenmlIfEEKNS_13CwiseBinaryOpINS_8internal17scalar_product_opINS2_18promote_scalar_argIfT_Xsr5Eigen8internal14has_ReturnTypeINS_20ScalarBinaryOpTraitsIS5_fNS3_IS5_fEEEEEE5valueEE4typeEfEEKNS2_19plain_constant_typeINS_5BlockINSD_INS_6MatrixIfLin1ELin1ELi1ELin1ELin1EEELi1ELin1ELb1EEELi1ELin1ELb0EEESA_E4typeEKSH_EERKS5_RKNS_10MatrixBaseISH_EE, symObjAddr: 0x3FB20, symBinAddr: 0x100043B98, symSize: 0x9C }
  - { offsetInCU: 0x2295D8, offset: 0x2295D8, size: 0x8, addend: 0x0, symName: __ZN5EigenmlIfEEKNS_13CwiseBinaryOpINS_8internal17scalar_product_opINS2_18promote_scalar_argIfT_Xsr5Eigen8internal14has_ReturnTypeINS_20ScalarBinaryOpTraitsIS5_fNS3_IS5_fEEEEEE5valueEE4typeEfEEKNS2_19plain_constant_typeINS_5BlockIKNS_9TransposeIKNS1_INS3_IffEEKNS_14CwiseNullaryOpINS2_18scalar_constant_opIfEEKNS_6MatrixIfLi1ELin1ELi1ELi1ELi3EEEEEKNSE_IKNSD_IKNSD_IKNSD_INSJ_IfLi3ELi3ELi0ELi3ELi3EEELin1ELin1ELb0EEELin1ELi1ELb1EEELin1ELi1ELb0EEEEEEEEELin1ELi1ELb0EEESA_E4typeEKS11_EERKS5_RKNS_10MatrixBaseIS11_EE, symObjAddr: 0x445F4, symBinAddr: 0x10004866C, symSize: 0x9C }
  - { offsetInCU: 0x22977F, offset: 0x22977F, size: 0x8, addend: 0x0, symName: __ZN5EigenmlIfEEKNS_13CwiseBinaryOpINS_8internal17scalar_product_opINS2_18promote_scalar_argIfT_Xsr5Eigen8internal14has_ReturnTypeINS_20ScalarBinaryOpTraitsIS5_fNS3_IS5_fEEEEEE5valueEE4typeEfEEKNS2_19plain_constant_typeINS_5BlockINS_6MatrixIfLi3ELi3ELi0ELi3ELi3EEELin1ELin1ELb0EEESA_E4typeEKSG_EERKS5_RKNS_10MatrixBaseISG_EE, symObjAddr: 0x50DF0, symBinAddr: 0x100054E68, symSize: 0x9C }
  - { offsetInCU: 0x2297C2, offset: 0x2297C2, size: 0x8, addend: 0x0, symName: __ZN5EigenmlIfEEKNS_13CwiseBinaryOpINS_8internal17scalar_product_opINS2_18promote_scalar_argIfT_Xsr5Eigen8internal14has_ReturnTypeINS_20ScalarBinaryOpTraitsIS5_fNS3_IS5_fEEEEEE5valueEE4typeEfEEKNS2_19plain_constant_typeINS_6MatrixIfLin1ELin1ELi0ELi3ELi3EEESA_E4typeEKSE_EERKS5_RKNS_10MatrixBaseISE_EE, symObjAddr: 0x69528, symBinAddr: 0x10006D5A0, symSize: 0x9C }
  - { offsetInCU: 0x2299EE, offset: 0x2299EE, size: 0x8, addend: 0x0, symName: __ZN5EigenmlIfEEKNS_13CwiseBinaryOpINS_8internal17scalar_product_opINS2_18promote_scalar_argIfT_Xsr5Eigen8internal14has_ReturnTypeINS_20ScalarBinaryOpTraitsIS5_fNS3_IS5_fEEEEEE5valueEE4typeEfEEKNS2_19plain_constant_typeINS_6MatrixIfLi2ELi1ELi0ELi2ELi1EEESA_E4typeEKSE_EERKS5_RKNS_10MatrixBaseISE_EE, symObjAddr: 0x749A8, symBinAddr: 0x100078A20, symSize: 0x9C }
  - { offsetInCU: 0x22E852, offset: 0x22E852, size: 0x8, addend: 0x0, symName: __ZN5EigenmlIfEEKNS_13CwiseBinaryOpINS_8internal17scalar_product_opINS2_18promote_scalar_argIfT_Xsr5Eigen8internal14has_ReturnTypeINS_20ScalarBinaryOpTraitsIS5_fNS3_IS5_fEEEEEE5valueEE4typeEfEEKNS2_19plain_constant_typeINS_6MatrixIfLi1ELi1ELi0ELi1ELi1EEESA_E4typeEKSE_EERKS5_RKNS_10MatrixBaseISE_EE, symObjAddr: 0x84480, symBinAddr: 0x1000884F8, symSize: 0x9C }
  - { offsetInCU: 0x23576D, offset: 0x23576D, size: 0x8, addend: 0x0, symName: __ZNSt3__16fill_nB7v160006IPflfEET_S2_T0_RKT1_, symObjAddr: 0xF364, symBinAddr: 0x1000133DC, symSize: 0x44 }
  - { offsetInCU: 0x2357D0, offset: 0x2357D0, size: 0x8, addend: 0x0, symName: __ZNSt3__18__fill_nB7v160006IPflfEET_S2_T0_RKT1_, symObjAddr: 0xF400, symBinAddr: 0x100013478, symSize: 0x64 }
  - { offsetInCU: 0x235833, offset: 0x235833, size: 0x8, addend: 0x0, symName: __ZNSt3__121__convert_to_integralB7v160006El, symObjAddr: 0xF464, symBinAddr: 0x1000134DC, symSize: 0x14 }
  - { offsetInCU: 0x23585F, offset: 0x23585F, size: 0x8, addend: 0x0, symName: __ZNSt3__13minB7v160006IlEERKT_S3_S3_, symObjAddr: 0x2E0B8, symBinAddr: 0x100032130, symSize: 0x2C }
  - { offsetInCU: 0x2358A2, offset: 0x2358A2, size: 0x8, addend: 0x0, symName: __ZNSt3__13minB7v160006IlNS_6__lessIllEEEERKT_S5_S5_T0_, symObjAddr: 0x2E0E4, symBinAddr: 0x10003215C, symSize: 0x54 }
  - { offsetInCU: 0x235937, offset: 0x235937, size: 0x8, addend: 0x0, symName: __ZNSt3__13maxB7v160006IlEERKT_S3_S3_, symObjAddr: 0x3E080, symBinAddr: 0x1000420F8, symSize: 0x2C }
  - { offsetInCU: 0x23597A, offset: 0x23597A, size: 0x8, addend: 0x0, symName: __ZNSt3__13maxB7v160006IlNS_6__lessIllEEEERKT_S5_S5_T0_, symObjAddr: 0x3E32C, symBinAddr: 0x1000423A4, symSize: 0x54 }
  - { offsetInCU: 0x2359D4, offset: 0x2359D4, size: 0x8, addend: 0x0, symName: __ZNSt3__14realB7v160006IfEET_RKNS_7complexIS1_EE, symObjAddr: 0x91120, symBinAddr: 0x100095198, symSize: 0x24 }
  - { offsetInCU: 0x235A0B, offset: 0x235A0B, size: 0x8, addend: 0x0, symName: __ZNSt3__14imagB7v160006IfEET_RKNS_7complexIS1_EE, symObjAddr: 0x91168, symBinAddr: 0x1000951E0, symSize: 0x24 }
  - { offsetInCU: 0x235A42, offset: 0x235A42, size: 0x8, addend: 0x0, symName: __ZNSt3__13maxB7v160006IfEERKT_S3_S3_, symObjAddr: 0x911A4, symBinAddr: 0x10009521C, symSize: 0x2C }
  - { offsetInCU: 0x235A85, offset: 0x235A85, size: 0x8, addend: 0x0, symName: __ZNSt3__13maxB7v160006IfNS_6__lessIffEEEERKT_S5_S5_T0_, symObjAddr: 0x911D0, symBinAddr: 0x100095248, symSize: 0x54 }
  - { offsetInCU: 0x235B1A, offset: 0x235B1A, size: 0x8, addend: 0x0, symName: __ZNSt3__1dvB7v160006IfEENS_7complexIT_EERKS3_S5_, symObjAddr: 0x914F4, symBinAddr: 0x10009556C, symSize: 0x3DC }
  - { offsetInCU: 0x235BE5, offset: 0x235BE5, size: 0x8, addend: 0x0, symName: __ZNSt3__116__constexpr_logbB7v160006IfEET_S1_, symObjAddr: 0x94968, symBinAddr: 0x1000989E0, symSize: 0x2C }
  - { offsetInCU: 0x235C1C, offset: 0x235C1C, size: 0x8, addend: 0x0, symName: __ZNSt3__116__constexpr_fmaxB7v160006Eff, symObjAddr: 0x94994, symBinAddr: 0x100098A0C, symSize: 0x20 }
  - { offsetInCU: 0x235C59, offset: 0x235C59, size: 0x8, addend: 0x0, symName: __ZNSt3__116__constexpr_fabsB7v160006Ef, symObjAddr: 0x949B4, symBinAddr: 0x100098A2C, symSize: 0x18 }
  - { offsetInCU: 0x235C87, offset: 0x235C87, size: 0x8, addend: 0x0, symName: __ZNSt3__120__constexpr_isfiniteB7v160006IfEENS_9enable_ifIXsr17is_floating_pointIT_EE5valueEbE4typeES2_, symObjAddr: 0x949CC, symBinAddr: 0x100098A44, symSize: 0x34 }
  - { offsetInCU: 0x235CBE, offset: 0x235CBE, size: 0x8, addend: 0x0, symName: __ZNSt3__118__constexpr_scalbnB7v160006IfEET_S1_i, symObjAddr: 0x94A00, symBinAddr: 0x100098A78, symSize: 0x34 }
  - { offsetInCU: 0x235D04, offset: 0x235D04, size: 0x8, addend: 0x0, symName: __ZNSt3__117__constexpr_isnanB7v160006IfEENS_9enable_ifIXsr17is_floating_pointIT_EE5valueEbE4typeES2_, symObjAddr: 0x94A34, symBinAddr: 0x100098AAC, symSize: 0x20 }
  - { offsetInCU: 0x235D3B, offset: 0x235D3B, size: 0x8, addend: 0x0, symName: __ZNSt3__120__constexpr_copysignB7v160006Eff, symObjAddr: 0x94A54, symBinAddr: 0x100098ACC, symSize: 0x4C }
  - { offsetInCU: 0x235D78, offset: 0x235D78, size: 0x8, addend: 0x0, symName: __ZNSt3__117__constexpr_isinfB7v160006IfEENS_9enable_ifIXsr17is_floating_pointIT_EE5valueEbE4typeES2_, symObjAddr: 0x94AA0, symBinAddr: 0x100098B18, symSize: 0x2C }
  - { offsetInCU: 0x236059, offset: 0x236059, size: 0x8, addend: 0x0, symName: _rka_iter, symObjAddr: 0x2A68, symBinAddr: 0x100006AE0, symSize: 0xABC }
  - { offsetInCU: 0x23607E, offset: 0x23607E, size: 0x8, addend: 0x0, symName: __ZZ8rka_iterE2a2, symObjAddr: 0xAC900, symBinAddr: 0x1000BDDA0, symSize: 0x0 }
  - { offsetInCU: 0x236093, offset: 0x236093, size: 0x8, addend: 0x0, symName: __ZZ8rka_iterE2a3, symObjAddr: 0xAC908, symBinAddr: 0x1000BDDA8, symSize: 0x0 }
  - { offsetInCU: 0x2360A8, offset: 0x2360A8, size: 0x8, addend: 0x0, symName: __ZZ8rka_iterE2a4, symObjAddr: 0xAC910, symBinAddr: 0x1000BDDB0, symSize: 0x0 }
  - { offsetInCU: 0x2360BD, offset: 0x2360BD, size: 0x8, addend: 0x0, symName: __ZZ8rka_iterE2a5, symObjAddr: 0xAC918, symBinAddr: 0x1000BDDB8, symSize: 0x0 }
  - { offsetInCU: 0x2360D2, offset: 0x2360D2, size: 0x8, addend: 0x0, symName: __ZZ8rka_iterE2a6, symObjAddr: 0xAC920, symBinAddr: 0x1000BDDC0, symSize: 0x0 }
  - { offsetInCU: 0x2360E7, offset: 0x2360E7, size: 0x8, addend: 0x0, symName: __ZZ8rka_iterE3b21, symObjAddr: 0xAC928, symBinAddr: 0x1000BDDC8, symSize: 0x0 }
  - { offsetInCU: 0x2360FC, offset: 0x2360FC, size: 0x8, addend: 0x0, symName: __ZZ8rka_iterE3b31, symObjAddr: 0xAC930, symBinAddr: 0x1000BDDD0, symSize: 0x0 }
  - { offsetInCU: 0x236111, offset: 0x236111, size: 0x8, addend: 0x0, symName: __ZZ8rka_iterE3b32, symObjAddr: 0xAC938, symBinAddr: 0x1000BDDD8, symSize: 0x0 }
  - { offsetInCU: 0x236126, offset: 0x236126, size: 0x8, addend: 0x0, symName: __ZZ8rka_iterE3b41, symObjAddr: 0xAC940, symBinAddr: 0x1000BDDE0, symSize: 0x0 }
  - { offsetInCU: 0x23613B, offset: 0x23613B, size: 0x8, addend: 0x0, symName: __ZZ8rka_iterE3b42, symObjAddr: 0xAC948, symBinAddr: 0x1000BDDE8, symSize: 0x0 }
  - { offsetInCU: 0x236150, offset: 0x236150, size: 0x8, addend: 0x0, symName: __ZZ8rka_iterE3b43, symObjAddr: 0xAC950, symBinAddr: 0x1000BDDF0, symSize: 0x0 }
  - { offsetInCU: 0x236165, offset: 0x236165, size: 0x8, addend: 0x0, symName: __ZZ8rka_iterE3b51, symObjAddr: 0xAC958, symBinAddr: 0x1000BDDF8, symSize: 0x0 }
  - { offsetInCU: 0x23617A, offset: 0x23617A, size: 0x8, addend: 0x0, symName: __ZZ8rka_iterE3b52, symObjAddr: 0xAC960, symBinAddr: 0x1000BDE00, symSize: 0x0 }
  - { offsetInCU: 0x23618F, offset: 0x23618F, size: 0x8, addend: 0x0, symName: __ZZ8rka_iterE3b53, symObjAddr: 0xAC968, symBinAddr: 0x1000BDE08, symSize: 0x0 }
  - { offsetInCU: 0x2361A4, offset: 0x2361A4, size: 0x8, addend: 0x0, symName: __ZZ8rka_iterE3b54, symObjAddr: 0xAC970, symBinAddr: 0x1000BDE10, symSize: 0x0 }
  - { offsetInCU: 0x2361B9, offset: 0x2361B9, size: 0x8, addend: 0x0, symName: __ZZ8rka_iterE3b61, symObjAddr: 0xAC978, symBinAddr: 0x1000BDE18, symSize: 0x0 }
  - { offsetInCU: 0x2361CE, offset: 0x2361CE, size: 0x8, addend: 0x0, symName: __ZZ8rka_iterE3b62, symObjAddr: 0xAC980, symBinAddr: 0x1000BDE20, symSize: 0x0 }
  - { offsetInCU: 0x2361E3, offset: 0x2361E3, size: 0x8, addend: 0x0, symName: __ZZ8rka_iterE3b63, symObjAddr: 0xAC988, symBinAddr: 0x1000BDE28, symSize: 0x0 }
  - { offsetInCU: 0x2361F8, offset: 0x2361F8, size: 0x8, addend: 0x0, symName: __ZZ8rka_iterE3b64, symObjAddr: 0xAC990, symBinAddr: 0x1000BDE30, symSize: 0x0 }
  - { offsetInCU: 0x23620D, offset: 0x23620D, size: 0x8, addend: 0x0, symName: __ZZ8rka_iterE3b65, symObjAddr: 0xAC998, symBinAddr: 0x1000BDE38, symSize: 0x0 }
  - { offsetInCU: 0x236222, offset: 0x236222, size: 0x8, addend: 0x0, symName: __ZZ8rka_iterE2c1, symObjAddr: 0xAC9A0, symBinAddr: 0x1000BDE40, symSize: 0x0 }
  - { offsetInCU: 0x236237, offset: 0x236237, size: 0x8, addend: 0x0, symName: __ZZ8rka_iterE2c3, symObjAddr: 0xAC9A8, symBinAddr: 0x1000BDE48, symSize: 0x0 }
  - { offsetInCU: 0x23624C, offset: 0x23624C, size: 0x8, addend: 0x0, symName: __ZZ8rka_iterE2c4, symObjAddr: 0xAC9B0, symBinAddr: 0x1000BDE50, symSize: 0x0 }
  - { offsetInCU: 0x236261, offset: 0x236261, size: 0x8, addend: 0x0, symName: __ZZ8rka_iterE2c6, symObjAddr: 0xAC9B8, symBinAddr: 0x1000BDE58, symSize: 0x0 }
  - { offsetInCU: 0x236276, offset: 0x236276, size: 0x8, addend: 0x0, symName: __ZZ8rka_iterE3cd1, symObjAddr: 0xAC9C0, symBinAddr: 0x1000BDE60, symSize: 0x0 }
  - { offsetInCU: 0x23628B, offset: 0x23628B, size: 0x8, addend: 0x0, symName: __ZZ8rka_iterE3cd3, symObjAddr: 0xAC9C8, symBinAddr: 0x1000BDE68, symSize: 0x0 }
  - { offsetInCU: 0x2362A0, offset: 0x2362A0, size: 0x8, addend: 0x0, symName: __ZZ8rka_iterE3cd4, symObjAddr: 0xAC9D0, symBinAddr: 0x1000BDE70, symSize: 0x0 }
  - { offsetInCU: 0x2362B5, offset: 0x2362B5, size: 0x8, addend: 0x0, symName: __ZZ8rka_iterE3cd5, symObjAddr: 0xAC9D8, symBinAddr: 0x1000BDE78, symSize: 0x0 }
  - { offsetInCU: 0x2362CA, offset: 0x2362CA, size: 0x8, addend: 0x0, symName: __ZZ8rka_iterE3cd6, symObjAddr: 0xAC9E0, symBinAddr: 0x1000BDE80, symSize: 0x0 }
  - { offsetInCU: 0x2364DE, offset: 0x2364DE, size: 0x8, addend: 0x0, symName: _rka_iter_double, symObjAddr: 0x3FF8, symBinAddr: 0x100008070, symSize: 0xB74 }
  - { offsetInCU: 0x236506, offset: 0x236506, size: 0x8, addend: 0x0, symName: __ZZ15rka_iter_doubleE2a2, symObjAddr: 0xAC9E8, symBinAddr: 0x1000BDE88, symSize: 0x0 }
  - { offsetInCU: 0x23651D, offset: 0x23651D, size: 0x8, addend: 0x0, symName: __ZZ15rka_iter_doubleE2a3, symObjAddr: 0xAC9F0, symBinAddr: 0x1000BDE90, symSize: 0x0 }
  - { offsetInCU: 0x236534, offset: 0x236534, size: 0x8, addend: 0x0, symName: __ZZ15rka_iter_doubleE2a4, symObjAddr: 0xAC9F8, symBinAddr: 0x1000BDE98, symSize: 0x0 }
  - { offsetInCU: 0x23654B, offset: 0x23654B, size: 0x8, addend: 0x0, symName: __ZZ15rka_iter_doubleE2a5, symObjAddr: 0xACA00, symBinAddr: 0x1000BDEA0, symSize: 0x0 }
  - { offsetInCU: 0x236562, offset: 0x236562, size: 0x8, addend: 0x0, symName: __ZZ15rka_iter_doubleE2a6, symObjAddr: 0xACA08, symBinAddr: 0x1000BDEA8, symSize: 0x0 }
  - { offsetInCU: 0x236579, offset: 0x236579, size: 0x8, addend: 0x0, symName: __ZZ15rka_iter_doubleE3b21, symObjAddr: 0xACA10, symBinAddr: 0x1000BDEB0, symSize: 0x0 }
  - { offsetInCU: 0x236590, offset: 0x236590, size: 0x8, addend: 0x0, symName: __ZZ15rka_iter_doubleE3b31, symObjAddr: 0xACA18, symBinAddr: 0x1000BDEB8, symSize: 0x0 }
  - { offsetInCU: 0x2365A7, offset: 0x2365A7, size: 0x8, addend: 0x0, symName: __ZZ15rka_iter_doubleE3b32, symObjAddr: 0xACA20, symBinAddr: 0x1000BDEC0, symSize: 0x0 }
  - { offsetInCU: 0x2365BE, offset: 0x2365BE, size: 0x8, addend: 0x0, symName: __ZZ15rka_iter_doubleE3b41, symObjAddr: 0xACA28, symBinAddr: 0x1000BDEC8, symSize: 0x0 }
  - { offsetInCU: 0x2365D5, offset: 0x2365D5, size: 0x8, addend: 0x0, symName: __ZZ15rka_iter_doubleE3b42, symObjAddr: 0xACA30, symBinAddr: 0x1000BDED0, symSize: 0x0 }
  - { offsetInCU: 0x2365EC, offset: 0x2365EC, size: 0x8, addend: 0x0, symName: __ZZ15rka_iter_doubleE3b43, symObjAddr: 0xACA38, symBinAddr: 0x1000BDED8, symSize: 0x0 }
  - { offsetInCU: 0x236603, offset: 0x236603, size: 0x8, addend: 0x0, symName: __ZZ15rka_iter_doubleE3b51, symObjAddr: 0xACA40, symBinAddr: 0x1000BDEE0, symSize: 0x0 }
  - { offsetInCU: 0x23661A, offset: 0x23661A, size: 0x8, addend: 0x0, symName: __ZZ15rka_iter_doubleE3b52, symObjAddr: 0xACA48, symBinAddr: 0x1000BDEE8, symSize: 0x0 }
  - { offsetInCU: 0x236631, offset: 0x236631, size: 0x8, addend: 0x0, symName: __ZZ15rka_iter_doubleE3b53, symObjAddr: 0xACA50, symBinAddr: 0x1000BDEF0, symSize: 0x0 }
  - { offsetInCU: 0x236648, offset: 0x236648, size: 0x8, addend: 0x0, symName: __ZZ15rka_iter_doubleE3b54, symObjAddr: 0xACA58, symBinAddr: 0x1000BDEF8, symSize: 0x0 }
  - { offsetInCU: 0x23665F, offset: 0x23665F, size: 0x8, addend: 0x0, symName: __ZZ15rka_iter_doubleE3b61, symObjAddr: 0xACA60, symBinAddr: 0x1000BDF00, symSize: 0x0 }
  - { offsetInCU: 0x236676, offset: 0x236676, size: 0x8, addend: 0x0, symName: __ZZ15rka_iter_doubleE3b62, symObjAddr: 0xACA68, symBinAddr: 0x1000BDF08, symSize: 0x0 }
  - { offsetInCU: 0x23668D, offset: 0x23668D, size: 0x8, addend: 0x0, symName: __ZZ15rka_iter_doubleE3b63, symObjAddr: 0xACA70, symBinAddr: 0x1000BDF10, symSize: 0x0 }
  - { offsetInCU: 0x2366A4, offset: 0x2366A4, size: 0x8, addend: 0x0, symName: __ZZ15rka_iter_doubleE3b64, symObjAddr: 0xACA78, symBinAddr: 0x1000BDF18, symSize: 0x0 }
  - { offsetInCU: 0x2366BB, offset: 0x2366BB, size: 0x8, addend: 0x0, symName: __ZZ15rka_iter_doubleE3b65, symObjAddr: 0xACA80, symBinAddr: 0x1000BDF20, symSize: 0x0 }
  - { offsetInCU: 0x2366D2, offset: 0x2366D2, size: 0x8, addend: 0x0, symName: __ZZ15rka_iter_doubleE2c1, symObjAddr: 0xACA88, symBinAddr: 0x1000BDF28, symSize: 0x0 }
  - { offsetInCU: 0x2366E9, offset: 0x2366E9, size: 0x8, addend: 0x0, symName: __ZZ15rka_iter_doubleE2c3, symObjAddr: 0xACA90, symBinAddr: 0x1000BDF30, symSize: 0x0 }
  - { offsetInCU: 0x236700, offset: 0x236700, size: 0x8, addend: 0x0, symName: __ZZ15rka_iter_doubleE2c4, symObjAddr: 0xACA98, symBinAddr: 0x1000BDF38, symSize: 0x0 }
  - { offsetInCU: 0x236717, offset: 0x236717, size: 0x8, addend: 0x0, symName: __ZZ15rka_iter_doubleE2c6, symObjAddr: 0xACAA0, symBinAddr: 0x1000BDF40, symSize: 0x0 }
  - { offsetInCU: 0x23672E, offset: 0x23672E, size: 0x8, addend: 0x0, symName: __ZZ15rka_iter_doubleE3cd1, symObjAddr: 0xACAA8, symBinAddr: 0x1000BDF48, symSize: 0x0 }
  - { offsetInCU: 0x236745, offset: 0x236745, size: 0x8, addend: 0x0, symName: __ZZ15rka_iter_doubleE3cd3, symObjAddr: 0xACAB0, symBinAddr: 0x1000BDF50, symSize: 0x0 }
  - { offsetInCU: 0x23675C, offset: 0x23675C, size: 0x8, addend: 0x0, symName: __ZZ15rka_iter_doubleE3cd4, symObjAddr: 0xACAB8, symBinAddr: 0x1000BDF58, symSize: 0x0 }
  - { offsetInCU: 0x236773, offset: 0x236773, size: 0x8, addend: 0x0, symName: __ZZ15rka_iter_doubleE3cd5, symObjAddr: 0xACAC0, symBinAddr: 0x1000BDF60, symSize: 0x0 }
  - { offsetInCU: 0x23678A, offset: 0x23678A, size: 0x8, addend: 0x0, symName: __ZZ15rka_iter_doubleE3cd6, symObjAddr: 0xACAC8, symBinAddr: 0x1000BDF68, symSize: 0x0 }
  - { offsetInCU: 0x236A77, offset: 0x236A77, size: 0x8, addend: 0x0, symName: __ZN5Eigen8internal32triangular_matrix_vector_productIlLi6EfLb0EfLb0ELi1ELi0EE3runEllPKflS4_lPflRS3_, symObjAddr: 0x4403C, symBinAddr: 0x1000480B4, symSize: 0x4C0 }
  - { offsetInCU: 0x236A97, offset: 0x236A97, size: 0x8, addend: 0x0, symName: __ZZN5Eigen8internal32triangular_matrix_vector_productIlLi6EfLb0EfLb0ELi1ELi0EE3runEllPKflS4_lPflRS3_E10PanelWidth, symObjAddr: 0xACAD0, symBinAddr: 0x1000BDF70, symSize: 0x0 }
  - { offsetInCU: 0x23D7E6, offset: 0x23D7E6, size: 0x8, addend: 0x0, symName: __ZN5Eigen8internal21dense_assignment_loopINS0_31generic_dense_assignment_kernelINS0_9evaluatorINS_6MatrixIfLi3ELi3ELi0ELi3ELi3EEEEENS3_INS_13CwiseBinaryOpINS0_13scalar_sum_opIffEEKNS7_IS9_KNS7_IS9_KNS7_INS0_17scalar_product_opIffEEKNS_14CwiseNullaryOpINS0_18scalar_constant_opIfEEKS5_EESF_EEKNS7_INS0_18scalar_quotient_opIffEEKNS7_IS9_SJ_SJ_EESH_EEEEKNS7_ISL_SJ_SH_EEEESV_EEEENS0_9assign_opIffEELi0EEELi3ELi0EE3runERS10_, symObjAddr: 0x7390, symBinAddr: 0x10000B408, symSize: 0xC0 }
  - { offsetInCU: 0x23D8AE, offset: 0x23D8AE, size: 0x8, addend: 0x0, symName: __ZN5Eigen8internal21dense_assignment_loopINS0_31generic_dense_assignment_kernelINS0_9evaluatorINS_6MatrixIfLi3ELi3ELi0ELi3ELi3EEEEENS3_INS_13CwiseBinaryOpINS0_13scalar_sum_opIffEEKNS7_IS9_KNS7_INS0_17scalar_product_opIffEEKNS_14CwiseNullaryOpINS0_18scalar_constant_opIfEEKS5_EESF_EEKNS7_INS0_18scalar_quotient_opIffEEKNS7_IS9_SJ_SJ_EESH_EEEEKNS7_ISL_SJ_SH_EEEEEENS0_9assign_opIffEELi0EEELi3ELi0EE3runERSY_, symObjAddr: 0xA3C8, symBinAddr: 0x10000E440, symSize: 0xC0 }
  - { offsetInCU: 0x23D9C0, offset: 0x23D9C0, size: 0x8, addend: 0x0, symName: __ZN5Eigen8internal18redux_vec_unrollerINS0_13scalar_max_opIffLi0EEENS0_15redux_evaluatorINS_12CwiseUnaryOpINS0_13scalar_abs_opIfEEKNS_6MatrixIfLi3ELi3ELi0ELi3ELi3EEEEEEELi0ELi1EE3runI18__simd64_float32_tEET_RKSC_RKS3_, symObjAddr: 0xE928, symBinAddr: 0x1000129A0, symSize: 0x30 }
  - { offsetInCU: 0x23DA1E, offset: 0x23DA1E, size: 0x8, addend: 0x0, symName: __ZN5Eigen8internal18redux_vec_unrollerINS0_13scalar_max_opIffLi0EEENS0_15redux_evaluatorINS_12CwiseUnaryOpINS0_13scalar_abs_opIfEEKNS_6MatrixIfLi3ELi3ELi0ELi3ELi3EEEEEEELi1ELi1EE3runI18__simd64_float32_tEET_RKSC_RKS3_, symObjAddr: 0xE958, symBinAddr: 0x1000129D0, symSize: 0x30 }
  - { offsetInCU: 0x23DA7C, offset: 0x23DA7C, size: 0x8, addend: 0x0, symName: __ZN5Eigen8internal18redux_vec_unrollerINS0_13scalar_max_opIffLi0EEENS0_15redux_evaluatorINS_12CwiseUnaryOpINS0_13scalar_abs_opIfEEKNS_6MatrixIfLi3ELi3ELi0ELi3ELi3EEEEEEELi2ELi1EE3runI18__simd64_float32_tEET_RKSC_RKS3_, symObjAddr: 0xEAF0, symBinAddr: 0x100012B68, symSize: 0x30 }
  - { offsetInCU: 0x23DADA, offset: 0x23DADA, size: 0x8, addend: 0x0, symName: __ZN5Eigen8internal18redux_vec_unrollerINS0_13scalar_max_opIffLi0EEENS0_15redux_evaluatorINS_12CwiseUnaryOpINS0_13scalar_abs_opIfEEKNS_6MatrixIfLi3ELi3ELi0ELi3ELi3EEEEEEELi3ELi1EE3runI18__simd64_float32_tEET_RKSC_RKS3_, symObjAddr: 0xEB20, symBinAddr: 0x100012B98, symSize: 0x30 }
  - { offsetInCU: 0x240319, offset: 0x240319, size: 0x8, addend: 0x0, symName: __ZN5Eigen8internal21dense_assignment_loopINS0_31generic_dense_assignment_kernelINS0_9evaluatorINS_5BlockINS4_INS4_INS_6MatrixIfLi3ELi3ELi0ELi3ELi3EEELi3ELi1ELb1EEELin1ELi1ELb0EEELin1ELi1ELb0EEEEENS3_INS_14CwiseNullaryOpINS0_18scalar_constant_opIfEENS5_IfLin1ELi1ELi0ELi3ELi1EEEEEEENS0_9assign_opIffEELi0EEELi3ELi0EE3runERSJ_, symObjAddr: 0x153F0, symBinAddr: 0x100019468, symSize: 0xC0 }
  - { offsetInCU: 0x24049A, offset: 0x24049A, size: 0x8, addend: 0x0, symName: __ZN5Eigen8internal21dense_assignment_loopINS0_31generic_dense_assignment_kernelINS0_9evaluatorINS_5BlockINS4_INS4_INS_6MatrixIfLi3ELi3ELi0ELi3ELi3EEELi3ELi1ELb1EEELin1ELi1ELb0EEELin1ELi1ELb0EEEEENS3_INS_13CwiseBinaryOpINS0_18scalar_quotient_opIffEEKNS4_IKS8_Lin1ELi1ELb0EEEKNS_14CwiseNullaryOpINS0_18scalar_constant_opIfEEKNS5_IfLin1ELi1ELi0ELi3ELi1EEEEEEEEENS0_9assign_opIffEELi0EEELi3ELi0EE3runERSS_, symObjAddr: 0x165DC, symBinAddr: 0x10001A654, symSize: 0xC0 }
  - { offsetInCU: 0x2428F2, offset: 0x2428F2, size: 0x8, addend: 0x0, symName: __ZN5Eigen8internal21dense_assignment_loopINS0_31generic_dense_assignment_kernelINS0_9evaluatorINS_6MatrixIfLin1ELi1ELi0ELi3ELi1EEEEENS3_INS_13CwiseBinaryOpINS0_17scalar_product_opIffEEKNS_14CwiseNullaryOpINS0_18scalar_constant_opIfEEKS5_EEKNS_5BlockINSG_INS4_IfLi3ELi3ELi0ELi3ELi3EEELi3ELi1ELb1EEELin1ELi1ELb0EEEEEEENS0_9assign_opIffEELi0EEELi3ELi0EE3runERSP_, symObjAddr: 0x1F9C4, symBinAddr: 0x100023A3C, symSize: 0xC0 }
  - { offsetInCU: 0x243ABF, offset: 0x243ABF, size: 0x8, addend: 0x0, symName: __ZN5Eigen8internal21dense_assignment_loopINS0_31generic_dense_assignment_kernelINS0_9evaluatorINS_5BlockINS_6MatrixIfLi3ELi3ELi0ELi3ELi3EEELi3ELin1ELb1EEEEENS3_INS_14CwiseNullaryOpINS0_18scalar_constant_opIfEENS5_IfLi3ELin1ELi0ELi3ELi3EEEEEEENS0_13mul_assign_opIffEELi0EEELi3ELi0EE3runERSH_, symObjAddr: 0x237D8, symBinAddr: 0x100027850, symSize: 0xC0 }
  - { offsetInCU: 0x2443C5, offset: 0x2443C5, size: 0x8, addend: 0x0, symName: __ZN5Eigen8internal21dense_assignment_loopINS0_31generic_dense_assignment_kernelINS0_9evaluatorINS_3MapINS_6MatrixIfLi3ELi1ELi0ELi3ELi1EEELi0ENS_6StrideILi0ELi0EEEEEEENS3_INS_7ProductINS_5BlockINSC_INS5_IfLi3ELi3ELi0ELi3ELi3EEELi3ELin1ELb1EEELi3ELin1ELb0EEENSC_INSC_ISD_Li3ELi1ELb1EEELin1ELi1ELb0EEELi1EEEEENS0_9assign_opIffEELi0EEELi3ELi0EE3runERSM_, symObjAddr: 0x25240, symBinAddr: 0x1000292B8, symSize: 0xC0 }
  - { offsetInCU: 0x245B62, offset: 0x245B62, size: 0x8, addend: 0x0, symName: __ZN5Eigen8internal21dense_assignment_loopINS0_31generic_dense_assignment_kernelINS0_9evaluatorINS_3MapINS_6MatrixIfLin1ELi1ELi0ELi3ELi1EEELi0ENS_6StrideILi0ELi0EEEEEEENS3_INS_7ProductINS_5BlockINSC_INS5_IfLi3ELi3ELi0ELi3ELi3EEELin1ELin1ELb0EEELin1ELin1ELb0EEENSC_IKSD_Lin1ELi1ELb0EEELi1EEEEENS0_9assign_opIffEELi0EEELi3ELi0EE3runERSM_, symObjAddr: 0x317F8, symBinAddr: 0x100035870, symSize: 0xC0 }
  - { offsetInCU: 0x245C75, offset: 0x245C75, size: 0x8, addend: 0x0, symName: __ZN5Eigen8internal21dense_assignment_loopINS0_31generic_dense_assignment_kernelINS0_9evaluatorINS_3MapINS_6MatrixIfLin1ELi1ELi0ELi3ELi1EEELi0ENS_6StrideILi0ELi0EEEEEEENS3_INS_5BlockINSB_INS5_IfLi3ELi3ELi0ELi3ELi3EEELin1ELin1ELb0EEELin1ELi1ELb1EEEEENS0_13add_assign_opIffEELi0EEELi3ELi0EE3runERSI_, symObjAddr: 0x34E60, symBinAddr: 0x100038ED8, symSize: 0xC0 }
  - { offsetInCU: 0x2462AB, offset: 0x2462AB, size: 0x8, addend: 0x0, symName: __ZN5Eigen8internal21dense_assignment_loopINS0_31generic_dense_assignment_kernelINS0_9evaluatorINS_5BlockINS4_INS_6MatrixIfLi3ELi3ELi0ELi3ELi3EEELin1ELin1ELb0EEELin1ELi1ELb1EEEEENS3_INS_13CwiseBinaryOpINS0_17scalar_product_opIffEEKNS_14CwiseNullaryOpINS0_18scalar_constant_opIfEEKNS5_IfLin1ELi1ELi0ELi3ELi1EEEEEKNS_3MapISG_Li0ENS_6StrideILi0ELi0EEEEEEEEENS0_13sub_assign_opIffEELi0EEELi3ELi0EE3runERST_, symObjAddr: 0x35A7C, symBinAddr: 0x100039AF4, symSize: 0xC0 }
  - { offsetInCU: 0x246373, offset: 0x246373, size: 0x8, addend: 0x0, symName: __ZN5Eigen8internal21dense_assignment_loopINS0_31generic_dense_assignment_kernelINS0_9evaluatorINS_6MatrixIfLin1ELi1ELi0ELi3ELi1EEEEENS3_INS_13CwiseBinaryOpINS0_17scalar_product_opIffEEKNS_14CwiseNullaryOpINS0_18scalar_constant_opIfEEKS5_EEKNS_3MapIS5_Li0ENS_6StrideILi0ELi0EEEEEEEEENS0_9assign_opIffEELi0EEELi3ELi0EE3runERSP_, symObjAddr: 0x373C8, symBinAddr: 0x10003B440, symSize: 0xC0 }
  - { offsetInCU: 0x24688C, offset: 0x24688C, size: 0x8, addend: 0x0, symName: __ZN5Eigen8internal21dense_assignment_loopINS0_31generic_dense_assignment_kernelINS0_9evaluatorINS_6MatrixIfLin1ELi1ELi0ELi3ELi1EEEEENS3_INS_13CwiseBinaryOpINS0_17scalar_product_opIffEEKNS_14CwiseNullaryOpINS0_18scalar_constant_opIfEEKS5_EEKNS_5BlockIKNS4_IfLi3ELi3ELi0ELi3ELi3EEELin1ELi1ELb0EEEEEEENS0_9assign_opIffEELi0EEELi3ELi0EE3runERSP_, symObjAddr: 0x3CC34, symBinAddr: 0x100040CAC, symSize: 0xC0 }
  - { offsetInCU: 0x246954, offset: 0x246954, size: 0x8, addend: 0x0, symName: __ZN5Eigen8internal21dense_assignment_loopINS0_31generic_dense_assignment_kernelINS0_9evaluatorINS_5BlockINS4_INS_6MatrixIfLi3ELi3ELi0ELi3ELi3EEELi3ELi1ELb1EEELin1ELi1ELb0EEEEENS3_INS_14CwiseNullaryOpINS0_18scalar_constant_opIfEENS5_IfLin1ELi1ELi0ELi3ELi1EEEEEEENS0_9assign_opIffEELi0EEELi3ELi0EE3runERSI_, symObjAddr: 0x3DCF8, symBinAddr: 0x100041D70, symSize: 0xC0 }
  - { offsetInCU: 0x2485D5, offset: 0x2485D5, size: 0x8, addend: 0x0, symName: __ZN5Eigen8internal21dense_assignment_loopINS0_31generic_dense_assignment_kernelINS0_9evaluatorINS_5BlockINS4_INS_6MatrixIfLin1ELin1ELi1ELin1ELin1EEELi1ELin1ELb1EEELi1ELin1ELb0EEEEENS3_INS_14CwiseNullaryOpINS0_18scalar_constant_opIfEENS5_IfLi1ELin1ELi1ELi1ELin1EEEEEEENS0_9assign_opIffEELi0EEELi3ELi0EE3runERSI_, symObjAddr: 0x43024, symBinAddr: 0x10004709C, symSize: 0xC0 }
  - { offsetInCU: 0x2491F1, offset: 0x2491F1, size: 0x8, addend: 0x0, symName: __ZN5Eigen8internal29general_matrix_vector_productIlfNS0_22const_blas_data_mapperIflLi1EEELi1ELb0EfS3_Lb0ELi1EE3runEllRKS3_S6_Pflf, symObjAddr: 0x45094, symBinAddr: 0x10004910C, symSize: 0x18CC }
  - { offsetInCU: 0x24AFEE, offset: 0x24AFEE, size: 0x8, addend: 0x0, symName: __ZN5Eigen8internal21dense_assignment_loopINS0_31generic_dense_assignment_kernelINS0_9evaluatorINS_5BlockINS_9TransposeINS4_INS4_INS_6MatrixIfLin1ELin1ELi1ELin1ELin1EEELi1ELin1ELb1EEELi1ELin1ELb0EEEEELin1ELi1ELb0EEEEENS3_INS_13CwiseBinaryOpINS0_17scalar_product_opIffEEKNS_14CwiseNullaryOpINS0_18scalar_constant_opIfEEKNS6_IfLin1ELi1ELi0ELi3ELi1EEEEEKNS4_IKNS5_IKNSD_ISF_KNSG_ISI_KNS6_IfLi1ELin1ELi1ELi1ELi3EEEEEKNS5_IKNS4_IKNS4_IKNS4_INS6_IfLi3ELi3ELi0ELi3ELi3EEELin1ELin1ELb0EEELin1ELi1ELb1EEELin1ELi1ELb0EEEEEEEEELin1ELi1ELb0EEEEEEENS0_13sub_assign_opIffEELi0EEELi3ELi0EE3runERS1A_, symObjAddr: 0x4B498, symBinAddr: 0x10004F510, symSize: 0xC0 }
  - { offsetInCU: 0x24B44E, offset: 0x24B44E, size: 0x8, addend: 0x0, symName: __ZN5Eigen8internal21dense_assignment_loopINS0_31generic_dense_assignment_kernelINS0_9evaluatorINS_5BlockINS4_INS_6MatrixIfLin1ELin1ELi1ELin1ELin1EEELi1ELin1ELb1EEELi1ELin1ELb0EEEEENS3_INS_13CwiseBinaryOpINS0_17scalar_product_opIffEEKNS_14CwiseNullaryOpINS0_18scalar_constant_opIfEEKNS5_IfLi1ELin1ELi1ELi1ELin1EEEEEKS8_EEEENS0_13add_assign_opIffEELi0EEELi3ELi0EE3runERSP_, symObjAddr: 0x4DC3C, symBinAddr: 0x100051CB4, symSize: 0xC0 }
  - { offsetInCU: 0x24BEC8, offset: 0x24BEC8, size: 0x8, addend: 0x0, symName: __ZN5Eigen8internal13gemm_pack_lhsIflNS0_22const_blas_data_mapperIflLi1EEELi12ELi4E19__simd128_float32_tLi1ELb0ELb0EEclEPfRKS3_llll, symObjAddr: 0x51AD8, symBinAddr: 0x100055B50, symSize: 0x9C0 }
  - { offsetInCU: 0x24C465, offset: 0x24C465, size: 0x8, addend: 0x0, symName: __ZN5Eigen8internal11gebp_kernelIfflNS0_16blas_data_mapperIflLi0ELi0ELi1EEELi12ELi4ELb0ELb0EEclERKS3_PKfS8_lllfllll, symObjAddr: 0x524F0, symBinAddr: 0x100056568, symSize: 0x57A0 }
  - { offsetInCU: 0x24F2D6, offset: 0x24F2D6, size: 0x8, addend: 0x0, symName: __ZN5Eigen8internal21dense_assignment_loopINS0_31generic_dense_assignment_kernelINS0_9evaluatorINS_6MatrixIfLin1ELin1ELi0ELi3ELi3EEEEENS3_INS4_IfLin1ELin1ELi0ELin1ELi3EEEEENS0_9assign_opIffEELi0EEELi3ELi0EE3runERSB_, symObjAddr: 0x62F9C, symBinAddr: 0x100067014, symSize: 0xC0 }
  - { offsetInCU: 0x24F8EC, offset: 0x24F8EC, size: 0x8, addend: 0x0, symName: __ZN5Eigen8internal13gemm_pack_lhsIflNS0_22const_blas_data_mapperIflLi0EEELi12ELi4E19__simd128_float32_tLi0ELb0ELb0EEclEPfRKS3_llll, symObjAddr: 0x65574, symBinAddr: 0x1000695EC, symSize: 0x83C }
  - { offsetInCU: 0x2508CC, offset: 0x2508CC, size: 0x8, addend: 0x0, symName: __ZN5Eigen8internal18redux_vec_unrollerINS0_13scalar_sum_opIffEENS0_15redux_evaluatorINS_12CwiseUnaryOpINS0_14scalar_abs2_opIfEEKNS_5BlockIKNS_6MatrixIfLi3ELi1ELi0ELi3ELi1EEELi2ELi1ELb0EEEEEEELi0ELi1EE3runI18__simd64_float32_tEET_RKSF_RKS3_, symObjAddr: 0x72DEC, symBinAddr: 0x100076E64, symSize: 0x30 }
  - { offsetInCU: 0x25111D, offset: 0x25111D, size: 0x8, addend: 0x0, symName: __ZN5Eigen8internal18redux_vec_unrollerINS0_13scalar_sum_opIffEENS0_15redux_evaluatorINS_13CwiseBinaryOpINS0_17scalar_product_opIffEEKNS_9TransposeIKNS_5BlockIKNS8_IKNS_6MatrixIfLi2ELi1ELi0ELi2ELi1EEEEELi1ELi2ELb1EEEEEKNS9_IKNS9_INS9_INSA_IfLi3ELi3ELi0ELi3ELi3EEELin1ELin1ELb0EEELi2ELin1ELb0EEELi2ELi1ELb1EEEEEEELi0ELi1EE3runI18__simd64_float32_tEET_RKSQ_RKS3_, symObjAddr: 0x77C3C, symBinAddr: 0x10007BCB4, symSize: 0x30 }
  - { offsetInCU: 0x251C02, offset: 0x251C02, size: 0x8, addend: 0x0, symName: __ZN5Eigen8internal21dense_assignment_loopINS0_31generic_dense_assignment_kernelINS0_9evaluatorINS_3MapINS_6MatrixIfLin1ELi1ELi0ELi3ELi1EEELi0ENS_6StrideILi0ELi0EEEEEEENS3_INS_7ProductINS_5BlockINSC_INS5_IfLi3ELi3ELi0ELi3ELi3EEELin1ELin1ELb0EEELin1ELi2ELb0EEENS5_IfLi2ELi1ELi0ELi2ELi1EEELi1EEEEENS0_9assign_opIffEELi0EEELi3ELi0EE3runERSL_, symObjAddr: 0x7AC8C, symBinAddr: 0x10007ED04, symSize: 0xC0 }
  - { offsetInCU: 0x25365B, offset: 0x25365B, size: 0x8, addend: 0x0, symName: __ZN5Eigen8internal21dense_assignment_loopINS0_31generic_dense_assignment_kernelINS0_9evaluatorINS_3MapINS_6MatrixIfLin1ELi1ELi0ELi3ELi1EEELi0ENS_6StrideILi0ELi0EEEEEEENS3_INS_7ProductINS_5BlockINSC_INS5_IfLi3ELi3ELi0ELi3ELi3EEELin1ELin1ELb0EEELin1ELi1ELb0EEENS5_IfLi1ELi1ELi0ELi1ELi1EEELi1EEEEENS0_9assign_opIffEELi0EEELi3ELi0EE3runERSL_, symObjAddr: 0x8B32C, symBinAddr: 0x10008F3A4, symSize: 0xC0 }
  - { offsetInCU: 0x253C32, offset: 0x253C32, size: 0x8, addend: 0x0, symName: __ZN5Eigen8internal21dense_assignment_loopINS0_31generic_dense_assignment_kernelINS0_9evaluatorINS_5BlockINS4_INS_6MatrixIfLi3ELi3ELi0ELi3ELi3EEELin1ELin1ELb0EEELin1ELi1ELb0EEEEENS3_INS_7ProductINS_13CwiseBinaryOpINS0_17scalar_product_opIffEEKNS_14CwiseNullaryOpINS0_18scalar_constant_opIfEEKNS5_IfLin1ELi1ELi0ELi3ELi1EEEEEKNS_3MapISH_Li0ENS_6StrideILi0ELi0EEEEEEENS_9TransposeIKNS5_IfLi1ELi1ELi0ELi1ELi1EEEEELi1EEEEENS0_13sub_assign_opIffEELi0EEELi3ELi0EE3runERSZ_, symObjAddr: 0x8E454, symBinAddr: 0x1000924CC, symSize: 0xC0 }
  - { offsetInCU: 0x254533, offset: 0x254533, size: 0x8, addend: 0x0, symName: __ZN5Eigen8internal21dense_assignment_loopINS0_31generic_dense_assignment_kernelINS0_9evaluatorINS_5BlockINS4_INS_6MatrixIfLi3ELi3ELi0ELi3ELi3EEELi3ELi1ELb1EEELin1ELi1ELb0EEEEENS3_INS_14CwiseNullaryOpINS0_18scalar_constant_opIfEENS5_IfLin1ELi1ELi0ELi3ELi1EEEEEEENS0_13div_assign_opIffEELi0EEELi3ELi0EE3runERSI_, symObjAddr: 0x945EC, symBinAddr: 0x100098664, symSize: 0xC0 }
  - { offsetInCU: 0x2547EA, offset: 0x2547EA, size: 0x8, addend: 0x0, symName: __ZN5Eigen8internal21dense_assignment_loopINS0_31generic_dense_assignment_kernelINS0_9evaluatorINS_6MatrixIfLi3ELi1ELi0ELi3ELi1EEEEENS3_INS_7ProductINS_5BlockINS4_IfLi3ELi3ELi0ELi3ELi3EEELi3ELin1ELb1EEENS8_INS8_IS9_Li3ELi1ELb1EEELin1ELi1ELb0EEELi1EEEEENS0_9assign_opIffEELi0EEELi3ELi0EE3runERSH_, symObjAddr: 0x95698, symBinAddr: 0x100099710, symSize: 0xC0 }
  - { offsetInCU: 0x255281, offset: 0x255281, size: 0x8, addend: 0x0, symName: __ZN5Eigen8internal18redux_vec_unrollerINS0_13scalar_sum_opIffEENS0_15redux_evaluatorINS_12CwiseUnaryOpINS0_14scalar_abs2_opIfEEKNS_6MatrixIfLi3ELi1ELi0ELi3ELi1EEEEEEELi0ELi1EE3runI18__simd64_float32_tEET_RKSC_RKS3_, symObjAddr: 0x9DA8C, symBinAddr: 0x1000A1B04, symSize: 0x30 }
  - { offsetInCU: 0x256D3F, offset: 0x256D3F, size: 0x8, addend: 0x0, symName: __ZN5Eigen8internal18redux_vec_unrollerINS0_13scalar_sum_opIffEENS0_15redux_evaluatorINS_13CwiseBinaryOpINS0_22scalar_conj_product_opIffEEKNS_6MatrixIfLi3ELi1ELi0ELi3ELi1EEEKNS5_INS0_18scalar_quotient_opIffEESA_KNS_14CwiseNullaryOpINS0_18scalar_constant_opIfEESA_EEEEEEEELi0ELi1EE3runI18__simd64_float32_tEET_RKSL_RKS3_, symObjAddr: 0xA8C08, symBinAddr: 0x1000ACC80, symSize: 0x30 }
  - { offsetInCU: 0x258F28, offset: 0x258F28, size: 0x8, addend: 0x0, symName: __ZN5Eigen8internal13trmv_selectorILi6ELi1EE3runINS_9TransposeIKNS_5BlockIKNS5_INS_6MatrixIfLi3ELi3ELi0ELi3ELi3EEELin1ELin1ELb0EEELin1ELin1ELb0EEEEENS4_IKNS_13CwiseBinaryOpINS0_17scalar_product_opIffEEKNS_14CwiseNullaryOpINS0_18scalar_constant_opIfEEKNS6_IfLi1ELin1ELi1ELi1ELi3EEEEEKNS4_IKNS5_IKNS5_IS9_Lin1ELi1ELb1EEELin1ELi1ELb0EEEEEEEEENS4_INS5_INS5_INS6_IfLin1ELin1ELi1ELin1ELin1EEELi1ELin1ELb1EEELi1ELin1ELb0EEEEEEEvRKT_RKT0_RT1_RKNS16_6ScalarE, symObjAddr: 0x439E4, symBinAddr: 0x100047A5C, symSize: 0x3B8 }
  - { offsetInCU: 0x2597D3, offset: 0x2597D3, size: 0x8, addend: 0x0, symName: __ZN5Eigen8internal23triangular_product_implILi6ELb1EKNS_9TransposeIKNS_5BlockINS_6MatrixIfLi3ELi3ELi0ELi3ELi3EEELin1ELin1ELb0EEEEELb0ES6_Lb0EE3runINS4_IfLin1ELin1ELi0ELi3ELi3EEEEEvRT_RS9_RS7_RKNSD_6ScalarE, symObjAddr: 0x4F644, symBinAddr: 0x1000536BC, symSize: 0x2C0 }
  - { offsetInCU: 0x25A5E9, offset: 0x25A5E9, size: 0x8, addend: 0x0, symName: __ZN5Eigen8internal23triangular_product_implILi5ELb1EKNS_5BlockINS_6MatrixIfLi3ELi3ELi0ELi3ELi3EEELin1ELin1ELb0EEELb0ENS3_IfLin1ELin1ELi0ELi3ELi3EEELb0EE3runIS5_EEvRT_RS6_RKS7_RKNSA_6ScalarE, symObjAddr: 0x68014, symBinAddr: 0x10006C08C, symSize: 0x2A8 }
  - { offsetInCU: 0x25C390, offset: 0x25C390, size: 0x8, addend: 0x0, symName: __ZN5Eigen8internal9cast_implIfNSt3__17complexIfEEvE3runERKf, symObjAddr: 0x9A418, symBinAddr: 0x10009E490, symSize: 0x38 }
  - { offsetInCU: 0x25C45B, offset: 0x25C45B, size: 0x8, addend: 0x0, symName: __Z3powB7v160006IdfENSt3__19enable_ifIXaasr3std13is_arithmeticIT_EE5valuesr3std13is_arithmeticIT0_EE5valueENS0_9__promoteIS2_S3_vEEE4type4typeES2_S3_, symObjAddr: 0x3C74, symBinAddr: 0x100007CEC, symSize: 0x30 }
  - { offsetInCU: 0x25E6D7, offset: 0x25E6D7, size: 0x8, addend: 0x0, symName: __ZN5Eigen8symbolic10SymbolExprINS_8internal17symbolic_last_tagEEC1Ev, symObjAddr: 0x0, symBinAddr: 0x100004078, symSize: 0x2C }
  - { offsetInCU: 0x25E701, offset: 0x25E701, size: 0x8, addend: 0x0, symName: __ZNK5Eigen8symbolic8BaseExprINS0_10SymbolExprINS_8internal17symbolic_last_tagEEEEplILi1EEENS0_7AddExprIS5_NS0_9ValueExprINS3_8FixedIntIXT_EEEEEEESB_, symObjAddr: 0x2C, symBinAddr: 0x1000040A4, symSize: 0x48 }
  - { offsetInCU: 0x25E73C, offset: 0x25E73C, size: 0x8, addend: 0x0, symName: __ZNK5Eigen8internal8FixedIntILi1EEclEv, symObjAddr: 0x74, symBinAddr: 0x1000040EC, symSize: 0x10 }
  - { offsetInCU: 0x25E762, offset: 0x25E762, size: 0x8, addend: 0x0, symName: __ZN5Eigen8internal5all_tC1Ev, symObjAddr: 0x84, symBinAddr: 0x1000040FC, symSize: 0x2C }
  - { offsetInCU: 0x25E78B, offset: 0x25E78B, size: 0x8, addend: 0x0, symName: __Z2f2RKN5Eigen6MatrixIfLi3ELi1ELi0ELi3ELi1EEEdd, symObjAddr: 0xB0, symBinAddr: 0x100004128, symSize: 0xDC8 }
  - { offsetInCU: 0x25E8F4, offset: 0x25E8F4, size: 0x8, addend: 0x0, symName: __ZN5Eigen6MatrixIfLi3ELi3ELi0ELi3ELi3EEC1Ev, symObjAddr: 0xE78, symBinAddr: 0x100004EF0, symSize: 0x2C }
  - { offsetInCU: 0x25E91E, offset: 0x25E91E, size: 0x8, addend: 0x0, symName: __ZNK5Eigen15DenseCoeffsBaseINS_6MatrixIfLi3ELi1ELi0ELi3ELi1EEELi0EEclEl, symObjAddr: 0xEA4, symBinAddr: 0x100004F1C, symSize: 0xA4 }
  - { offsetInCU: 0x25E952, offset: 0x25E952, size: 0x8, addend: 0x0, symName: __ZN5Eigen9DenseBaseINS_6MatrixIfLi3ELi3ELi0ELi3ELi3EEEElsERKf, symObjAddr: 0xF48, symBinAddr: 0x100004FC0, symSize: 0x40 }
  - { offsetInCU: 0x25E989, offset: 0x25E989, size: 0x8, addend: 0x0, symName: __ZN5Eigen16CommaInitializerINS_6MatrixIfLi3ELi3ELi0ELi3ELi3EEEEcmERKf, symObjAddr: 0xF88, symBinAddr: 0x100005000, symSize: 0x1B8 }
  - { offsetInCU: 0x25E9BD, offset: 0x25E9BD, size: 0x8, addend: 0x0, symName: __ZN5Eigen16CommaInitializerINS_6MatrixIfLi3ELi3ELi0ELi3ELi3EEEED1Ev, symObjAddr: 0x1140, symBinAddr: 0x1000051B8, symSize: 0x2C }
  - { offsetInCU: 0x25E9E7, offset: 0x25E9E7, size: 0x8, addend: 0x0, symName: __ZNK5Eigen10MatrixBaseINS_13CwiseBinaryOpINS_8internal17scalar_product_opIffEEKNS_14CwiseNullaryOpINS2_18scalar_constant_opIfEEKNS_6MatrixIfLi3ELi3ELi0ELi3ELi3EEEEESA_EEEplINS1_INS2_18scalar_quotient_opIffEEKNS1_INS2_13scalar_sum_opIffEEKSD_SK_EESC_EEEEKNS1_INSI_IfNS2_6traitsIT_E6ScalarEEESK_KSP_EERKNS0_ISP_EE, symObjAddr: 0x1218, symBinAddr: 0x100005290, symSize: 0x60 }
  - { offsetInCU: 0x25EA24, offset: 0x25EA24, size: 0x8, addend: 0x0, symName: __ZNK5Eigen10MatrixBaseINS_13CwiseBinaryOpINS_8internal17scalar_product_opIffEEKNS_14CwiseNullaryOpINS2_18scalar_constant_opIfEEKNS_6MatrixIfLi3ELi3ELi0ELi3ELi3EEEEESA_EEEplISD_EEKNS1_INS2_13scalar_sum_opIfNS2_6traitsIT_E6ScalarEEEKSD_KSI_EERKNS0_ISI_EE, symObjAddr: 0x1278, symBinAddr: 0x1000052F0, symSize: 0x60 }
  - { offsetInCU: 0x25EA66, offset: 0x25EA66, size: 0x8, addend: 0x0, symName: __ZNK5Eigen10MatrixBaseINS_13CwiseBinaryOpINS_8internal13scalar_sum_opIffEEKNS1_INS2_17scalar_product_opIffEEKNS_14CwiseNullaryOpINS2_18scalar_constant_opIfEEKNS_6MatrixIfLi3ELi3ELi0ELi3ELi3EEEEESC_EESG_EEEdvIdEEKNS1_INS2_18scalar_quotient_opIfNS2_18promote_scalar_argIfT_Xsr5Eigen8internal14has_ReturnTypeINS_20ScalarBinaryOpTraitsIfSM_NSK_IfSM_EEEEEE5valueEE4typeEEEKSH_KNS2_19plain_constant_typeISH_SR_E4typeEEERKSM_, symObjAddr: 0x12D8, symBinAddr: 0x100005350, symSize: 0xB8 }
  - { offsetInCU: 0x25EAA3, offset: 0x25EAA3, size: 0x8, addend: 0x0, symName: __ZNK5Eigen10MatrixBaseINS_13CwiseBinaryOpINS_8internal13scalar_sum_opIffEEKNS1_INS2_17scalar_product_opIffEEKNS_14CwiseNullaryOpINS2_18scalar_constant_opIfEEKNS_6MatrixIfLi3ELi3ELi0ELi3ELi3EEEEESC_EEKNS1_INS2_18scalar_quotient_opIffEEKNS1_IS4_SG_SG_EESE_EEEEEplINS1_ISI_SG_SE_EEEEKNS1_INS3_IfNS2_6traitsIT_E6ScalarEEEKSN_KSS_EERKNS0_ISS_EE, symObjAddr: 0x1390, symBinAddr: 0x100005408, symSize: 0x60 }
  - { offsetInCU: 0x25EAE0, offset: 0x25EAE0, size: 0x8, addend: 0x0, symName: __ZNK5Eigen10MatrixBaseINS_13CwiseBinaryOpINS_8internal17scalar_product_opIffEEKNS_14CwiseNullaryOpINS2_18scalar_constant_opIfEEKNS_6MatrixIfLi3ELi3ELi0ELi3ELi3EEEEESA_EEEdvIdEEKNS1_INS2_18scalar_quotient_opIfNS2_18promote_scalar_argIfT_Xsr5Eigen8internal14has_ReturnTypeINS_20ScalarBinaryOpTraitsIfSI_NSG_IfSI_EEEEEE5valueEE4typeEEEKSD_KNS2_19plain_constant_typeISD_SN_E4typeEEERKSI_, symObjAddr: 0x13F0, symBinAddr: 0x100005468, symSize: 0xB8 }
  - { offsetInCU: 0x25EB1D, offset: 0x25EB1D, size: 0x8, addend: 0x0, symName: __ZNK5Eigen10MatrixBaseINS_13CwiseBinaryOpINS_8internal13scalar_sum_opIffEEKNS1_IS4_KNS1_INS2_17scalar_product_opIffEEKNS_14CwiseNullaryOpINS2_18scalar_constant_opIfEEKNS_6MatrixIfLi3ELi3ELi0ELi3ELi3EEEEESC_EEKNS1_INS2_18scalar_quotient_opIffEEKNS1_IS4_SG_SG_EESE_EEEEKNS1_ISI_SG_SE_EEEEEplISR_EEKNS1_INS3_IfNS2_6traitsIT_E6ScalarEEEKSR_KSV_EERKNS0_ISV_EE, symObjAddr: 0x14A8, symBinAddr: 0x100005520, symSize: 0x60 }
  - { offsetInCU: 0x25EB5F, offset: 0x25EB5F, size: 0x8, addend: 0x0, symName: __ZN5Eigen6MatrixIfLi3ELi3ELi0ELi3ELi3EEC1INS_13CwiseBinaryOpINS_8internal13scalar_sum_opIffEEKNS3_IS6_KNS3_IS6_KNS3_INS4_17scalar_product_opIffEEKNS_14CwiseNullaryOpINS4_18scalar_constant_opIfEEKS1_EESC_EEKNS3_INS4_18scalar_quotient_opIffEEKNS3_IS6_SG_SG_EESE_EEEEKNS3_ISI_SG_SE_EEEESS_EEEERKNS_9EigenBaseIT_EE, symObjAddr: 0x1508, symBinAddr: 0x100005580, symSize: 0x34 }
  - { offsetInCU: 0x25EBA0, offset: 0x25EBA0, size: 0x8, addend: 0x0, symName: __Z1fRKN5Eigen6MatrixIfLi3ELi1ELi0ELi3ELi1EEE, symObjAddr: 0x153C, symBinAddr: 0x1000055B4, symSize: 0x720 }
  - { offsetInCU: 0x25EC69, offset: 0x25EC69, size: 0x8, addend: 0x0, symName: __ZN5Eigen6MatrixIfLi3ELi3ELi0ELi3ELi3EEC1INS_13CwiseBinaryOpINS_8internal13scalar_sum_opIffEEKNS3_IS6_KNS3_INS4_17scalar_product_opIffEEKNS_14CwiseNullaryOpINS4_18scalar_constant_opIfEEKS1_EESC_EEKNS3_INS4_18scalar_quotient_opIffEEKNS3_IS6_SG_SG_EESE_EEEEKNS3_ISI_SG_SE_EEEEEERKNS_9EigenBaseIT_EE, symObjAddr: 0x1C5C, symBinAddr: 0x100005CD4, symSize: 0x34 }
  - { offsetInCU: 0x25ECAA, offset: 0x25ECAA, size: 0x8, addend: 0x0, symName: __Z15eigen_solve_valN5Eigen6MatrixIfLi3ELi3ELi0ELi3ELi3EEEi, symObjAddr: 0x1C90, symBinAddr: 0x100005D08, symSize: 0x14C }
  - { offsetInCU: 0x25ED5C, offset: 0x25ED5C, size: 0x8, addend: 0x0, symName: __ZN5Eigen11EigenSolverINS_6MatrixIfLi3ELi3ELi0ELi3ELi3EEEEC1IS2_EERKNS_9EigenBaseIT_EEb, symObjAddr: 0x1DDC, symBinAddr: 0x100005E54, symSize: 0x48 }
  - { offsetInCU: 0x25EDAB, offset: 0x25EDAB, size: 0x8, addend: 0x0, symName: __ZNK5Eigen11EigenSolverINS_6MatrixIfLi3ELi3ELi0ELi3ELi3EEEE11eigenvaluesEv, symObjAddr: 0x1E24, symBinAddr: 0x100005E9C, symSize: 0x7C }
  - { offsetInCU: 0x25EDD1, offset: 0x25EDD1, size: 0x8, addend: 0x0, symName: __ZN5Eigen6MatrixINSt3__17complexIfEELi3ELi1ELi0ELi3ELi1EEC1ERKS4_, symObjAddr: 0x1EA0, symBinAddr: 0x100005F18, symSize: 0x34 }
  - { offsetInCU: 0x25EE0A, offset: 0x25EE0A, size: 0x8, addend: 0x0, symName: __ZN5Eigen15DenseCoeffsBaseINS_6MatrixINSt3__17complexIfEELi3ELi1ELi0ELi3ELi1EEELi1EEixEl, symObjAddr: 0x1ED4, symBinAddr: 0x100005F4C, symSize: 0xA4 }
  - { offsetInCU: 0x25EE3F, offset: 0x25EE3F, size: 0x8, addend: 0x0, symName: __ZNKSt3__17complexIfE4realB7v160006Ev, symObjAddr: 0x1F78, symBinAddr: 0x100005FF0, symSize: 0x18 }
  - { offsetInCU: 0x25EE65, offset: 0x25EE65, size: 0x8, addend: 0x0, symName: __ZN5Eigen15DenseCoeffsBaseINS_6MatrixINSt3__17complexIfEELi3ELi1ELi0ELi3ELi1EEELi1EEclEl, symObjAddr: 0x1F90, symBinAddr: 0x100006008, symSize: 0xA4 }
  - { offsetInCU: 0x25EE99, offset: 0x25EE99, size: 0x8, addend: 0x0, symName: __Z11eigen_solveN5Eigen6MatrixIfLi3ELi3ELi0ELi3ELi3EEEi, symObjAddr: 0x2034, symBinAddr: 0x1000060AC, symSize: 0x27C }
  - { offsetInCU: 0x25EF69, offset: 0x25EF69, size: 0x8, addend: 0x0, symName: __ZNK5Eigen11EigenSolverINS_6MatrixIfLi3ELi3ELi0ELi3ELi3EEEE12eigenvectorsEv, symObjAddr: 0x22B0, symBinAddr: 0x100006328, symSize: 0x360 }
  - { offsetInCU: 0x25EFFA, offset: 0x25EFFA, size: 0x8, addend: 0x0, symName: __ZN5Eigen6MatrixIfLi3ELi1ELi0ELi3ELi1EEC1Ev, symObjAddr: 0x2610, symBinAddr: 0x100006688, symSize: 0x2C }
  - { offsetInCU: 0x25F024, offset: 0x25F024, size: 0x8, addend: 0x0, symName: __ZN5Eigen9DenseBaseINS_6MatrixIfLi3ELi1ELi0ELi3ELi1EEEElsERKf, symObjAddr: 0x263C, symBinAddr: 0x1000066B4, symSize: 0x40 }
  - { offsetInCU: 0x25F05B, offset: 0x25F05B, size: 0x8, addend: 0x0, symName: __ZN5Eigen16CommaInitializerINS_6MatrixIfLi3ELi1ELi0ELi3ELi1EEEEcmERKf, symObjAddr: 0x267C, symBinAddr: 0x1000066F4, symSize: 0x1B8 }
  - { offsetInCU: 0x25F08F, offset: 0x25F08F, size: 0x8, addend: 0x0, symName: __ZN5Eigen16CommaInitializerINS_6MatrixIfLi3ELi1ELi0ELi3ELi1EEEED1Ev, symObjAddr: 0x2834, symBinAddr: 0x1000068AC, symSize: 0x2C }
  - { offsetInCU: 0x25F0B9, offset: 0x25F0B9, size: 0x8, addend: 0x0, symName: __ZN5Eigen6MatrixIfLi3ELi1ELi0ELi3ELi1EEC1EOS1_, symObjAddr: 0x2860, symBinAddr: 0x1000068D8, symSize: 0x34 }
  - { offsetInCU: 0x25F0F2, offset: 0x25F0F2, size: 0x8, addend: 0x0, symName: __ZN5Eigen9DenseBaseINS_6MatrixINSt3__17complexIfEELi3ELi3ELi0ELi3ELi3EEEE3colEl, symObjAddr: 0x2894, symBinAddr: 0x10000690C, symSize: 0x3C }
  - { offsetInCU: 0x25F127, offset: 0x25F127, size: 0x8, addend: 0x0, symName: __ZN5Eigen9DenseBaseINS_5BlockINS_6MatrixINSt3__17complexIfEELi3ELi3ELi0ELi3ELi3EEELi3ELi1ELb1EEEE4realEv, symObjAddr: 0x28D0, symBinAddr: 0x100006948, symSize: 0x4C }
  - { offsetInCU: 0x25F14D, offset: 0x25F14D, size: 0x8, addend: 0x0, symName: __ZN5Eigen6MatrixIfLi3ELi1ELi0ELi3ELi1EEaSINS_14CwiseUnaryViewINS_8internal18scalar_real_ref_opINSt3__17complexIfEEEENS_5BlockINS0_IS8_Li3ELi3ELi0ELi3ELi3EEELi3ELi1ELb1EEEEEEERS1_RKNS_9DenseBaseIT_EE, symObjAddr: 0x291C, symBinAddr: 0x100006994, symSize: 0x2C }
  - { offsetInCU: 0x25F18A, offset: 0x25F18A, size: 0x8, addend: 0x0, symName: __ZNK5Eigen10MatrixBaseINS_6MatrixIfLi3ELi1ELi0ELi3ELi1EEEEdvIfEEKNS_13CwiseBinaryOpINS_8internal18scalar_quotient_opIfNS6_18promote_scalar_argIfT_Xsr5Eigen8internal14has_ReturnTypeINS_20ScalarBinaryOpTraitsIfS9_NS7_IfS9_EEEEEE5valueEE4typeEEEKS2_KNS6_19plain_constant_typeIS2_SE_E4typeEEERKS9_, symObjAddr: 0x2948, symBinAddr: 0x1000069C0, symSize: 0xA8 }
  - { offsetInCU: 0x25F1F6, offset: 0x25F1F6, size: 0x8, addend: 0x0, symName: __ZNK5Eigen10MatrixBaseINS_6MatrixIfLi3ELi1ELi0ELi3ELi1EEEE4normEv, symObjAddr: 0x29F0, symBinAddr: 0x100006A68, symSize: 0x44 }
  - { offsetInCU: 0x25F266, offset: 0x25F266, size: 0x8, addend: 0x0, symName: __ZN5Eigen6MatrixIfLi3ELi1ELi0ELi3ELi1EEC1INS_13CwiseBinaryOpINS_8internal18scalar_quotient_opIffEEKS1_KNS_14CwiseNullaryOpINS4_18scalar_constant_opIfEES7_EEEEEERKNS_9EigenBaseIT_EE, symObjAddr: 0x2A34, symBinAddr: 0x100006AAC, symSize: 0x34 }
  - { offsetInCU: 0x25F2A8, offset: 0x25F2A8, size: 0x8, addend: 0x0, symName: __ZN5Eigen6MatrixIfLi3ELi1ELi0ELi3ELi1EEC1ERKfS3_S3_, symObjAddr: 0x3524, symBinAddr: 0x10000759C, symSize: 0x44 }
  - { offsetInCU: 0x25F2FF, offset: 0x25F2FF, size: 0x8, addend: 0x0, symName: __ZN5Eigen6MatrixIfLi3ELi3ELi0ELi3ELi3EEC1ERKS1_, symObjAddr: 0x3614, symBinAddr: 0x10000768C, symSize: 0x34 }
  - { offsetInCU: 0x25F33D, offset: 0x25F33D, size: 0x8, addend: 0x0, symName: __ZN5Eigen6MatrixIfLi3ELi1ELi0ELi3ELi1EEC1INS_13CwiseBinaryOpINS_8internal17scalar_product_opIffEEKNS_14CwiseNullaryOpINS4_18scalar_constant_opIfEEKS1_EESA_EEEERKNS_9EigenBaseIT_EE, symObjAddr: 0x3648, symBinAddr: 0x1000076C0, symSize: 0x34 }
  - { offsetInCU: 0x25F37F, offset: 0x25F37F, size: 0x8, addend: 0x0, symName: __ZNK5Eigen10MatrixBaseINS_6MatrixIfLi3ELi1ELi0ELi3ELi1EEEEplINS_13CwiseBinaryOpINS_8internal17scalar_product_opIffEEKNS_14CwiseNullaryOpINS6_18scalar_constant_opIfEEKS2_EESC_EEEEKNS5_INS6_13scalar_sum_opIfNS6_6traitsIT_E6ScalarEEESC_KSI_EERKNS0_ISI_EE, symObjAddr: 0x367C, symBinAddr: 0x1000076F4, symSize: 0x60 }
  - { offsetInCU: 0x25F3C1, offset: 0x25F3C1, size: 0x8, addend: 0x0, symName: __ZN5Eigen6MatrixIfLi3ELi1ELi0ELi3ELi1EEC1INS_13CwiseBinaryOpINS_8internal13scalar_sum_opIffEEKS1_KNS3_INS4_17scalar_product_opIffEEKNS_14CwiseNullaryOpINS4_18scalar_constant_opIfEES7_EES7_EEEEEERKNS_9EigenBaseIT_EE, symObjAddr: 0x36DC, symBinAddr: 0x100007754, symSize: 0x34 }
  - { offsetInCU: 0x25F403, offset: 0x25F403, size: 0x8, addend: 0x0, symName: __ZNK5Eigen10MatrixBaseINS_13CwiseBinaryOpINS_8internal13scalar_sum_opIffEEKNS_6MatrixIfLi3ELi1ELi0ELi3ELi1EEEKNS1_INS2_17scalar_product_opIffEEKNS_14CwiseNullaryOpINS2_18scalar_constant_opIfEES7_EES7_EEEEEplISF_EEKNS1_INS3_IfNS2_6traitsIT_E6ScalarEEEKSH_KSL_EERKNS0_ISL_EE, symObjAddr: 0x3710, symBinAddr: 0x100007788, symSize: 0x60 }
  - { offsetInCU: 0x25F445, offset: 0x25F445, size: 0x8, addend: 0x0, symName: __ZN5Eigen6MatrixIfLi3ELi1ELi0ELi3ELi1EEC1INS_13CwiseBinaryOpINS_8internal13scalar_sum_opIffEEKNS3_IS6_KS1_KNS3_INS4_17scalar_product_opIffEEKNS_14CwiseNullaryOpINS4_18scalar_constant_opIfEES7_EES7_EEEESG_EEEERKNS_9EigenBaseIT_EE, symObjAddr: 0x3770, symBinAddr: 0x1000077E8, symSize: 0x34 }
  - { offsetInCU: 0x25F487, offset: 0x25F487, size: 0x8, addend: 0x0, symName: __ZNK5Eigen10MatrixBaseINS_13CwiseBinaryOpINS_8internal13scalar_sum_opIffEEKNS1_IS4_KNS_6MatrixIfLi3ELi1ELi0ELi3ELi1EEEKNS1_INS2_17scalar_product_opIffEEKNS_14CwiseNullaryOpINS2_18scalar_constant_opIfEES7_EES7_EEEESG_EEEplISF_EEKNS1_INS3_IfNS2_6traitsIT_E6ScalarEEEKSJ_KSN_EERKNS0_ISN_EE, symObjAddr: 0x37A4, symBinAddr: 0x10000781C, symSize: 0x60 }
  - { offsetInCU: 0x25F4C9, offset: 0x25F4C9, size: 0x8, addend: 0x0, symName: __ZN5Eigen6MatrixIfLi3ELi1ELi0ELi3ELi1EEC1INS_13CwiseBinaryOpINS_8internal13scalar_sum_opIffEEKNS3_IS6_KNS3_IS6_KS1_KNS3_INS4_17scalar_product_opIffEEKNS_14CwiseNullaryOpINS4_18scalar_constant_opIfEES7_EES7_EEEESG_EESG_EEEERKNS_9EigenBaseIT_EE, symObjAddr: 0x3804, symBinAddr: 0x10000787C, symSize: 0x34 }
  - { offsetInCU: 0x25F50B, offset: 0x25F50B, size: 0x8, addend: 0x0, symName: __ZNK5Eigen10MatrixBaseINS_13CwiseBinaryOpINS_8internal13scalar_sum_opIffEEKNS1_IS4_KNS1_IS4_KNS_6MatrixIfLi3ELi1ELi0ELi3ELi1EEEKNS1_INS2_17scalar_product_opIffEEKNS_14CwiseNullaryOpINS2_18scalar_constant_opIfEES7_EES7_EEEESG_EESG_EEEplISF_EEKNS1_INS3_IfNS2_6traitsIT_E6ScalarEEEKSL_KSP_EERKNS0_ISP_EE, symObjAddr: 0x3838, symBinAddr: 0x1000078B0, symSize: 0x60 }
  - { offsetInCU: 0x25F54D, offset: 0x25F54D, size: 0x8, addend: 0x0, symName: __ZN5Eigen6MatrixIfLi3ELi1ELi0ELi3ELi1EEC1INS_13CwiseBinaryOpINS_8internal13scalar_sum_opIffEEKNS3_IS6_KNS3_IS6_KNS3_IS6_KS1_KNS3_INS4_17scalar_product_opIffEEKNS_14CwiseNullaryOpINS4_18scalar_constant_opIfEES7_EES7_EEEESG_EESG_EESG_EEEERKNS_9EigenBaseIT_EE, symObjAddr: 0x3898, symBinAddr: 0x100007910, symSize: 0x34 }
  - { offsetInCU: 0x25F58F, offset: 0x25F58F, size: 0x8, addend: 0x0, symName: __ZNK5Eigen10MatrixBaseINS_13CwiseBinaryOpINS_8internal13scalar_sum_opIffEEKNS1_IS4_KNS1_IS4_KNS1_IS4_KNS_6MatrixIfLi3ELi1ELi0ELi3ELi1EEEKNS1_INS2_17scalar_product_opIffEEKNS_14CwiseNullaryOpINS2_18scalar_constant_opIfEES7_EES7_EEEESG_EESG_EESG_EEEplISF_EEKNS1_INS3_IfNS2_6traitsIT_E6ScalarEEEKSN_KSR_EERKNS0_ISR_EE, symObjAddr: 0x38CC, symBinAddr: 0x100007944, symSize: 0x60 }
  - { offsetInCU: 0x25F5D1, offset: 0x25F5D1, size: 0x8, addend: 0x0, symName: __ZN5Eigen6MatrixIfLi3ELi1ELi0ELi3ELi1EEC1INS_13CwiseBinaryOpINS_8internal13scalar_sum_opIffEEKNS3_IS6_KNS3_IS6_KNS3_IS6_KNS3_IS6_KS1_KNS3_INS4_17scalar_product_opIffEEKNS_14CwiseNullaryOpINS4_18scalar_constant_opIfEES7_EES7_EEEESG_EESG_EESG_EESG_EEEERKNS_9EigenBaseIT_EE, symObjAddr: 0x392C, symBinAddr: 0x1000079A4, symSize: 0x34 }
  - { offsetInCU: 0x25F613, offset: 0x25F613, size: 0x8, addend: 0x0, symName: __ZNK5Eigen10MatrixBaseINS_13CwiseBinaryOpINS_8internal17scalar_product_opIffEEKNS_14CwiseNullaryOpINS2_18scalar_constant_opIfEEKNS_6MatrixIfLi3ELi1ELi0ELi3ELi1EEEEESA_EEEplISD_EEKNS1_INS2_13scalar_sum_opIfNS2_6traitsIT_E6ScalarEEEKSD_KSI_EERKNS0_ISI_EE, symObjAddr: 0x3960, symBinAddr: 0x1000079D8, symSize: 0x60 }
  - { offsetInCU: 0x25F650, offset: 0x25F650, size: 0x8, addend: 0x0, symName: __ZNK5Eigen10MatrixBaseINS_13CwiseBinaryOpINS_8internal13scalar_sum_opIffEEKNS1_INS2_17scalar_product_opIffEEKNS_14CwiseNullaryOpINS2_18scalar_constant_opIfEEKNS_6MatrixIfLi3ELi1ELi0ELi3ELi1EEEEESC_EESG_EEEplISF_EEKNS1_INS3_IfNS2_6traitsIT_E6ScalarEEEKSH_KSL_EERKNS0_ISL_EE, symObjAddr: 0x39C0, symBinAddr: 0x100007A38, symSize: 0x60 }
  - { offsetInCU: 0x25F68D, offset: 0x25F68D, size: 0x8, addend: 0x0, symName: __ZNK5Eigen10MatrixBaseINS_13CwiseBinaryOpINS_8internal13scalar_sum_opIffEEKNS1_IS4_KNS1_INS2_17scalar_product_opIffEEKNS_14CwiseNullaryOpINS2_18scalar_constant_opIfEEKNS_6MatrixIfLi3ELi1ELi0ELi3ELi1EEEEESC_EESG_EESG_EEEplISF_EEKNS1_INS3_IfNS2_6traitsIT_E6ScalarEEEKSJ_KSN_EERKNS0_ISN_EE, symObjAddr: 0x3A20, symBinAddr: 0x100007A98, symSize: 0x60 }
  - { offsetInCU: 0x25F6CA, offset: 0x25F6CA, size: 0x8, addend: 0x0, symName: __ZNK5Eigen10MatrixBaseINS_13CwiseBinaryOpINS_8internal13scalar_sum_opIffEEKNS1_IS4_KNS1_IS4_KNS1_INS2_17scalar_product_opIffEEKNS_14CwiseNullaryOpINS2_18scalar_constant_opIfEEKNS_6MatrixIfLi3ELi1ELi0ELi3ELi1EEEEESC_EESG_EESG_EESG_EEEplISF_EEKNS1_INS3_IfNS2_6traitsIT_E6ScalarEEEKSL_KSP_EERKNS0_ISP_EE, symObjAddr: 0x3A80, symBinAddr: 0x100007AF8, symSize: 0x60 }
  - { offsetInCU: 0x25F70C, offset: 0x25F70C, size: 0x8, addend: 0x0, symName: __ZN5Eigen6MatrixIfLi3ELi1ELi0ELi3ELi1EEC1INS_13CwiseBinaryOpINS_8internal13scalar_sum_opIffEEKNS3_IS6_KNS3_IS6_KNS3_IS6_KNS3_INS4_17scalar_product_opIffEEKNS_14CwiseNullaryOpINS4_18scalar_constant_opIfEEKS1_EESC_EESG_EESG_EESG_EESG_EEEERKNS_9EigenBaseIT_EE, symObjAddr: 0x3AE0, symBinAddr: 0x100007B58, symSize: 0x34 }
  - { offsetInCU: 0x25F74E, offset: 0x25F74E, size: 0x8, addend: 0x0, symName: __ZN5Eigen10MatrixBaseINS_6MatrixIfLi3ELi1ELi0ELi3ELi1EEEE5arrayEv, symObjAddr: 0x3B14, symBinAddr: 0x100007B8C, symSize: 0x34 }
  - { offsetInCU: 0x25F774, offset: 0x25F774, size: 0x8, addend: 0x0, symName: __ZNK5Eigen9ArrayBaseINS_12ArrayWrapperINS_6MatrixIfLi3ELi1ELi0ELi3ELi1EEEEEE3absEv, symObjAddr: 0x3B48, symBinAddr: 0x100007BC0, symSize: 0x4C }
  - { offsetInCU: 0x25F79A, offset: 0x25F79A, size: 0x8, addend: 0x0, symName: __ZNK5Eigen9ArrayBaseINS_12CwiseUnaryOpINS_8internal13scalar_abs_opIfEEKNS_12ArrayWrapperINS_6MatrixIfLi3ELi1ELi0ELi3ELi1EEEEEEEEgtERKf, symObjAddr: 0x3B94, symBinAddr: 0x100007C0C, symSize: 0x6C }
  - { offsetInCU: 0x25F7CE, offset: 0x25F7CE, size: 0x8, addend: 0x0, symName: __ZNK5Eigen9DenseBaseINS_13CwiseBinaryOpINS_8internal13scalar_cmp_opIffLNS2_14ComparisonNameE1EEEKNS_14CwiseNullaryOpINS2_18scalar_constant_opIfEENS_5ArrayIfLi3ELi1ELi0ELi3ELi1EEEEEKNS_12CwiseUnaryOpINS2_13scalar_abs_opIfEEKNS_12ArrayWrapperINS_6MatrixIfLi3ELi1ELi0ELi3ELi1EEEEEEEEEE3anyEv, symObjAddr: 0x3C00, symBinAddr: 0x100007C78, symSize: 0x74 }
  - { offsetInCU: 0x25F80E, offset: 0x25F80E, size: 0x8, addend: 0x0, symName: __Z3absB7v160006d, symObjAddr: 0x3CA4, symBinAddr: 0x100007D1C, symSize: 0x18 }
  - { offsetInCU: 0x25F83B, offset: 0x25F83B, size: 0x8, addend: 0x0, symName: __ZN5Eigen6MatrixIfLi3ELi1ELi0ELi3ELi1EEaSINS_13CwiseBinaryOpINS_8internal13scalar_sum_opIffEEKNS3_IS6_KNS3_IS6_KNS3_INS4_17scalar_product_opIffEEKNS_14CwiseNullaryOpINS4_18scalar_constant_opIfEEKS1_EESC_EESG_EESG_EESG_EEEERS1_RKNS_9DenseBaseIT_EE, symObjAddr: 0x3CBC, symBinAddr: 0x100007D34, symSize: 0x2C }
  - { offsetInCU: 0x25F878, offset: 0x25F878, size: 0x8, addend: 0x0, symName: __ZNK5Eigen10MatrixBaseINS_6MatrixIfLi3ELi1ELi0ELi3ELi1EEEE3dotINS_13CwiseBinaryOpINS_8internal18scalar_quotient_opIffEEKS2_KNS_14CwiseNullaryOpINS6_18scalar_constant_opIfEES9_EEEEEENS_20ScalarBinaryOpTraitsIfNS6_6traitsIT_E6ScalarENS6_17scalar_product_opIfSK_EEE10ReturnTypeERKNS0_ISI_EE, symObjAddr: 0x3CE8, symBinAddr: 0x100007D60, symSize: 0x80 }
  - { offsetInCU: 0x25F8B7, offset: 0x25F8B7, size: 0x8, addend: 0x0, symName: __ZNK5Eigen10MatrixBaseINS_6MatrixIfLi3ELi1ELi0ELi3ELi1EEEEdvIdEEKNS_13CwiseBinaryOpINS_8internal18scalar_quotient_opIfNS6_18promote_scalar_argIfT_Xsr5Eigen8internal14has_ReturnTypeINS_20ScalarBinaryOpTraitsIfS9_NS7_IfS9_EEEEEE5valueEE4typeEEEKS2_KNS6_19plain_constant_typeIS2_SE_E4typeEEERKS9_, symObjAddr: 0x3D68, symBinAddr: 0x100007DE0, symSize: 0xB8 }
  - { offsetInCU: 0x25F8F4, offset: 0x25F8F4, size: 0x8, addend: 0x0, symName: __ZN5Eigen9DenseBaseINS_6MatrixIfLi3ELi1ELi0ELi3ELi1EEEEmLERKf, symObjAddr: 0x3E20, symBinAddr: 0x100007E98, symSize: 0x8C }
  - { offsetInCU: 0x25F92B, offset: 0x25F92B, size: 0x8, addend: 0x0, symName: __ZN5Eigen10MatrixBaseINS_6MatrixIfLi3ELi1ELi0ELi3ELi1EEEEpLIS2_EERS2_RKNS0_IT_EE, symObjAddr: 0x3EAC, symBinAddr: 0x100007F24, symSize: 0x64 }
  - { offsetInCU: 0x25F96A, offset: 0x25F96A, size: 0x8, addend: 0x0, symName: __ZN5Eigen6MatrixIfLi3ELi1ELi0ELi3ELi1EEaSINS_13CwiseBinaryOpINS_8internal18scalar_quotient_opIffEEKS1_KNS_14CwiseNullaryOpINS4_18scalar_constant_opIfEES7_EEEEEERS1_RKNS_9DenseBaseIT_EE, symObjAddr: 0x3F10, symBinAddr: 0x100007F88, symSize: 0x2C }
  - { offsetInCU: 0x25F9A7, offset: 0x25F9A7, size: 0x8, addend: 0x0, symName: __ZN5Eigen15DenseCoeffsBaseINS_6MatrixIfLi3ELi1ELi0ELi3ELi1EEELi1EEclEl, symObjAddr: 0x3F3C, symBinAddr: 0x100007FB4, symSize: 0xA4 }
  - { offsetInCU: 0x25F9DB, offset: 0x25F9DB, size: 0x8, addend: 0x0, symName: __Z3absB7v160006f, symObjAddr: 0x3FE0, symBinAddr: 0x100008058, symSize: 0x18 }
  - { offsetInCU: 0x25FA08, offset: 0x25FA08, size: 0x8, addend: 0x0, symName: __ZN5Eigen6MatrixIfLi3ELi1ELi0ELi3ELi1EEaSERKS1_, symObjAddr: 0x4B6C, symBinAddr: 0x100008BE4, symSize: 0x2C }
  - { offsetInCU: 0x25FA3C, offset: 0x25FA3C, size: 0x8, addend: 0x0, symName: _main, symObjAddr: 0x4B98, symBinAddr: 0x100008C10, symSize: 0x14 }
  - { offsetInCU: 0x25FA57, offset: 0x25FA57, size: 0x8, addend: 0x0, symName: __ZN5Eigen8internal8FixedIntILi1EEC1Ev, symObjAddr: 0x4BAC, symBinAddr: 0x100008C24, symSize: 0x2C }
  - { offsetInCU: 0x25FA81, offset: 0x25FA81, size: 0x8, addend: 0x0, symName: __ZN5Eigen8internal8FixedIntILi0EEC1Ev, symObjAddr: 0x4BD8, symBinAddr: 0x100008C50, symSize: 0x2C }
  - { offsetInCU: 0x25FAAB, offset: 0x25FAAB, size: 0x8, addend: 0x0, symName: __ZN5Eigen8internal8FixedIntILi2EEC1Ev, symObjAddr: 0x4C04, symBinAddr: 0x100008C7C, symSize: 0x2C }
  - { offsetInCU: 0x25FAD5, offset: 0x25FAD5, size: 0x8, addend: 0x0, symName: __ZN5Eigen8internal8FixedIntILi3EEC1Ev, symObjAddr: 0x4C30, symBinAddr: 0x100008CA8, symSize: 0x2C }
  - { offsetInCU: 0x25FAFF, offset: 0x25FAFF, size: 0x8, addend: 0x0, symName: __ZN5Eigen8internal5all_tC2Ev, symObjAddr: 0x4C5C, symBinAddr: 0x100008CD4, symSize: 0x14 }
  - { offsetInCU: 0x25FB29, offset: 0x25FB29, size: 0x8, addend: 0x0, symName: __ZN5Eigen8symbolic10SymbolExprINS_8internal17symbolic_last_tagEEC2Ev, symObjAddr: 0x4C70, symBinAddr: 0x100008CE8, symSize: 0x14 }
  - { offsetInCU: 0x25FB53, offset: 0x25FB53, size: 0x8, addend: 0x0, symName: __ZN5Eigen8internal8FixedIntILi1EEC2Ev, symObjAddr: 0x4C84, symBinAddr: 0x100008CFC, symSize: 0x14 }
  - { offsetInCU: 0x25FB7D, offset: 0x25FB7D, size: 0x8, addend: 0x0, symName: __ZNK5Eigen8symbolic8BaseExprINS0_10SymbolExprINS_8internal17symbolic_last_tagEEEE7derivedEv, symObjAddr: 0x4C98, symBinAddr: 0x100008D10, symSize: 0x14 }
  - { offsetInCU: 0x25FBA3, offset: 0x25FBA3, size: 0x8, addend: 0x0, symName: __ZN5Eigen8symbolic9ValueExprINS_8internal8FixedIntILi1EEEEC1Ev, symObjAddr: 0x4CAC, symBinAddr: 0x100008D24, symSize: 0x2C }
  - { offsetInCU: 0x25FBCD, offset: 0x25FBCD, size: 0x8, addend: 0x0, symName: __ZN5Eigen8symbolic7AddExprINS0_10SymbolExprINS_8internal17symbolic_last_tagEEENS0_9ValueExprINS3_8FixedIntILi1EEEEEEC1ERKS5_RKS9_, symObjAddr: 0x4CD8, symBinAddr: 0x100008D50, symSize: 0x3C }
  - { offsetInCU: 0x25FC13, offset: 0x25FC13, size: 0x8, addend: 0x0, symName: __ZN5Eigen8symbolic9ValueExprINS_8internal8FixedIntILi1EEEEC2Ev, symObjAddr: 0x4D14, symBinAddr: 0x100008D8C, symSize: 0x14 }
  - { offsetInCU: 0x25FC3D, offset: 0x25FC3D, size: 0x8, addend: 0x0, symName: __ZN5Eigen8symbolic7AddExprINS0_10SymbolExprINS_8internal17symbolic_last_tagEEENS0_9ValueExprINS3_8FixedIntILi1EEEEEEC2ERKS5_RKS9_, symObjAddr: 0x4D28, symBinAddr: 0x100008DA0, symSize: 0x1C }
  - { offsetInCU: 0x25FC83, offset: 0x25FC83, size: 0x8, addend: 0x0, symName: __ZN5Eigen6MatrixIfLi3ELi3ELi0ELi3ELi3EEC2Ev, symObjAddr: 0x4D44, symBinAddr: 0x100008DBC, symSize: 0x30 }
  - { offsetInCU: 0x25FCAD, offset: 0x25FCAD, size: 0x8, addend: 0x0, symName: __ZN5Eigen15PlainObjectBaseINS_6MatrixIfLi3ELi3ELi0ELi3ELi3EEEEC2Ev, symObjAddr: 0x4D74, symBinAddr: 0x100008DEC, symSize: 0x34 }
  - { offsetInCU: 0x25FCD7, offset: 0x25FCD7, size: 0x8, addend: 0x0, symName: __ZN5Eigen15PlainObjectBaseINS_6MatrixIfLi3ELi3ELi0ELi3ELi3EEEE22_check_template_paramsEv, symObjAddr: 0x4DA8, symBinAddr: 0x100008E20, symSize: 0x4 }
  - { offsetInCU: 0x25FCEB, offset: 0x25FCEB, size: 0x8, addend: 0x0, symName: __ZN5Eigen10MatrixBaseINS_6MatrixIfLi3ELi3ELi0ELi3ELi3EEEEC2Ev, symObjAddr: 0x4DAC, symBinAddr: 0x100008E24, symSize: 0x2C }
  - { offsetInCU: 0x25FD15, offset: 0x25FD15, size: 0x8, addend: 0x0, symName: __ZN5Eigen12DenseStorageIfLi9ELi3ELi3ELi0EEC1Ev, symObjAddr: 0x4DD8, symBinAddr: 0x100008E50, symSize: 0x2C }
  - { offsetInCU: 0x25FD3F, offset: 0x25FD3F, size: 0x8, addend: 0x0, symName: __ZN5Eigen9DenseBaseINS_6MatrixIfLi3ELi3ELi0ELi3ELi3EEEEC2Ev, symObjAddr: 0x4E04, symBinAddr: 0x100008E7C, symSize: 0x14 }
  - { offsetInCU: 0x25FD69, offset: 0x25FD69, size: 0x8, addend: 0x0, symName: __ZN5Eigen12DenseStorageIfLi9ELi3ELi3ELi0EEC2Ev, symObjAddr: 0x4E18, symBinAddr: 0x100008E90, symSize: 0x2C }
  - { offsetInCU: 0x25FD93, offset: 0x25FD93, size: 0x8, addend: 0x0, symName: __ZN5Eigen8internal11plain_arrayIfLi9ELi0ELi0EEC1Ev, symObjAddr: 0x4E44, symBinAddr: 0x100008EBC, symSize: 0x2C }
  - { offsetInCU: 0x25FDBD, offset: 0x25FDBD, size: 0x8, addend: 0x0, symName: __ZN5Eigen8internal11plain_arrayIfLi9ELi0ELi0EEC2Ev, symObjAddr: 0x4E70, symBinAddr: 0x100008EE8, symSize: 0x2C }
  - { offsetInCU: 0x25FDE7, offset: 0x25FDE7, size: 0x8, addend: 0x0, symName: __ZNK5Eigen9EigenBaseINS_6MatrixIfLi3ELi1ELi0ELi3ELi1EEEE4sizeEv, symObjAddr: 0x4EA0, symBinAddr: 0x100008F18, symSize: 0x44 }
  - { offsetInCU: 0x25FE0D, offset: 0x25FE0D, size: 0x8, addend: 0x0, symName: __ZNK5Eigen15DenseCoeffsBaseINS_6MatrixIfLi3ELi1ELi0ELi3ELi1EEELi0EE5coeffEl, symObjAddr: 0x4EE4, symBinAddr: 0x100008F5C, symSize: 0x78 }
  - { offsetInCU: 0x25FE41, offset: 0x25FE41, size: 0x8, addend: 0x0, symName: __ZNK5Eigen9EigenBaseINS_6MatrixIfLi3ELi1ELi0ELi3ELi1EEEE4rowsEv, symObjAddr: 0x4F5C, symBinAddr: 0x100008FD4, symSize: 0x38 }
  - { offsetInCU: 0x25FE67, offset: 0x25FE67, size: 0x8, addend: 0x0, symName: __ZNK5Eigen9EigenBaseINS_6MatrixIfLi3ELi1ELi0ELi3ELi1EEEE4colsEv, symObjAddr: 0x4F94, symBinAddr: 0x10000900C, symSize: 0x28 }
  - { offsetInCU: 0x25FE8D, offset: 0x25FE8D, size: 0x8, addend: 0x0, symName: __ZNK5Eigen9EigenBaseINS_6MatrixIfLi3ELi1ELi0ELi3ELi1EEEE7derivedEv, symObjAddr: 0x4FBC, symBinAddr: 0x100009034, symSize: 0x14 }
  - { offsetInCU: 0x25FEB3, offset: 0x25FEB3, size: 0x8, addend: 0x0, symName: __ZNK5Eigen15PlainObjectBaseINS_6MatrixIfLi3ELi1ELi0ELi3ELi1EEEE4rowsEv, symObjAddr: 0x4FDC, symBinAddr: 0x100009054, symSize: 0x20 }
  - { offsetInCU: 0x25FED9, offset: 0x25FED9, size: 0x8, addend: 0x0, symName: __ZN5Eigen12DenseStorageIfLi3ELi3ELi1ELi0EE4rowsEv, symObjAddr: 0x4FFC, symBinAddr: 0x100009074, symSize: 0x8 }
  - { offsetInCU: 0x25FEED, offset: 0x25FEED, size: 0x8, addend: 0x0, symName: __ZNK5Eigen15PlainObjectBaseINS_6MatrixIfLi3ELi1ELi0ELi3ELi1EEEE4colsEv, symObjAddr: 0x5004, symBinAddr: 0x10000907C, symSize: 0x20 }
  - { offsetInCU: 0x25FF13, offset: 0x25FF13, size: 0x8, addend: 0x0, symName: __ZN5Eigen12DenseStorageIfLi3ELi3ELi1ELi0EE4colsEv, symObjAddr: 0x5024, symBinAddr: 0x10000909C, symSize: 0x8 }
  - { offsetInCU: 0x25FF27, offset: 0x25FF27, size: 0x8, addend: 0x0, symName: __ZN5Eigen8internal9evaluatorINS_6MatrixIfLi3ELi1ELi0ELi3ELi1EEEEC1ERKS3_, symObjAddr: 0x502C, symBinAddr: 0x1000090A4, symSize: 0x34 }
  - { offsetInCU: 0x25FF60, offset: 0x25FF60, size: 0x8, addend: 0x0, symName: __ZNK5Eigen8internal9evaluatorINS_15PlainObjectBaseINS_6MatrixIfLi3ELi1ELi0ELi3ELi1EEEEEE5coeffEl, symObjAddr: 0x5060, symBinAddr: 0x1000090D8, symSize: 0x24 }
  - { offsetInCU: 0x25FF94, offset: 0x25FF94, size: 0x8, addend: 0x0, symName: __ZN5Eigen8internal9evaluatorINS_6MatrixIfLi3ELi1ELi0ELi3ELi1EEEED1Ev, symObjAddr: 0x5084, symBinAddr: 0x1000090FC, symSize: 0x2C }
  - { offsetInCU: 0x25FFC1, offset: 0x25FFC1, size: 0x8, addend: 0x0, symName: __ZN5Eigen8internal9evaluatorINS_6MatrixIfLi3ELi1ELi0ELi3ELi1EEEEC2ERKS3_, symObjAddr: 0x50B0, symBinAddr: 0x100009128, symSize: 0x34 }
  - { offsetInCU: 0x25FFFA, offset: 0x25FFFA, size: 0x8, addend: 0x0, symName: __ZN5Eigen8internal9evaluatorINS_15PlainObjectBaseINS_6MatrixIfLi3ELi1ELi0ELi3ELi1EEEEEEC2ERKS5_, symObjAddr: 0x50E4, symBinAddr: 0x10000915C, symSize: 0x78 }
  - { offsetInCU: 0x260032, offset: 0x260032, size: 0x8, addend: 0x0, symName: __ZN5Eigen8internal14evaluator_baseINS_6MatrixIfLi3ELi1ELi0ELi3ELi1EEEEC2Ev, symObjAddr: 0x515C, symBinAddr: 0x1000091D4, symSize: 0x14 }
  - { offsetInCU: 0x26005C, offset: 0x26005C, size: 0x8, addend: 0x0, symName: __ZNK5Eigen15PlainObjectBaseINS_6MatrixIfLi3ELi1ELi0ELi3ELi1EEEE4dataEv, symObjAddr: 0x5170, symBinAddr: 0x1000091E8, symSize: 0x24 }
  - { offsetInCU: 0x260082, offset: 0x260082, size: 0x8, addend: 0x0, symName: __ZN5Eigen8internal30plainobjectbase_evaluator_dataIfLi0EEC1EPKfl, symObjAddr: 0x5194, symBinAddr: 0x10000920C, symSize: 0x3C }
  - { offsetInCU: 0x2600C8, offset: 0x2600C8, size: 0x8, addend: 0x0, symName: __ZN5Eigen8internal14evaluator_baseINS_6MatrixIfLi3ELi1ELi0ELi3ELi1EEEED2Ev, symObjAddr: 0x51D0, symBinAddr: 0x100009248, symSize: 0x14 }
  - { offsetInCU: 0x2600F2, offset: 0x2600F2, size: 0x8, addend: 0x0, symName: __ZNK5Eigen12DenseStorageIfLi3ELi3ELi1ELi0EE4dataEv, symObjAddr: 0x51E4, symBinAddr: 0x10000925C, symSize: 0x14 }
  - { offsetInCU: 0x260118, offset: 0x260118, size: 0x8, addend: 0x0, symName: __ZN5Eigen8internal30plainobjectbase_evaluator_dataIfLi0EEC2EPKfl, symObjAddr: 0x51F8, symBinAddr: 0x100009270, symSize: 0x40 }
  - { offsetInCU: 0x26015E, offset: 0x26015E, size: 0x8, addend: 0x0, symName: __ZN5Eigen8internal9evaluatorINS_6MatrixIfLi3ELi1ELi0ELi3ELi1EEEED2Ev, symObjAddr: 0x5248, symBinAddr: 0x1000092C0, symSize: 0x2C }
  - { offsetInCU: 0x26018B, offset: 0x26018B, size: 0x8, addend: 0x0, symName: __ZN5Eigen8internal9evaluatorINS_15PlainObjectBaseINS_6MatrixIfLi3ELi1ELi0ELi3ELi1EEEEEED2Ev, symObjAddr: 0x5274, symBinAddr: 0x1000092EC, symSize: 0x2C }
  - { offsetInCU: 0x2601B7, offset: 0x2601B7, size: 0x8, addend: 0x0, symName: __ZN5Eigen16CommaInitializerINS_6MatrixIfLi3ELi3ELi0ELi3ELi3EEEEC1ERS2_RKf, symObjAddr: 0x52A0, symBinAddr: 0x100009318, symSize: 0x3C }
  - { offsetInCU: 0x2601FD, offset: 0x2601FD, size: 0x8, addend: 0x0, symName: __ZN5Eigen16CommaInitializerINS_6MatrixIfLi3ELi3ELi0ELi3ELi3EEEEC2ERS2_RKf, symObjAddr: 0x52DC, symBinAddr: 0x100009354, symSize: 0xF8 }
  - { offsetInCU: 0x260243, offset: 0x260243, size: 0x8, addend: 0x0, symName: __ZNK5Eigen15PlainObjectBaseINS_6MatrixIfLi3ELi3ELi0ELi3ELi3EEEE4rowsEv, symObjAddr: 0x53D4, symBinAddr: 0x10000944C, symSize: 0x20 }
  - { offsetInCU: 0x260269, offset: 0x260269, size: 0x8, addend: 0x0, symName: __ZNK5Eigen15PlainObjectBaseINS_6MatrixIfLi3ELi3ELi0ELi3ELi3EEEE4colsEv, symObjAddr: 0x53F4, symBinAddr: 0x10000946C, symSize: 0x20 }
  - { offsetInCU: 0x26028F, offset: 0x26028F, size: 0x8, addend: 0x0, symName: __ZN5Eigen15PlainObjectBaseINS_6MatrixIfLi3ELi3ELi0ELi3ELi3EEEE8coeffRefEll, symObjAddr: 0x5414, symBinAddr: 0x10000948C, symSize: 0x60 }
  - { offsetInCU: 0x2602D1, offset: 0x2602D1, size: 0x8, addend: 0x0, symName: __ZN5Eigen12DenseStorageIfLi9ELi3ELi3ELi0EE4rowsEv, symObjAddr: 0x5474, symBinAddr: 0x1000094EC, symSize: 0x8 }
  - { offsetInCU: 0x2602E5, offset: 0x2602E5, size: 0x8, addend: 0x0, symName: __ZN5Eigen12DenseStorageIfLi9ELi3ELi3ELi0EE4colsEv, symObjAddr: 0x547C, symBinAddr: 0x1000094F4, symSize: 0x8 }
  - { offsetInCU: 0x2602F9, offset: 0x2602F9, size: 0x8, addend: 0x0, symName: __ZN5Eigen12DenseStorageIfLi9ELi3ELi3ELi0EE4dataEv, symObjAddr: 0x5484, symBinAddr: 0x1000094FC, symSize: 0x14 }
  - { offsetInCU: 0x26031F, offset: 0x26031F, size: 0x8, addend: 0x0, symName: __ZN5Eigen16CommaInitializerINS_6MatrixIfLi3ELi3ELi0ELi3ELi3EEEED2Ev, symObjAddr: 0x5498, symBinAddr: 0x100009510, symSize: 0x34 }
  - { offsetInCU: 0x260349, offset: 0x260349, size: 0x8, addend: 0x0, symName: __ZN5Eigen16CommaInitializerINS_6MatrixIfLi3ELi3ELi0ELi3ELi3EEEE8finishedEv, symObjAddr: 0x54CC, symBinAddr: 0x100009544, symSize: 0xE8 }
  - { offsetInCU: 0x26036F, offset: 0x26036F, size: 0x8, addend: 0x0, symName: __ZNK5Eigen9EigenBaseINS_6MatrixIfLi3ELi3ELi0ELi3ELi3EEEE7derivedEv, symObjAddr: 0x55B4, symBinAddr: 0x10000962C, symSize: 0x14 }
  - { offsetInCU: 0x260395, offset: 0x260395, size: 0x8, addend: 0x0, symName: __ZN5Eigen8internal18scalar_constant_opIfEC1ERKf, symObjAddr: 0x55C8, symBinAddr: 0x100009640, symSize: 0x34 }
  - { offsetInCU: 0x2603CD, offset: 0x2603CD, size: 0x8, addend: 0x0, symName: __ZN5Eigen14CwiseNullaryOpINS_8internal18scalar_constant_opIfEEKNS_6MatrixIfLi3ELi3ELi0ELi3ELi3EEEEC1EllRKS3_, symObjAddr: 0x55FC, symBinAddr: 0x100009674, symSize: 0x44 }
  - { offsetInCU: 0x260421, offset: 0x260421, size: 0x8, addend: 0x0, symName: __ZN5Eigen8internal17scalar_product_opIffEC1Ev, symObjAddr: 0x5640, symBinAddr: 0x1000096B8, symSize: 0x2C }
  - { offsetInCU: 0x26044B, offset: 0x26044B, size: 0x8, addend: 0x0, symName: __ZN5Eigen13CwiseBinaryOpINS_8internal17scalar_product_opIffEEKNS_14CwiseNullaryOpINS1_18scalar_constant_opIfEEKNS_6MatrixIfLi3ELi3ELi0ELi3ELi3EEEEES9_EC1ERSB_RS9_RKS3_, symObjAddr: 0x566C, symBinAddr: 0x1000096E4, symSize: 0x44 }
  - { offsetInCU: 0x26049F, offset: 0x26049F, size: 0x8, addend: 0x0, symName: __ZN5Eigen8internal18scalar_constant_opIfEC2ERKf, symObjAddr: 0x56B0, symBinAddr: 0x100009728, symSize: 0x24 }
  - { offsetInCU: 0x2604D7, offset: 0x2604D7, size: 0x8, addend: 0x0, symName: __ZN5Eigen14CwiseNullaryOpINS_8internal18scalar_constant_opIfEEKNS_6MatrixIfLi3ELi3ELi0ELi3ELi3EEEEC2EllRKS3_, symObjAddr: 0x56D4, symBinAddr: 0x10000974C, symSize: 0x108 }
  - { offsetInCU: 0x26052B, offset: 0x26052B, size: 0x8, addend: 0x0, symName: __ZN5Eigen10MatrixBaseINS_14CwiseNullaryOpINS_8internal18scalar_constant_opIfEEKNS_6MatrixIfLi3ELi3ELi0ELi3ELi3EEEEEEC2Ev, symObjAddr: 0x57DC, symBinAddr: 0x100009854, symSize: 0x2C }
  - { offsetInCU: 0x260555, offset: 0x260555, size: 0x8, addend: 0x0, symName: __ZN5Eigen8internal19variable_if_dynamicIlLi3EEC1El, symObjAddr: 0x5808, symBinAddr: 0x100009880, symSize: 0x34 }
  - { offsetInCU: 0x26058D, offset: 0x26058D, size: 0x8, addend: 0x0, symName: __ZN5Eigen8internal18scalar_constant_opIfEC1ERKS2_, symObjAddr: 0x583C, symBinAddr: 0x1000098B4, symSize: 0x34 }
  - { offsetInCU: 0x2605C5, offset: 0x2605C5, size: 0x8, addend: 0x0, symName: __ZN5Eigen9DenseBaseINS_14CwiseNullaryOpINS_8internal18scalar_constant_opIfEEKNS_6MatrixIfLi3ELi3ELi0ELi3ELi3EEEEEEC2Ev, symObjAddr: 0x5870, symBinAddr: 0x1000098E8, symSize: 0x14 }
  - { offsetInCU: 0x2605EF, offset: 0x2605EF, size: 0x8, addend: 0x0, symName: __ZN5Eigen8internal19variable_if_dynamicIlLi3EEC2El, symObjAddr: 0x5884, symBinAddr: 0x1000098FC, symSize: 0x64 }
  - { offsetInCU: 0x260627, offset: 0x260627, size: 0x8, addend: 0x0, symName: __ZN5Eigen8internal18scalar_constant_opIfEC2ERKS2_, symObjAddr: 0x58E8, symBinAddr: 0x100009960, symSize: 0x24 }
  - { offsetInCU: 0x26065F, offset: 0x26065F, size: 0x8, addend: 0x0, symName: __ZN5Eigen8internal17scalar_product_opIffEC2Ev, symObjAddr: 0x590C, symBinAddr: 0x100009984, symSize: 0x14 }
  - { offsetInCU: 0x260689, offset: 0x260689, size: 0x8, addend: 0x0, symName: __ZN5Eigen13CwiseBinaryOpINS_8internal17scalar_product_opIffEEKNS_14CwiseNullaryOpINS1_18scalar_constant_opIfEEKNS_6MatrixIfLi3ELi3ELi0ELi3ELi3EEEEES9_EC2ERSB_RS9_RKS3_, symObjAddr: 0x5920, symBinAddr: 0x100009998, symSize: 0xF8 }
  - { offsetInCU: 0x2606E2, offset: 0x2606E2, size: 0x8, addend: 0x0, symName: __ZN5Eigen17CwiseBinaryOpImplINS_8internal17scalar_product_opIffEEKNS_14CwiseNullaryOpINS1_18scalar_constant_opIfEEKNS_6MatrixIfLi3ELi3ELi0ELi3ELi3EEEEES9_NS_5DenseEEC2Ev, symObjAddr: 0x5A18, symBinAddr: 0x100009A90, symSize: 0x2C }
  - { offsetInCU: 0x26070E, offset: 0x26070E, size: 0x8, addend: 0x0, symName: __ZN5Eigen14CwiseNullaryOpINS_8internal18scalar_constant_opIfEEKNS_6MatrixIfLi3ELi3ELi0ELi3ELi3EEEEC1ERKS7_, symObjAddr: 0x5A44, symBinAddr: 0x100009ABC, symSize: 0x34 }
  - { offsetInCU: 0x260743, offset: 0x260743, size: 0x8, addend: 0x0, symName: __ZN5Eigen8internal17scalar_product_opIffEC1ERKS2_, symObjAddr: 0x5A78, symBinAddr: 0x100009AF0, symSize: 0x34 }
  - { offsetInCU: 0x260778, offset: 0x260778, size: 0x8, addend: 0x0, symName: __ZNK5Eigen14CwiseNullaryOpINS_8internal18scalar_constant_opIfEEKNS_6MatrixIfLi3ELi3ELi0ELi3ELi3EEEE4rowsEv, symObjAddr: 0x5AAC, symBinAddr: 0x100009B24, symSize: 0x20 }
  - { offsetInCU: 0x26079E, offset: 0x26079E, size: 0x8, addend: 0x0, symName: __ZNK5Eigen14CwiseNullaryOpINS_8internal18scalar_constant_opIfEEKNS_6MatrixIfLi3ELi3ELi0ELi3ELi3EEEE4colsEv, symObjAddr: 0x5ACC, symBinAddr: 0x100009B44, symSize: 0x20 }
  - { offsetInCU: 0x2607C4, offset: 0x2607C4, size: 0x8, addend: 0x0, symName: __ZN5Eigen10MatrixBaseINS_13CwiseBinaryOpINS_8internal17scalar_product_opIffEEKNS_14CwiseNullaryOpINS2_18scalar_constant_opIfEEKNS_6MatrixIfLi3ELi3ELi0ELi3ELi3EEEEESA_EEEC2Ev, symObjAddr: 0x5AEC, symBinAddr: 0x100009B64, symSize: 0x2C }
  - { offsetInCU: 0x2607EE, offset: 0x2607EE, size: 0x8, addend: 0x0, symName: __ZN5Eigen9DenseBaseINS_13CwiseBinaryOpINS_8internal17scalar_product_opIffEEKNS_14CwiseNullaryOpINS2_18scalar_constant_opIfEEKNS_6MatrixIfLi3ELi3ELi0ELi3ELi3EEEEESA_EEEC2Ev, symObjAddr: 0x5B18, symBinAddr: 0x100009B90, symSize: 0x14 }
  - { offsetInCU: 0x260818, offset: 0x260818, size: 0x8, addend: 0x0, symName: __ZN5Eigen14CwiseNullaryOpINS_8internal18scalar_constant_opIfEEKNS_6MatrixIfLi3ELi3ELi0ELi3ELi3EEEEC2ERKS7_, symObjAddr: 0x5B2C, symBinAddr: 0x100009BA4, symSize: 0x48 }
  - { offsetInCU: 0x26084D, offset: 0x26084D, size: 0x8, addend: 0x0, symName: __ZN5Eigen8internal17scalar_product_opIffEC2ERKS2_, symObjAddr: 0x5B74, symBinAddr: 0x100009BEC, symSize: 0x18 }
  - { offsetInCU: 0x260882, offset: 0x260882, size: 0x8, addend: 0x0, symName: __ZN5Eigen8internal19variable_if_dynamicIlLi3EE5valueEv, symObjAddr: 0x5B8C, symBinAddr: 0x100009C04, symSize: 0x8 }
  - { offsetInCU: 0x260896, offset: 0x260896, size: 0x8, addend: 0x0, symName: __ZNK5Eigen9EigenBaseINS_13CwiseBinaryOpINS_8internal17scalar_product_opIffEEKNS_14CwiseNullaryOpINS2_18scalar_constant_opIfEEKNS_6MatrixIfLi3ELi3ELi0ELi3ELi3EEEEESA_EEE7derivedEv, symObjAddr: 0x5B94, symBinAddr: 0x100009C0C, symSize: 0x14 }
  - { offsetInCU: 0x2608BC, offset: 0x2608BC, size: 0x8, addend: 0x0, symName: __ZN5Eigen8internal13scalar_sum_opIffEC1Ev, symObjAddr: 0x5BA8, symBinAddr: 0x100009C20, symSize: 0x2C }
  - { offsetInCU: 0x2608E6, offset: 0x2608E6, size: 0x8, addend: 0x0, symName: __ZN5Eigen13CwiseBinaryOpINS_8internal13scalar_sum_opIffEEKNS0_INS1_17scalar_product_opIffEEKNS_14CwiseNullaryOpINS1_18scalar_constant_opIfEEKNS_6MatrixIfLi3ELi3ELi0ELi3ELi3EEEEESB_EESF_EC1ERSF_SH_RKS3_, symObjAddr: 0x5BD4, symBinAddr: 0x100009C4C, symSize: 0x44 }
  - { offsetInCU: 0x26093A, offset: 0x26093A, size: 0x8, addend: 0x0, symName: __ZN5Eigen8internal13scalar_sum_opIffEC2Ev, symObjAddr: 0x5C18, symBinAddr: 0x100009C90, symSize: 0x14 }
  - { offsetInCU: 0x260964, offset: 0x260964, size: 0x8, addend: 0x0, symName: __ZN5Eigen13CwiseBinaryOpINS_8internal13scalar_sum_opIffEEKNS0_INS1_17scalar_product_opIffEEKNS_14CwiseNullaryOpINS1_18scalar_constant_opIfEEKNS_6MatrixIfLi3ELi3ELi0ELi3ELi3EEEEESB_EESF_EC2ERSF_SH_RKS3_, symObjAddr: 0x5C2C, symBinAddr: 0x100009CA4, symSize: 0xFC }
  - { offsetInCU: 0x2609BD, offset: 0x2609BD, size: 0x8, addend: 0x0, symName: __ZN5Eigen17CwiseBinaryOpImplINS_8internal13scalar_sum_opIffEEKNS_13CwiseBinaryOpINS1_17scalar_product_opIffEEKNS_14CwiseNullaryOpINS1_18scalar_constant_opIfEEKNS_6MatrixIfLi3ELi3ELi0ELi3ELi3EEEEESC_EESG_NS_5DenseEEC2Ev, symObjAddr: 0x5D28, symBinAddr: 0x100009DA0, symSize: 0x2C }
  - { offsetInCU: 0x2609E9, offset: 0x2609E9, size: 0x8, addend: 0x0, symName: __ZN5Eigen13CwiseBinaryOpINS_8internal17scalar_product_opIffEEKNS_14CwiseNullaryOpINS1_18scalar_constant_opIfEEKNS_6MatrixIfLi3ELi3ELi0ELi3ELi3EEEEES9_EC1ERKSC_, symObjAddr: 0x5D54, symBinAddr: 0x100009DCC, symSize: 0x34 }
  - { offsetInCU: 0x260A1E, offset: 0x260A1E, size: 0x8, addend: 0x0, symName: __ZN5Eigen8internal13scalar_sum_opIffEC1ERKS2_, symObjAddr: 0x5D88, symBinAddr: 0x100009E00, symSize: 0x34 }
  - { offsetInCU: 0x260A53, offset: 0x260A53, size: 0x8, addend: 0x0, symName: __ZNK5Eigen13CwiseBinaryOpINS_8internal17scalar_product_opIffEEKNS_14CwiseNullaryOpINS1_18scalar_constant_opIfEEKNS_6MatrixIfLi3ELi3ELi0ELi3ELi3EEEEES9_E4rowsEv, symObjAddr: 0x5DBC, symBinAddr: 0x100009E34, symSize: 0x38 }
  - { offsetInCU: 0x260A79, offset: 0x260A79, size: 0x8, addend: 0x0, symName: __ZNK5Eigen13CwiseBinaryOpINS_8internal17scalar_product_opIffEEKNS_14CwiseNullaryOpINS1_18scalar_constant_opIfEEKNS_6MatrixIfLi3ELi3ELi0ELi3ELi3EEEEES9_E4colsEv, symObjAddr: 0x5DF4, symBinAddr: 0x100009E6C, symSize: 0x28 }
  - { offsetInCU: 0x260A9F, offset: 0x260A9F, size: 0x8, addend: 0x0, symName: __ZN5Eigen10MatrixBaseINS_13CwiseBinaryOpINS_8internal13scalar_sum_opIffEEKNS1_INS2_17scalar_product_opIffEEKNS_14CwiseNullaryOpINS2_18scalar_constant_opIfEEKNS_6MatrixIfLi3ELi3ELi0ELi3ELi3EEEEESC_EESG_EEEC2Ev, symObjAddr: 0x5E1C, symBinAddr: 0x100009E94, symSize: 0x2C }
  - { offsetInCU: 0x260AC9, offset: 0x260AC9, size: 0x8, addend: 0x0, symName: __ZN5Eigen9DenseBaseINS_13CwiseBinaryOpINS_8internal13scalar_sum_opIffEEKNS1_INS2_17scalar_product_opIffEEKNS_14CwiseNullaryOpINS2_18scalar_constant_opIfEEKNS_6MatrixIfLi3ELi3ELi0ELi3ELi3EEEEESC_EESG_EEEC2Ev, symObjAddr: 0x5E48, symBinAddr: 0x100009EC0, symSize: 0x14 }
  - { offsetInCU: 0x260AF3, offset: 0x260AF3, size: 0x8, addend: 0x0, symName: __ZN5Eigen13CwiseBinaryOpINS_8internal17scalar_product_opIffEEKNS_14CwiseNullaryOpINS1_18scalar_constant_opIfEEKNS_6MatrixIfLi3ELi3ELi0ELi3ELi3EEEEES9_EC2ERKSC_, symObjAddr: 0x5E5C, symBinAddr: 0x100009ED4, symSize: 0x5C }
  - { offsetInCU: 0x260B28, offset: 0x260B28, size: 0x8, addend: 0x0, symName: __ZN5Eigen8internal13scalar_sum_opIffEC2ERKS2_, symObjAddr: 0x5EB8, symBinAddr: 0x100009F30, symSize: 0x18 }
  - { offsetInCU: 0x260B5D, offset: 0x260B5D, size: 0x8, addend: 0x0, symName: __ZNK5Eigen9EigenBaseINS_13CwiseBinaryOpINS_8internal13scalar_sum_opIffEEKNS1_INS2_17scalar_product_opIffEEKNS_14CwiseNullaryOpINS2_18scalar_constant_opIfEEKNS_6MatrixIfLi3ELi3ELi0ELi3ELi3EEEEESC_EESG_EEE7derivedEv, symObjAddr: 0x5ED0, symBinAddr: 0x100009F48, symSize: 0x14 }
  - { offsetInCU: 0x260B83, offset: 0x260B83, size: 0x8, addend: 0x0, symName: __ZNK5Eigen13CwiseBinaryOpINS_8internal13scalar_sum_opIffEEKNS0_INS1_17scalar_product_opIffEEKNS_14CwiseNullaryOpINS1_18scalar_constant_opIfEEKNS_6MatrixIfLi3ELi3ELi0ELi3ELi3EEEEESB_EESF_E4rowsEv, symObjAddr: 0x5EE4, symBinAddr: 0x100009F5C, symSize: 0x28 }
  - { offsetInCU: 0x260BA9, offset: 0x260BA9, size: 0x8, addend: 0x0, symName: __ZNK5Eigen13CwiseBinaryOpINS_8internal13scalar_sum_opIffEEKNS0_INS1_17scalar_product_opIffEEKNS_14CwiseNullaryOpINS1_18scalar_constant_opIfEEKNS_6MatrixIfLi3ELi3ELi0ELi3ELi3EEEEESB_EESF_E4colsEv, symObjAddr: 0x5F0C, symBinAddr: 0x100009F84, symSize: 0x28 }
  - { offsetInCU: 0x260BCF, offset: 0x260BCF, size: 0x8, addend: 0x0, symName: __ZN5Eigen8internal18scalar_quotient_opIffEC1Ev, symObjAddr: 0x5F34, symBinAddr: 0x100009FAC, symSize: 0x2C }
  - { offsetInCU: 0x260BF9, offset: 0x260BF9, size: 0x8, addend: 0x0, symName: __ZN5Eigen13CwiseBinaryOpINS_8internal18scalar_quotient_opIffEEKNS0_INS1_13scalar_sum_opIffEEKNS0_INS1_17scalar_product_opIffEEKNS_14CwiseNullaryOpINS1_18scalar_constant_opIfEEKNS_6MatrixIfLi3ELi3ELi0ELi3ELi3EEEEESD_EESH_EESF_EC1ERSJ_RSF_RKS3_, symObjAddr: 0x5F60, symBinAddr: 0x100009FD8, symSize: 0x44 }
  - { offsetInCU: 0x260C4D, offset: 0x260C4D, size: 0x8, addend: 0x0, symName: __ZN5Eigen8internal18scalar_quotient_opIffEC2Ev, symObjAddr: 0x5FA4, symBinAddr: 0x10000A01C, symSize: 0x14 }
  - { offsetInCU: 0x260C77, offset: 0x260C77, size: 0x8, addend: 0x0, symName: __ZN5Eigen13CwiseBinaryOpINS_8internal18scalar_quotient_opIffEEKNS0_INS1_13scalar_sum_opIffEEKNS0_INS1_17scalar_product_opIffEEKNS_14CwiseNullaryOpINS1_18scalar_constant_opIfEEKNS_6MatrixIfLi3ELi3ELi0ELi3ELi3EEEEESD_EESH_EESF_EC2ERSJ_RSF_RKS3_, symObjAddr: 0x5FB8, symBinAddr: 0x10000A030, symSize: 0xFC }
  - { offsetInCU: 0x260CD0, offset: 0x260CD0, size: 0x8, addend: 0x0, symName: __ZN5Eigen17CwiseBinaryOpImplINS_8internal18scalar_quotient_opIffEEKNS_13CwiseBinaryOpINS1_13scalar_sum_opIffEEKNS4_INS1_17scalar_product_opIffEEKNS_14CwiseNullaryOpINS1_18scalar_constant_opIfEEKNS_6MatrixIfLi3ELi3ELi0ELi3ELi3EEEEESE_EESI_EESG_NS_5DenseEEC2Ev, symObjAddr: 0x60B4, symBinAddr: 0x10000A12C, symSize: 0x2C }
  - { offsetInCU: 0x260CFC, offset: 0x260CFC, size: 0x8, addend: 0x0, symName: __ZN5Eigen13CwiseBinaryOpINS_8internal13scalar_sum_opIffEEKNS0_INS1_17scalar_product_opIffEEKNS_14CwiseNullaryOpINS1_18scalar_constant_opIfEEKNS_6MatrixIfLi3ELi3ELi0ELi3ELi3EEEEESB_EESF_EC1ERKSG_, symObjAddr: 0x60E0, symBinAddr: 0x10000A158, symSize: 0x34 }
  - { offsetInCU: 0x260D31, offset: 0x260D31, size: 0x8, addend: 0x0, symName: __ZN5Eigen8internal18scalar_quotient_opIffEC1ERKS2_, symObjAddr: 0x6114, symBinAddr: 0x10000A18C, symSize: 0x34 }
  - { offsetInCU: 0x260D66, offset: 0x260D66, size: 0x8, addend: 0x0, symName: __ZN5Eigen10MatrixBaseINS_13CwiseBinaryOpINS_8internal18scalar_quotient_opIffEEKNS1_INS2_13scalar_sum_opIffEEKNS1_INS2_17scalar_product_opIffEEKNS_14CwiseNullaryOpINS2_18scalar_constant_opIfEEKNS_6MatrixIfLi3ELi3ELi0ELi3ELi3EEEEESE_EESI_EESG_EEEC2Ev, symObjAddr: 0x6148, symBinAddr: 0x10000A1C0, symSize: 0x2C }
  - { offsetInCU: 0x260D90, offset: 0x260D90, size: 0x8, addend: 0x0, symName: __ZN5Eigen9DenseBaseINS_13CwiseBinaryOpINS_8internal18scalar_quotient_opIffEEKNS1_INS2_13scalar_sum_opIffEEKNS1_INS2_17scalar_product_opIffEEKNS_14CwiseNullaryOpINS2_18scalar_constant_opIfEEKNS_6MatrixIfLi3ELi3ELi0ELi3ELi3EEEEESE_EESI_EESG_EEEC2Ev, symObjAddr: 0x6174, symBinAddr: 0x10000A1EC, symSize: 0x14 }
  - { offsetInCU: 0x260DBA, offset: 0x260DBA, size: 0x8, addend: 0x0, symName: __ZN5Eigen13CwiseBinaryOpINS_8internal13scalar_sum_opIffEEKNS0_INS1_17scalar_product_opIffEEKNS_14CwiseNullaryOpINS1_18scalar_constant_opIfEEKNS_6MatrixIfLi3ELi3ELi0ELi3ELi3EEEEESB_EESF_EC2ERKSG_, symObjAddr: 0x6188, symBinAddr: 0x10000A200, symSize: 0x64 }
  - { offsetInCU: 0x260DEF, offset: 0x260DEF, size: 0x8, addend: 0x0, symName: __ZN5Eigen8internal18scalar_quotient_opIffEC2ERKS2_, symObjAddr: 0x61EC, symBinAddr: 0x10000A264, symSize: 0x18 }
  - { offsetInCU: 0x260E24, offset: 0x260E24, size: 0x8, addend: 0x0, symName: __ZNK5Eigen9EigenBaseINS_13CwiseBinaryOpINS_8internal18scalar_quotient_opIffEEKNS1_INS2_13scalar_sum_opIffEEKNS1_INS2_17scalar_product_opIffEEKNS_14CwiseNullaryOpINS2_18scalar_constant_opIfEEKNS_6MatrixIfLi3ELi3ELi0ELi3ELi3EEEEESE_EESI_EESG_EEE7derivedEv, symObjAddr: 0x6204, symBinAddr: 0x10000A27C, symSize: 0x14 }
  - { offsetInCU: 0x260E4A, offset: 0x260E4A, size: 0x8, addend: 0x0, symName: __ZN5Eigen13CwiseBinaryOpINS_8internal13scalar_sum_opIffEEKNS0_INS1_17scalar_product_opIffEEKNS_14CwiseNullaryOpINS1_18scalar_constant_opIfEEKNS_6MatrixIfLi3ELi3ELi0ELi3ELi3EEEEESB_EEKNS0_INS1_18scalar_quotient_opIffEEKNS0_IS3_SF_SF_EESD_EEEC1ERSF_RSL_RKS3_, symObjAddr: 0x6218, symBinAddr: 0x10000A290, symSize: 0x44 }
  - { offsetInCU: 0x260E9E, offset: 0x260E9E, size: 0x8, addend: 0x0, symName: __ZN5Eigen13CwiseBinaryOpINS_8internal13scalar_sum_opIffEEKNS0_INS1_17scalar_product_opIffEEKNS_14CwiseNullaryOpINS1_18scalar_constant_opIfEEKNS_6MatrixIfLi3ELi3ELi0ELi3ELi3EEEEESB_EEKNS0_INS1_18scalar_quotient_opIffEEKNS0_IS3_SF_SF_EESD_EEEC2ERSF_RSL_RKS3_, symObjAddr: 0x625C, symBinAddr: 0x10000A2D4, symSize: 0xFC }
  - { offsetInCU: 0x260EF7, offset: 0x260EF7, size: 0x8, addend: 0x0, symName: __ZN5Eigen17CwiseBinaryOpImplINS_8internal13scalar_sum_opIffEEKNS_13CwiseBinaryOpINS1_17scalar_product_opIffEEKNS_14CwiseNullaryOpINS1_18scalar_constant_opIfEEKNS_6MatrixIfLi3ELi3ELi0ELi3ELi3EEEEESC_EEKNS4_INS1_18scalar_quotient_opIffEEKNS4_IS3_SG_SG_EESE_EENS_5DenseEEC2Ev, symObjAddr: 0x6358, symBinAddr: 0x10000A3D0, symSize: 0x2C }
  - { offsetInCU: 0x260F23, offset: 0x260F23, size: 0x8, addend: 0x0, symName: __ZN5Eigen13CwiseBinaryOpINS_8internal18scalar_quotient_opIffEEKNS0_INS1_13scalar_sum_opIffEEKNS0_INS1_17scalar_product_opIffEEKNS_14CwiseNullaryOpINS1_18scalar_constant_opIfEEKNS_6MatrixIfLi3ELi3ELi0ELi3ELi3EEEEESD_EESH_EESF_EC1ERKSK_, symObjAddr: 0x6384, symBinAddr: 0x10000A3FC, symSize: 0x34 }
  - { offsetInCU: 0x260F58, offset: 0x260F58, size: 0x8, addend: 0x0, symName: __ZNK5Eigen13CwiseBinaryOpINS_8internal18scalar_quotient_opIffEEKNS0_INS1_13scalar_sum_opIffEEKNS0_INS1_17scalar_product_opIffEEKNS_14CwiseNullaryOpINS1_18scalar_constant_opIfEEKNS_6MatrixIfLi3ELi3ELi0ELi3ELi3EEEEESD_EESH_EESF_E4rowsEv, symObjAddr: 0x63B8, symBinAddr: 0x10000A430, symSize: 0x28 }
  - { offsetInCU: 0x260F7E, offset: 0x260F7E, size: 0x8, addend: 0x0, symName: __ZNK5Eigen13CwiseBinaryOpINS_8internal18scalar_quotient_opIffEEKNS0_INS1_13scalar_sum_opIffEEKNS0_INS1_17scalar_product_opIffEEKNS_14CwiseNullaryOpINS1_18scalar_constant_opIfEEKNS_6MatrixIfLi3ELi3ELi0ELi3ELi3EEEEESD_EESH_EESF_E4colsEv, symObjAddr: 0x63E0, symBinAddr: 0x10000A458, symSize: 0x28 }
  - { offsetInCU: 0x260FA4, offset: 0x260FA4, size: 0x8, addend: 0x0, symName: __ZN5Eigen10MatrixBaseINS_13CwiseBinaryOpINS_8internal13scalar_sum_opIffEEKNS1_INS2_17scalar_product_opIffEEKNS_14CwiseNullaryOpINS2_18scalar_constant_opIfEEKNS_6MatrixIfLi3ELi3ELi0ELi3ELi3EEEEESC_EEKNS1_INS2_18scalar_quotient_opIffEEKNS1_IS4_SG_SG_EESE_EEEEEC2Ev, symObjAddr: 0x6408, symBinAddr: 0x10000A480, symSize: 0x2C }
  - { offsetInCU: 0x260FCE, offset: 0x260FCE, size: 0x8, addend: 0x0, symName: __ZN5Eigen9DenseBaseINS_13CwiseBinaryOpINS_8internal13scalar_sum_opIffEEKNS1_INS2_17scalar_product_opIffEEKNS_14CwiseNullaryOpINS2_18scalar_constant_opIfEEKNS_6MatrixIfLi3ELi3ELi0ELi3ELi3EEEEESC_EEKNS1_INS2_18scalar_quotient_opIffEEKNS1_IS4_SG_SG_EESE_EEEEEC2Ev, symObjAddr: 0x6434, symBinAddr: 0x10000A4AC, symSize: 0x14 }
  - { offsetInCU: 0x260FF8, offset: 0x260FF8, size: 0x8, addend: 0x0, symName: __ZN5Eigen13CwiseBinaryOpINS_8internal18scalar_quotient_opIffEEKNS0_INS1_13scalar_sum_opIffEEKNS0_INS1_17scalar_product_opIffEEKNS_14CwiseNullaryOpINS1_18scalar_constant_opIfEEKNS_6MatrixIfLi3ELi3ELi0ELi3ELi3EEEEESD_EESH_EESF_EC2ERKSK_, symObjAddr: 0x6448, symBinAddr: 0x10000A4C0, symSize: 0x64 }
  - { offsetInCU: 0x26102D, offset: 0x26102D, size: 0x8, addend: 0x0, symName: __ZN5Eigen13CwiseBinaryOpINS_8internal18scalar_quotient_opIffEEKNS0_INS1_17scalar_product_opIffEEKNS_14CwiseNullaryOpINS1_18scalar_constant_opIfEEKNS_6MatrixIfLi3ELi3ELi0ELi3ELi3EEEEESB_EESD_EC1ERSF_RSD_RKS3_, symObjAddr: 0x64AC, symBinAddr: 0x10000A524, symSize: 0x44 }
  - { offsetInCU: 0x261081, offset: 0x261081, size: 0x8, addend: 0x0, symName: __ZN5Eigen13CwiseBinaryOpINS_8internal18scalar_quotient_opIffEEKNS0_INS1_17scalar_product_opIffEEKNS_14CwiseNullaryOpINS1_18scalar_constant_opIfEEKNS_6MatrixIfLi3ELi3ELi0ELi3ELi3EEEEESB_EESD_EC2ERSF_RSD_RKS3_, symObjAddr: 0x64F0, symBinAddr: 0x10000A568, symSize: 0xFC }
  - { offsetInCU: 0x2610DA, offset: 0x2610DA, size: 0x8, addend: 0x0, symName: __ZN5Eigen17CwiseBinaryOpImplINS_8internal18scalar_quotient_opIffEEKNS_13CwiseBinaryOpINS1_17scalar_product_opIffEEKNS_14CwiseNullaryOpINS1_18scalar_constant_opIfEEKNS_6MatrixIfLi3ELi3ELi0ELi3ELi3EEEEESC_EESE_NS_5DenseEEC2Ev, symObjAddr: 0x65EC, symBinAddr: 0x10000A664, symSize: 0x2C }
  - { offsetInCU: 0x261106, offset: 0x261106, size: 0x8, addend: 0x0, symName: __ZN5Eigen10MatrixBaseINS_13CwiseBinaryOpINS_8internal18scalar_quotient_opIffEEKNS1_INS2_17scalar_product_opIffEEKNS_14CwiseNullaryOpINS2_18scalar_constant_opIfEEKNS_6MatrixIfLi3ELi3ELi0ELi3ELi3EEEEESC_EESE_EEEC2Ev, symObjAddr: 0x6618, symBinAddr: 0x10000A690, symSize: 0x2C }
  - { offsetInCU: 0x261130, offset: 0x261130, size: 0x8, addend: 0x0, symName: __ZN5Eigen9DenseBaseINS_13CwiseBinaryOpINS_8internal18scalar_quotient_opIffEEKNS1_INS2_17scalar_product_opIffEEKNS_14CwiseNullaryOpINS2_18scalar_constant_opIfEEKNS_6MatrixIfLi3ELi3ELi0ELi3ELi3EEEEESC_EESE_EEEC2Ev, symObjAddr: 0x6644, symBinAddr: 0x10000A6BC, symSize: 0x14 }
  - { offsetInCU: 0x26115A, offset: 0x26115A, size: 0x8, addend: 0x0, symName: __ZNK5Eigen9EigenBaseINS_13CwiseBinaryOpINS_8internal13scalar_sum_opIffEEKNS1_INS2_17scalar_product_opIffEEKNS_14CwiseNullaryOpINS2_18scalar_constant_opIfEEKNS_6MatrixIfLi3ELi3ELi0ELi3ELi3EEEEESC_EEKNS1_INS2_18scalar_quotient_opIffEEKNS1_IS4_SG_SG_EESE_EEEEE7derivedEv, symObjAddr: 0x6658, symBinAddr: 0x10000A6D0, symSize: 0x14 }
  - { offsetInCU: 0x261180, offset: 0x261180, size: 0x8, addend: 0x0, symName: __ZNK5Eigen9EigenBaseINS_13CwiseBinaryOpINS_8internal18scalar_quotient_opIffEEKNS1_INS2_17scalar_product_opIffEEKNS_14CwiseNullaryOpINS2_18scalar_constant_opIfEEKNS_6MatrixIfLi3ELi3ELi0ELi3ELi3EEEEESC_EESE_EEE7derivedEv, symObjAddr: 0x666C, symBinAddr: 0x10000A6E4, symSize: 0x14 }
  - { offsetInCU: 0x2611A6, offset: 0x2611A6, size: 0x8, addend: 0x0, symName: __ZN5Eigen13CwiseBinaryOpINS_8internal13scalar_sum_opIffEEKNS0_IS3_KNS0_INS1_17scalar_product_opIffEEKNS_14CwiseNullaryOpINS1_18scalar_constant_opIfEEKNS_6MatrixIfLi3ELi3ELi0ELi3ELi3EEEEESB_EEKNS0_INS1_18scalar_quotient_opIffEEKNS0_IS3_SF_SF_EESD_EEEEKNS0_ISH_SF_SD_EEEC1ERSN_RSP_RKS3_, symObjAddr: 0x6680, symBinAddr: 0x10000A6F8, symSize: 0x44 }
  - { offsetInCU: 0x2611FA, offset: 0x2611FA, size: 0x8, addend: 0x0, symName: __ZN5Eigen13CwiseBinaryOpINS_8internal13scalar_sum_opIffEEKNS0_IS3_KNS0_INS1_17scalar_product_opIffEEKNS_14CwiseNullaryOpINS1_18scalar_constant_opIfEEKNS_6MatrixIfLi3ELi3ELi0ELi3ELi3EEEEESB_EEKNS0_INS1_18scalar_quotient_opIffEEKNS0_IS3_SF_SF_EESD_EEEEKNS0_ISH_SF_SD_EEEC2ERSN_RSP_RKS3_, symObjAddr: 0x66C4, symBinAddr: 0x10000A73C, symSize: 0xFC }
  - { offsetInCU: 0x261253, offset: 0x261253, size: 0x8, addend: 0x0, symName: __ZN5Eigen17CwiseBinaryOpImplINS_8internal13scalar_sum_opIffEEKNS_13CwiseBinaryOpIS3_KNS4_INS1_17scalar_product_opIffEEKNS_14CwiseNullaryOpINS1_18scalar_constant_opIfEEKNS_6MatrixIfLi3ELi3ELi0ELi3ELi3EEEEESC_EEKNS4_INS1_18scalar_quotient_opIffEEKNS4_IS3_SG_SG_EESE_EEEEKNS4_ISI_SG_SE_EENS_5DenseEEC2Ev, symObjAddr: 0x67C0, symBinAddr: 0x10000A838, symSize: 0x2C }
  - { offsetInCU: 0x26127F, offset: 0x26127F, size: 0x8, addend: 0x0, symName: __ZN5Eigen13CwiseBinaryOpINS_8internal13scalar_sum_opIffEEKNS0_INS1_17scalar_product_opIffEEKNS_14CwiseNullaryOpINS1_18scalar_constant_opIfEEKNS_6MatrixIfLi3ELi3ELi0ELi3ELi3EEEEESB_EEKNS0_INS1_18scalar_quotient_opIffEEKNS0_IS3_SF_SF_EESD_EEEC1ERKSM_, symObjAddr: 0x67EC, symBinAddr: 0x10000A864, symSize: 0x34 }
  - { offsetInCU: 0x2612B4, offset: 0x2612B4, size: 0x8, addend: 0x0, symName: __ZN5Eigen13CwiseBinaryOpINS_8internal18scalar_quotient_opIffEEKNS0_INS1_17scalar_product_opIffEEKNS_14CwiseNullaryOpINS1_18scalar_constant_opIfEEKNS_6MatrixIfLi3ELi3ELi0ELi3ELi3EEEEESB_EESD_EC1ERKSG_, symObjAddr: 0x6820, symBinAddr: 0x10000A898, symSize: 0x34 }
  - { offsetInCU: 0x2612E9, offset: 0x2612E9, size: 0x8, addend: 0x0, symName: __ZNK5Eigen13CwiseBinaryOpINS_8internal13scalar_sum_opIffEEKNS0_INS1_17scalar_product_opIffEEKNS_14CwiseNullaryOpINS1_18scalar_constant_opIfEEKNS_6MatrixIfLi3ELi3ELi0ELi3ELi3EEEEESB_EEKNS0_INS1_18scalar_quotient_opIffEEKNS0_IS3_SF_SF_EESD_EEE4rowsEv, symObjAddr: 0x6854, symBinAddr: 0x10000A8CC, symSize: 0x28 }
  - { offsetInCU: 0x26130F, offset: 0x26130F, size: 0x8, addend: 0x0, symName: __ZNK5Eigen13CwiseBinaryOpINS_8internal18scalar_quotient_opIffEEKNS0_INS1_17scalar_product_opIffEEKNS_14CwiseNullaryOpINS1_18scalar_constant_opIfEEKNS_6MatrixIfLi3ELi3ELi0ELi3ELi3EEEEESB_EESD_E4rowsEv, symObjAddr: 0x687C, symBinAddr: 0x10000A8F4, symSize: 0x28 }
  - { offsetInCU: 0x261335, offset: 0x261335, size: 0x8, addend: 0x0, symName: __ZNK5Eigen13CwiseBinaryOpINS_8internal13scalar_sum_opIffEEKNS0_INS1_17scalar_product_opIffEEKNS_14CwiseNullaryOpINS1_18scalar_constant_opIfEEKNS_6MatrixIfLi3ELi3ELi0ELi3ELi3EEEEESB_EEKNS0_INS1_18scalar_quotient_opIffEEKNS0_IS3_SF_SF_EESD_EEE4colsEv, symObjAddr: 0x68A4, symBinAddr: 0x10000A91C, symSize: 0x28 }
  - { offsetInCU: 0x26135B, offset: 0x26135B, size: 0x8, addend: 0x0, symName: __ZNK5Eigen13CwiseBinaryOpINS_8internal18scalar_quotient_opIffEEKNS0_INS1_17scalar_product_opIffEEKNS_14CwiseNullaryOpINS1_18scalar_constant_opIfEEKNS_6MatrixIfLi3ELi3ELi0ELi3ELi3EEEEESB_EESD_E4colsEv, symObjAddr: 0x68CC, symBinAddr: 0x10000A944, symSize: 0x28 }
  - { offsetInCU: 0x261381, offset: 0x261381, size: 0x8, addend: 0x0, symName: __ZN5Eigen10MatrixBaseINS_13CwiseBinaryOpINS_8internal13scalar_sum_opIffEEKNS1_IS4_KNS1_INS2_17scalar_product_opIffEEKNS_14CwiseNullaryOpINS2_18scalar_constant_opIfEEKNS_6MatrixIfLi3ELi3ELi0ELi3ELi3EEEEESC_EEKNS1_INS2_18scalar_quotient_opIffEEKNS1_IS4_SG_SG_EESE_EEEEKNS1_ISI_SG_SE_EEEEEC2Ev, symObjAddr: 0x68F4, symBinAddr: 0x10000A96C, symSize: 0x2C }
  - { offsetInCU: 0x2613AB, offset: 0x2613AB, size: 0x8, addend: 0x0, symName: __ZN5Eigen9DenseBaseINS_13CwiseBinaryOpINS_8internal13scalar_sum_opIffEEKNS1_IS4_KNS1_INS2_17scalar_product_opIffEEKNS_14CwiseNullaryOpINS2_18scalar_constant_opIfEEKNS_6MatrixIfLi3ELi3ELi0ELi3ELi3EEEEESC_EEKNS1_INS2_18scalar_quotient_opIffEEKNS1_IS4_SG_SG_EESE_EEEEKNS1_ISI_SG_SE_EEEEEC2Ev, symObjAddr: 0x6920, symBinAddr: 0x10000A998, symSize: 0x14 }
  - { offsetInCU: 0x2613D5, offset: 0x2613D5, size: 0x8, addend: 0x0, symName: __ZN5Eigen13CwiseBinaryOpINS_8internal13scalar_sum_opIffEEKNS0_INS1_17scalar_product_opIffEEKNS_14CwiseNullaryOpINS1_18scalar_constant_opIfEEKNS_6MatrixIfLi3ELi3ELi0ELi3ELi3EEEEESB_EEKNS0_INS1_18scalar_quotient_opIffEEKNS0_IS3_SF_SF_EESD_EEEC2ERKSM_, symObjAddr: 0x6934, symBinAddr: 0x10000A9AC, symSize: 0x64 }
  - { offsetInCU: 0x26140A, offset: 0x26140A, size: 0x8, addend: 0x0, symName: __ZN5Eigen13CwiseBinaryOpINS_8internal18scalar_quotient_opIffEEKNS0_INS1_17scalar_product_opIffEEKNS_14CwiseNullaryOpINS1_18scalar_constant_opIfEEKNS_6MatrixIfLi3ELi3ELi0ELi3ELi3EEEEESB_EESD_EC2ERKSG_, symObjAddr: 0x6998, symBinAddr: 0x10000AA10, symSize: 0x64 }
  - { offsetInCU: 0x26143F, offset: 0x26143F, size: 0x8, addend: 0x0, symName: __ZNK5Eigen9EigenBaseINS_13CwiseBinaryOpINS_8internal13scalar_sum_opIffEEKNS1_IS4_KNS1_INS2_17scalar_product_opIffEEKNS_14CwiseNullaryOpINS2_18scalar_constant_opIfEEKNS_6MatrixIfLi3ELi3ELi0ELi3ELi3EEEEESC_EEKNS1_INS2_18scalar_quotient_opIffEEKNS1_IS4_SG_SG_EESE_EEEEKNS1_ISI_SG_SE_EEEEE7derivedEv, symObjAddr: 0x69FC, symBinAddr: 0x10000AA74, symSize: 0x14 }
  - { offsetInCU: 0x261465, offset: 0x261465, size: 0x8, addend: 0x0, symName: __ZN5Eigen13CwiseBinaryOpINS_8internal13scalar_sum_opIffEEKNS0_IS3_KNS0_IS3_KNS0_INS1_17scalar_product_opIffEEKNS_14CwiseNullaryOpINS1_18scalar_constant_opIfEEKNS_6MatrixIfLi3ELi3ELi0ELi3ELi3EEEEESB_EEKNS0_INS1_18scalar_quotient_opIffEEKNS0_IS3_SF_SF_EESD_EEEEKNS0_ISH_SF_SD_EEEESR_EC1ERSR_ST_RKS3_, symObjAddr: 0x6A10, symBinAddr: 0x10000AA88, symSize: 0x44 }
  - { offsetInCU: 0x2614B9, offset: 0x2614B9, size: 0x8, addend: 0x0, symName: __ZN5Eigen13CwiseBinaryOpINS_8internal13scalar_sum_opIffEEKNS0_IS3_KNS0_IS3_KNS0_INS1_17scalar_product_opIffEEKNS_14CwiseNullaryOpINS1_18scalar_constant_opIfEEKNS_6MatrixIfLi3ELi3ELi0ELi3ELi3EEEEESB_EEKNS0_INS1_18scalar_quotient_opIffEEKNS0_IS3_SF_SF_EESD_EEEEKNS0_ISH_SF_SD_EEEESR_EC2ERSR_ST_RKS3_, symObjAddr: 0x6A54, symBinAddr: 0x10000AACC, symSize: 0xFC }
  - { offsetInCU: 0x261512, offset: 0x261512, size: 0x8, addend: 0x0, symName: __ZN5Eigen17CwiseBinaryOpImplINS_8internal13scalar_sum_opIffEEKNS_13CwiseBinaryOpIS3_KNS4_IS3_KNS4_INS1_17scalar_product_opIffEEKNS_14CwiseNullaryOpINS1_18scalar_constant_opIfEEKNS_6MatrixIfLi3ELi3ELi0ELi3ELi3EEEEESC_EEKNS4_INS1_18scalar_quotient_opIffEEKNS4_IS3_SG_SG_EESE_EEEEKNS4_ISI_SG_SE_EEEESS_NS_5DenseEEC2Ev, symObjAddr: 0x6B50, symBinAddr: 0x10000ABC8, symSize: 0x2C }
  - { offsetInCU: 0x26153E, offset: 0x26153E, size: 0x8, addend: 0x0, symName: __ZN5Eigen13CwiseBinaryOpINS_8internal13scalar_sum_opIffEEKNS0_IS3_KNS0_INS1_17scalar_product_opIffEEKNS_14CwiseNullaryOpINS1_18scalar_constant_opIfEEKNS_6MatrixIfLi3ELi3ELi0ELi3ELi3EEEEESB_EEKNS0_INS1_18scalar_quotient_opIffEEKNS0_IS3_SF_SF_EESD_EEEEKNS0_ISH_SF_SD_EEEC1ERKSQ_, symObjAddr: 0x6B7C, symBinAddr: 0x10000ABF4, symSize: 0x34 }
  - { offsetInCU: 0x261573, offset: 0x261573, size: 0x8, addend: 0x0, symName: __ZNK5Eigen13CwiseBinaryOpINS_8internal13scalar_sum_opIffEEKNS0_IS3_KNS0_INS1_17scalar_product_opIffEEKNS_14CwiseNullaryOpINS1_18scalar_constant_opIfEEKNS_6MatrixIfLi3ELi3ELi0ELi3ELi3EEEEESB_EEKNS0_INS1_18scalar_quotient_opIffEEKNS0_IS3_SF_SF_EESD_EEEEKNS0_ISH_SF_SD_EEE4rowsEv, symObjAddr: 0x6BB0, symBinAddr: 0x10000AC28, symSize: 0x28 }
  - { offsetInCU: 0x261599, offset: 0x261599, size: 0x8, addend: 0x0, symName: __ZNK5Eigen13CwiseBinaryOpINS_8internal13scalar_sum_opIffEEKNS0_IS3_KNS0_INS1_17scalar_product_opIffEEKNS_14CwiseNullaryOpINS1_18scalar_constant_opIfEEKNS_6MatrixIfLi3ELi3ELi0ELi3ELi3EEEEESB_EEKNS0_INS1_18scalar_quotient_opIffEEKNS0_IS3_SF_SF_EESD_EEEEKNS0_ISH_SF_SD_EEE4colsEv, symObjAddr: 0x6BD8, symBinAddr: 0x10000AC50, symSize: 0x28 }
  - { offsetInCU: 0x2615BF, offset: 0x2615BF, size: 0x8, addend: 0x0, symName: __ZN5Eigen10MatrixBaseINS_13CwiseBinaryOpINS_8internal13scalar_sum_opIffEEKNS1_IS4_KNS1_IS4_KNS1_INS2_17scalar_product_opIffEEKNS_14CwiseNullaryOpINS2_18scalar_constant_opIfEEKNS_6MatrixIfLi3ELi3ELi0ELi3ELi3EEEEESC_EEKNS1_INS2_18scalar_quotient_opIffEEKNS1_IS4_SG_SG_EESE_EEEEKNS1_ISI_SG_SE_EEEESS_EEEC2Ev, symObjAddr: 0x6C00, symBinAddr: 0x10000AC78, symSize: 0x2C }
  - { offsetInCU: 0x2615E9, offset: 0x2615E9, size: 0x8, addend: 0x0, symName: __ZN5Eigen9DenseBaseINS_13CwiseBinaryOpINS_8internal13scalar_sum_opIffEEKNS1_IS4_KNS1_IS4_KNS1_INS2_17scalar_product_opIffEEKNS_14CwiseNullaryOpINS2_18scalar_constant_opIfEEKNS_6MatrixIfLi3ELi3ELi0ELi3ELi3EEEEESC_EEKNS1_INS2_18scalar_quotient_opIffEEKNS1_IS4_SG_SG_EESE_EEEEKNS1_ISI_SG_SE_EEEESS_EEEC2Ev, symObjAddr: 0x6C2C, symBinAddr: 0x10000ACA4, symSize: 0x14 }
  - { offsetInCU: 0x261613, offset: 0x261613, size: 0x8, addend: 0x0, symName: __ZN5Eigen13CwiseBinaryOpINS_8internal13scalar_sum_opIffEEKNS0_IS3_KNS0_INS1_17scalar_product_opIffEEKNS_14CwiseNullaryOpINS1_18scalar_constant_opIfEEKNS_6MatrixIfLi3ELi3ELi0ELi3ELi3EEEEESB_EEKNS0_INS1_18scalar_quotient_opIffEEKNS0_IS3_SF_SF_EESD_EEEEKNS0_ISH_SF_SD_EEEC2ERKSQ_, symObjAddr: 0x6C40, symBinAddr: 0x10000ACB8, symSize: 0x64 }
  - { offsetInCU: 0x261648, offset: 0x261648, size: 0x8, addend: 0x0, symName: __ZN5Eigen6MatrixIfLi3ELi3ELi0ELi3ELi3EEC2INS_13CwiseBinaryOpINS_8internal13scalar_sum_opIffEEKNS3_IS6_KNS3_IS6_KNS3_INS4_17scalar_product_opIffEEKNS_14CwiseNullaryOpINS4_18scalar_constant_opIfEEKS1_EESC_EEKNS3_INS4_18scalar_quotient_opIffEEKNS3_IS6_SG_SG_EESE_EEEEKNS3_ISI_SG_SE_EEEESS_EEEERKNS_9EigenBaseIT_EE, symObjAddr: 0x6CA4, symBinAddr: 0x10000AD1C, symSize: 0x40 }
  - { offsetInCU: 0x26168A, offset: 0x26168A, size: 0x8, addend: 0x0, symName: __ZNK5Eigen9EigenBaseINS_13CwiseBinaryOpINS_8internal13scalar_sum_opIffEEKNS1_IS4_KNS1_IS4_KNS1_INS2_17scalar_product_opIffEEKNS_14CwiseNullaryOpINS2_18scalar_constant_opIfEEKNS_6MatrixIfLi3ELi3ELi0ELi3ELi3EEEEESC_EEKNS1_INS2_18scalar_quotient_opIffEEKNS1_IS4_SG_SG_EESE_EEEEKNS1_ISI_SG_SE_EEEESS_EEE7derivedEv, symObjAddr: 0x6CE4, symBinAddr: 0x10000AD5C, symSize: 0x14 }
  - { offsetInCU: 0x2616B0, offset: 0x2616B0, size: 0x8, addend: 0x0, symName: __ZN5Eigen15PlainObjectBaseINS_6MatrixIfLi3ELi3ELi0ELi3ELi3EEEEC2INS_13CwiseBinaryOpINS_8internal13scalar_sum_opIffEEKNS5_IS8_KNS5_IS8_KNS5_INS6_17scalar_product_opIffEEKNS_14CwiseNullaryOpINS6_18scalar_constant_opIfEEKS2_EESE_EEKNS5_INS6_18scalar_quotient_opIffEEKNS5_IS8_SI_SI_EESG_EEEEKNS5_ISK_SI_SG_EEEESU_EEEERKNS_9DenseBaseIT_EE, symObjAddr: 0x6CF8, symBinAddr: 0x10000AD70, symSize: 0x54 }
  - { offsetInCU: 0x2616F2, offset: 0x2616F2, size: 0x8, addend: 0x0, symName: __ZN5Eigen15PlainObjectBaseINS_6MatrixIfLi3ELi3ELi0ELi3ELi3EEEE10resizeLikeINS_13CwiseBinaryOpINS_8internal13scalar_sum_opIffEEKNS5_IS8_KNS5_IS8_KNS5_INS6_17scalar_product_opIffEEKNS_14CwiseNullaryOpINS6_18scalar_constant_opIfEEKS2_EESE_EEKNS5_INS6_18scalar_quotient_opIffEEKNS5_IS8_SI_SI_EESG_EEEEKNS5_ISK_SI_SG_EEEESU_EEEEvRKNS_9EigenBaseIT_EE, symObjAddr: 0x6D4C, symBinAddr: 0x10000ADC4, symSize: 0x9C }
  - { offsetInCU: 0x26174E, offset: 0x26174E, size: 0x8, addend: 0x0, symName: __ZN5Eigen15PlainObjectBaseINS_6MatrixIfLi3ELi3ELi0ELi3ELi3EEEE12_set_noaliasINS_13CwiseBinaryOpINS_8internal13scalar_sum_opIffEEKNS5_IS8_KNS5_IS8_KNS5_INS6_17scalar_product_opIffEEKNS_14CwiseNullaryOpINS6_18scalar_constant_opIfEEKS2_EESE_EEKNS5_INS6_18scalar_quotient_opIffEEKNS5_IS8_SI_SI_EESG_EEEEKNS5_ISK_SI_SG_EEEESU_EEEERS2_RKNS_9DenseBaseIT_EE, symObjAddr: 0x6DE8, symBinAddr: 0x10000AE60, symSize: 0x60 }
  - { offsetInCU: 0x26178C, offset: 0x26178C, size: 0x8, addend: 0x0, symName: __ZNK5Eigen13CwiseBinaryOpINS_8internal13scalar_sum_opIffEEKNS0_IS3_KNS0_IS3_KNS0_INS1_17scalar_product_opIffEEKNS_14CwiseNullaryOpINS1_18scalar_constant_opIfEEKNS_6MatrixIfLi3ELi3ELi0ELi3ELi3EEEEESB_EEKNS0_INS1_18scalar_quotient_opIffEEKNS0_IS3_SF_SF_EESD_EEEEKNS0_ISH_SF_SD_EEEESR_E4rowsEv, symObjAddr: 0x6E48, symBinAddr: 0x10000AEC0, symSize: 0x28 }
  - { offsetInCU: 0x2617B2, offset: 0x2617B2, size: 0x8, addend: 0x0, symName: __ZNK5Eigen13CwiseBinaryOpINS_8internal13scalar_sum_opIffEEKNS0_IS3_KNS0_IS3_KNS0_INS1_17scalar_product_opIffEEKNS_14CwiseNullaryOpINS1_18scalar_constant_opIfEEKNS_6MatrixIfLi3ELi3ELi0ELi3ELi3EEEEESB_EEKNS0_INS1_18scalar_quotient_opIffEEKNS0_IS3_SF_SF_EESD_EEEEKNS0_ISH_SF_SD_EEEESR_E4colsEv, symObjAddr: 0x6E70, symBinAddr: 0x10000AEE8, symSize: 0x28 }
  - { offsetInCU: 0x2617D8, offset: 0x2617D8, size: 0x8, addend: 0x0, symName: __ZN5Eigen15PlainObjectBaseINS_6MatrixIfLi3ELi3ELi0ELi3ELi3EEEE6resizeEll, symObjAddr: 0x6E98, symBinAddr: 0x10000AF10, symSize: 0x104 }
  - { offsetInCU: 0x26181C, offset: 0x26181C, size: 0x8, addend: 0x0, symName: __ZN5Eigen12DenseStorageIfLi9ELi3ELi3ELi0EE6resizeElll, symObjAddr: 0x6F9C, symBinAddr: 0x10000B014, symSize: 0x1C }
  - { offsetInCU: 0x261863, offset: 0x261863, size: 0x8, addend: 0x0, symName: __ZN5Eigen9EigenBaseINS_6MatrixIfLi3ELi3ELi0ELi3ELi3EEEE7derivedEv, symObjAddr: 0x6FF4, symBinAddr: 0x10000B06C, symSize: 0x14 }
  - { offsetInCU: 0x261889, offset: 0x261889, size: 0x8, addend: 0x0, symName: __ZN5Eigen8internal9assign_opIffEC1Ev, symObjAddr: 0x7008, symBinAddr: 0x10000B080, symSize: 0x2C }
  - { offsetInCU: 0x2618B3, offset: 0x2618B3, size: 0x8, addend: 0x0, symName: __ZN5Eigen8internal10AssignmentINS_6MatrixIfLi3ELi3ELi0ELi3ELi3EEENS_13CwiseBinaryOpINS0_13scalar_sum_opIffEEKNS4_IS6_KNS4_IS6_KNS4_INS0_17scalar_product_opIffEEKNS_14CwiseNullaryOpINS0_18scalar_constant_opIfEEKS3_EESC_EEKNS4_INS0_18scalar_quotient_opIffEEKNS4_IS6_SG_SG_EESE_EEEEKNS4_ISI_SG_SE_EEEESS_EENS0_9assign_opIffEENS0_11Dense2DenseEvE3runERS3_RKST_RKSV_, symObjAddr: 0x7034, symBinAddr: 0x10000B0AC, symSize: 0x40 }
  - { offsetInCU: 0x2618F5, offset: 0x2618F5, size: 0x8, addend: 0x0, symName: __ZN5Eigen8internal27checkTransposeAliasing_implINS_6MatrixIfLi3ELi3ELi0ELi3ELi3EEENS_13CwiseBinaryOpINS0_13scalar_sum_opIffEEKNS4_IS6_KNS4_IS6_KNS4_INS0_17scalar_product_opIffEEKNS_14CwiseNullaryOpINS0_18scalar_constant_opIfEEKS3_EESC_EEKNS4_INS0_18scalar_quotient_opIffEEKNS4_IS6_SG_SG_EESE_EEEEKNS4_ISI_SG_SE_EEEESS_EELb0EE3runERSC_RKST_, symObjAddr: 0x71BC, symBinAddr: 0x10000B234, symSize: 0x14 }
  - { offsetInCU: 0x261920, offset: 0x261920, size: 0x8, addend: 0x0, symName: __ZN5Eigen8internal9evaluatorINS_13CwiseBinaryOpINS0_13scalar_sum_opIffEEKNS2_IS4_KNS2_IS4_KNS2_INS0_17scalar_product_opIffEEKNS_14CwiseNullaryOpINS0_18scalar_constant_opIfEEKNS_6MatrixIfLi3ELi3ELi0ELi3ELi3EEEEESC_EEKNS2_INS0_18scalar_quotient_opIffEEKNS2_IS4_SG_SG_EESE_EEEEKNS2_ISI_SG_SE_EEEESS_EEEC1ERKST_, symObjAddr: 0x71D0, symBinAddr: 0x10000B248, symSize: 0x34 }
  - { offsetInCU: 0x261959, offset: 0x261959, size: 0x8, addend: 0x0, symName: __ZN5Eigen8internal9evaluatorINS_6MatrixIfLi3ELi3ELi0ELi3ELi3EEEEC1ERKS3_, symObjAddr: 0x72FC, symBinAddr: 0x10000B374, symSize: 0x34 }
  - { offsetInCU: 0x261992, offset: 0x261992, size: 0x8, addend: 0x0, symName: __ZNK5Eigen9EigenBaseINS_6MatrixIfLi3ELi3ELi0ELi3ELi3EEEE18const_cast_derivedEv, symObjAddr: 0x7330, symBinAddr: 0x10000B3A8, symSize: 0x14 }
  - { offsetInCU: 0x2619B8, offset: 0x2619B8, size: 0x8, addend: 0x0, symName: __ZN5Eigen8internal31generic_dense_assignment_kernelINS0_9evaluatorINS_6MatrixIfLi3ELi3ELi0ELi3ELi3EEEEENS2_INS_13CwiseBinaryOpINS0_13scalar_sum_opIffEEKNS6_IS8_KNS6_IS8_KNS6_INS0_17scalar_product_opIffEEKNS_14CwiseNullaryOpINS0_18scalar_constant_opIfEEKS4_EESE_EEKNS6_INS0_18scalar_quotient_opIffEEKNS6_IS8_SI_SI_EESG_EEEEKNS6_ISK_SI_SG_EEEESU_EEEENS0_9assign_opIffEELi0EEC1ERS5_RKSW_RKSY_RS4_, symObjAddr: 0x7344, symBinAddr: 0x10000B3BC, symSize: 0x4C }
  - { offsetInCU: 0x261A1E, offset: 0x261A1E, size: 0x8, addend: 0x0, symName: __ZN5Eigen8internal9evaluatorINS_6MatrixIfLi3ELi3ELi0ELi3ELi3EEEED1Ev, symObjAddr: 0x7450, symBinAddr: 0x10000B4C8, symSize: 0x2C }
  - { offsetInCU: 0x261A4B, offset: 0x261A4B, size: 0x8, addend: 0x0, symName: __ZN5Eigen8internal9evaluatorINS_13CwiseBinaryOpINS0_13scalar_sum_opIffEEKNS2_IS4_KNS2_IS4_KNS2_INS0_17scalar_product_opIffEEKNS_14CwiseNullaryOpINS0_18scalar_constant_opIfEEKNS_6MatrixIfLi3ELi3ELi0ELi3ELi3EEEEESC_EEKNS2_INS0_18scalar_quotient_opIffEEKNS2_IS4_SG_SG_EESE_EEEEKNS2_ISI_SG_SE_EEEESS_EEED1Ev, symObjAddr: 0x747C, symBinAddr: 0x10000B4F4, symSize: 0x2C }
  - { offsetInCU: 0x261A78, offset: 0x261A78, size: 0x8, addend: 0x0, symName: __ZN5Eigen8internal9evaluatorINS_13CwiseBinaryOpINS0_13scalar_sum_opIffEEKNS2_IS4_KNS2_IS4_KNS2_INS0_17scalar_product_opIffEEKNS_14CwiseNullaryOpINS0_18scalar_constant_opIfEEKNS_6MatrixIfLi3ELi3ELi0ELi3ELi3EEEEESC_EEKNS2_INS0_18scalar_quotient_opIffEEKNS2_IS4_SG_SG_EESE_EEEEKNS2_ISI_SG_SE_EEEESS_EEEC2ERKST_, symObjAddr: 0x74A8, symBinAddr: 0x10000B520, symSize: 0x34 }
  - { offsetInCU: 0x261AB1, offset: 0x261AB1, size: 0x8, addend: 0x0, symName: __ZN5Eigen8internal16binary_evaluatorINS_13CwiseBinaryOpINS0_13scalar_sum_opIffEEKNS2_IS4_KNS2_IS4_KNS2_INS0_17scalar_product_opIffEEKNS_14CwiseNullaryOpINS0_18scalar_constant_opIfEEKNS_6MatrixIfLi3ELi3ELi0ELi3ELi3EEEEESC_EEKNS2_INS0_18scalar_quotient_opIffEEKNS2_IS4_SG_SG_EESE_EEEEKNS2_ISI_SG_SE_EEEESS_EENS0_10IndexBasedESU_ffEC2ERKST_, symObjAddr: 0x74DC, symBinAddr: 0x10000B554, symSize: 0x64 }
  - { offsetInCU: 0x261AEA, offset: 0x261AEA, size: 0x8, addend: 0x0, symName: __ZN5Eigen8internal14evaluator_baseINS_13CwiseBinaryOpINS0_13scalar_sum_opIffEEKNS2_IS4_KNS2_IS4_KNS2_INS0_17scalar_product_opIffEEKNS_14CwiseNullaryOpINS0_18scalar_constant_opIfEEKNS_6MatrixIfLi3ELi3ELi0ELi3ELi3EEEEESC_EEKNS2_INS0_18scalar_quotient_opIffEEKNS2_IS4_SG_SG_EESE_EEEEKNS2_ISI_SG_SE_EEEESS_EEEC2Ev, symObjAddr: 0x7540, symBinAddr: 0x10000B5B8, symSize: 0x14 }
  - { offsetInCU: 0x261B14, offset: 0x261B14, size: 0x8, addend: 0x0, symName: __ZN5Eigen8internal16binary_evaluatorINS_13CwiseBinaryOpINS0_13scalar_sum_opIffEEKNS2_IS4_KNS2_IS4_KNS2_INS0_17scalar_product_opIffEEKNS_14CwiseNullaryOpINS0_18scalar_constant_opIfEEKNS_6MatrixIfLi3ELi3ELi0ELi3ELi3EEEEESC_EEKNS2_INS0_18scalar_quotient_opIffEEKNS2_IS4_SG_SG_EESE_EEEEKNS2_ISI_SG_SE_EEEESS_EENS0_10IndexBasedESU_ffE4DataC1ERKST_, symObjAddr: 0x7554, symBinAddr: 0x10000B5CC, symSize: 0x34 }
  - { offsetInCU: 0x261B4D, offset: 0x261B4D, size: 0x8, addend: 0x0, symName: __ZN5Eigen8internal14evaluator_baseINS_13CwiseBinaryOpINS0_13scalar_sum_opIffEEKNS2_IS4_KNS2_IS4_KNS2_INS0_17scalar_product_opIffEEKNS_14CwiseNullaryOpINS0_18scalar_constant_opIfEEKNS_6MatrixIfLi3ELi3ELi0ELi3ELi3EEEEESC_EEKNS2_INS0_18scalar_quotient_opIffEEKNS2_IS4_SG_SG_EESE_EEEEKNS2_ISI_SG_SE_EEEESS_EEED2Ev, symObjAddr: 0x7588, symBinAddr: 0x10000B600, symSize: 0x14 }
  - { offsetInCU: 0x261B77, offset: 0x261B77, size: 0x8, addend: 0x0, symName: __ZN5Eigen8internal16binary_evaluatorINS_13CwiseBinaryOpINS0_13scalar_sum_opIffEEKNS2_IS4_KNS2_IS4_KNS2_INS0_17scalar_product_opIffEEKNS_14CwiseNullaryOpINS0_18scalar_constant_opIfEEKNS_6MatrixIfLi3ELi3ELi0ELi3ELi3EEEEESC_EEKNS2_INS0_18scalar_quotient_opIffEEKNS2_IS4_SG_SG_EESE_EEEEKNS2_ISI_SG_SE_EEEESS_EENS0_10IndexBasedESU_ffE4DataC2ERKST_, symObjAddr: 0x759C, symBinAddr: 0x10000B614, symSize: 0xA8 }
  - { offsetInCU: 0x261BB0, offset: 0x261BB0, size: 0x8, addend: 0x0, symName: __ZNK5Eigen13CwiseBinaryOpINS_8internal13scalar_sum_opIffEEKNS0_IS3_KNS0_IS3_KNS0_INS1_17scalar_product_opIffEEKNS_14CwiseNullaryOpINS1_18scalar_constant_opIfEEKNS_6MatrixIfLi3ELi3ELi0ELi3ELi3EEEEESB_EEKNS0_INS1_18scalar_quotient_opIffEEKNS0_IS3_SF_SF_EESD_EEEEKNS0_ISH_SF_SD_EEEESR_E7functorEv, symObjAddr: 0x7644, symBinAddr: 0x10000B6BC, symSize: 0x18 }
  - { offsetInCU: 0x261BD6, offset: 0x261BD6, size: 0x8, addend: 0x0, symName: __ZNK5Eigen13CwiseBinaryOpINS_8internal13scalar_sum_opIffEEKNS0_IS3_KNS0_IS3_KNS0_INS1_17scalar_product_opIffEEKNS_14CwiseNullaryOpINS1_18scalar_constant_opIfEEKNS_6MatrixIfLi3ELi3ELi0ELi3ELi3EEEEESB_EEKNS0_INS1_18scalar_quotient_opIffEEKNS0_IS3_SF_SF_EESD_EEEEKNS0_ISH_SF_SD_EEEESR_E3lhsEv, symObjAddr: 0x765C, symBinAddr: 0x10000B6D4, symSize: 0x18 }
  - { offsetInCU: 0x261BFC, offset: 0x261BFC, size: 0x8, addend: 0x0, symName: __ZN5Eigen8internal9evaluatorIKNS_13CwiseBinaryOpINS0_13scalar_sum_opIffEEKNS2_IS4_KNS2_INS0_17scalar_product_opIffEEKNS_14CwiseNullaryOpINS0_18scalar_constant_opIfEEKNS_6MatrixIfLi3ELi3ELi0ELi3ELi3EEEEESC_EEKNS2_INS0_18scalar_quotient_opIffEEKNS2_IS4_SG_SG_EESE_EEEEKNS2_ISI_SG_SE_EEEEEC1ERSS_, symObjAddr: 0x7674, symBinAddr: 0x10000B6EC, symSize: 0x34 }
  - { offsetInCU: 0x261C34, offset: 0x261C34, size: 0x8, addend: 0x0, symName: __ZNK5Eigen13CwiseBinaryOpINS_8internal13scalar_sum_opIffEEKNS0_IS3_KNS0_IS3_KNS0_INS1_17scalar_product_opIffEEKNS_14CwiseNullaryOpINS1_18scalar_constant_opIfEEKNS_6MatrixIfLi3ELi3ELi0ELi3ELi3EEEEESB_EEKNS0_INS1_18scalar_quotient_opIffEEKNS0_IS3_SF_SF_EESD_EEEEKNS0_ISH_SF_SD_EEEESR_E3rhsEv, symObjAddr: 0x76A8, symBinAddr: 0x10000B720, symSize: 0x18 }
  - { offsetInCU: 0x261C5A, offset: 0x261C5A, size: 0x8, addend: 0x0, symName: __ZN5Eigen8internal9evaluatorIKNS_13CwiseBinaryOpINS0_13scalar_sum_opIffEEKNS2_IS4_KNS2_INS0_17scalar_product_opIffEEKNS_14CwiseNullaryOpINS0_18scalar_constant_opIfEEKNS_6MatrixIfLi3ELi3ELi0ELi3ELi3EEEEESC_EEKNS2_INS0_18scalar_quotient_opIffEEKNS2_IS4_SG_SG_EESE_EEEEKNS2_ISI_SG_SE_EEEEED1Ev, symObjAddr: 0x76C0, symBinAddr: 0x10000B738, symSize: 0x2C }
  - { offsetInCU: 0x261C86, offset: 0x261C86, size: 0x8, addend: 0x0, symName: __ZN5Eigen8internal9evaluatorIKNS_13CwiseBinaryOpINS0_13scalar_sum_opIffEEKNS2_IS4_KNS2_INS0_17scalar_product_opIffEEKNS_14CwiseNullaryOpINS0_18scalar_constant_opIfEEKNS_6MatrixIfLi3ELi3ELi0ELi3ELi3EEEEESC_EEKNS2_INS0_18scalar_quotient_opIffEEKNS2_IS4_SG_SG_EESE_EEEEKNS2_ISI_SG_SE_EEEEEC2ERSS_, symObjAddr: 0x76EC, symBinAddr: 0x10000B764, symSize: 0x34 }
  - { offsetInCU: 0x261CBE, offset: 0x261CBE, size: 0x8, addend: 0x0, symName: __ZN5Eigen8internal9evaluatorINS_13CwiseBinaryOpINS0_13scalar_sum_opIffEEKNS2_IS4_KNS2_INS0_17scalar_product_opIffEEKNS_14CwiseNullaryOpINS0_18scalar_constant_opIfEEKNS_6MatrixIfLi3ELi3ELi0ELi3ELi3EEEEESC_EEKNS2_INS0_18scalar_quotient_opIffEEKNS2_IS4_SG_SG_EESE_EEEEKNS2_ISI_SG_SE_EEEEEC2ERKSR_, symObjAddr: 0x7720, symBinAddr: 0x10000B798, symSize: 0x34 }
  - { offsetInCU: 0x261CF7, offset: 0x261CF7, size: 0x8, addend: 0x0, symName: __ZN5Eigen8internal16binary_evaluatorINS_13CwiseBinaryOpINS0_13scalar_sum_opIffEEKNS2_IS4_KNS2_INS0_17scalar_product_opIffEEKNS_14CwiseNullaryOpINS0_18scalar_constant_opIfEEKNS_6MatrixIfLi3ELi3ELi0ELi3ELi3EEEEESC_EEKNS2_INS0_18scalar_quotient_opIffEEKNS2_IS4_SG_SG_EESE_EEEEKNS2_ISI_SG_SE_EEEENS0_10IndexBasedESS_ffEC2ERKSR_, symObjAddr: 0x7754, symBinAddr: 0x10000B7CC, symSize: 0x64 }
  - { offsetInCU: 0x261D30, offset: 0x261D30, size: 0x8, addend: 0x0, symName: __ZN5Eigen8internal14evaluator_baseINS_13CwiseBinaryOpINS0_13scalar_sum_opIffEEKNS2_IS4_KNS2_INS0_17scalar_product_opIffEEKNS_14CwiseNullaryOpINS0_18scalar_constant_opIfEEKNS_6MatrixIfLi3ELi3ELi0ELi3ELi3EEEEESC_EEKNS2_INS0_18scalar_quotient_opIffEEKNS2_IS4_SG_SG_EESE_EEEEKNS2_ISI_SG_SE_EEEEEC2Ev, symObjAddr: 0x77B8, symBinAddr: 0x10000B830, symSize: 0x14 }
  - { offsetInCU: 0x261D5A, offset: 0x261D5A, size: 0x8, addend: 0x0, symName: __ZN5Eigen8internal16binary_evaluatorINS_13CwiseBinaryOpINS0_13scalar_sum_opIffEEKNS2_IS4_KNS2_INS0_17scalar_product_opIffEEKNS_14CwiseNullaryOpINS0_18scalar_constant_opIfEEKNS_6MatrixIfLi3ELi3ELi0ELi3ELi3EEEEESC_EEKNS2_INS0_18scalar_quotient_opIffEEKNS2_IS4_SG_SG_EESE_EEEEKNS2_ISI_SG_SE_EEEENS0_10IndexBasedESS_ffE4DataC1ERKSR_, symObjAddr: 0x77CC, symBinAddr: 0x10000B844, symSize: 0x34 }
  - { offsetInCU: 0x261D93, offset: 0x261D93, size: 0x8, addend: 0x0, symName: __ZN5Eigen8internal14evaluator_baseINS_13CwiseBinaryOpINS0_13scalar_sum_opIffEEKNS2_IS4_KNS2_INS0_17scalar_product_opIffEEKNS_14CwiseNullaryOpINS0_18scalar_constant_opIfEEKNS_6MatrixIfLi3ELi3ELi0ELi3ELi3EEEEESC_EEKNS2_INS0_18scalar_quotient_opIffEEKNS2_IS4_SG_SG_EESE_EEEEKNS2_ISI_SG_SE_EEEEED2Ev, symObjAddr: 0x7800, symBinAddr: 0x10000B878, symSize: 0x14 }
  - { offsetInCU: 0x261DBD, offset: 0x261DBD, size: 0x8, addend: 0x0, symName: __ZN5Eigen8internal16binary_evaluatorINS_13CwiseBinaryOpINS0_13scalar_sum_opIffEEKNS2_IS4_KNS2_INS0_17scalar_product_opIffEEKNS_14CwiseNullaryOpINS0_18scalar_constant_opIfEEKNS_6MatrixIfLi3ELi3ELi0ELi3ELi3EEEEESC_EEKNS2_INS0_18scalar_quotient_opIffEEKNS2_IS4_SG_SG_EESE_EEEEKNS2_ISI_SG_SE_EEEENS0_10IndexBasedESS_ffE4DataC2ERKSR_, symObjAddr: 0x7814, symBinAddr: 0x10000B88C, symSize: 0xA8 }
  - { offsetInCU: 0x261DF6, offset: 0x261DF6, size: 0x8, addend: 0x0, symName: __ZNK5Eigen13CwiseBinaryOpINS_8internal13scalar_sum_opIffEEKNS0_IS3_KNS0_INS1_17scalar_product_opIffEEKNS_14CwiseNullaryOpINS1_18scalar_constant_opIfEEKNS_6MatrixIfLi3ELi3ELi0ELi3ELi3EEEEESB_EEKNS0_INS1_18scalar_quotient_opIffEEKNS0_IS3_SF_SF_EESD_EEEEKNS0_ISH_SF_SD_EEE7functorEv, symObjAddr: 0x78BC, symBinAddr: 0x10000B934, symSize: 0x18 }
  - { offsetInCU: 0x261E1C, offset: 0x261E1C, size: 0x8, addend: 0x0, symName: __ZNK5Eigen13CwiseBinaryOpINS_8internal13scalar_sum_opIffEEKNS0_IS3_KNS0_INS1_17scalar_product_opIffEEKNS_14CwiseNullaryOpINS1_18scalar_constant_opIfEEKNS_6MatrixIfLi3ELi3ELi0ELi3ELi3EEEEESB_EEKNS0_INS1_18scalar_quotient_opIffEEKNS0_IS3_SF_SF_EESD_EEEEKNS0_ISH_SF_SD_EEE3lhsEv, symObjAddr: 0x78D4, symBinAddr: 0x10000B94C, symSize: 0x18 }
  - { offsetInCU: 0x261E42, offset: 0x261E42, size: 0x8, addend: 0x0, symName: __ZN5Eigen8internal9evaluatorIKNS_13CwiseBinaryOpINS0_13scalar_sum_opIffEEKNS2_INS0_17scalar_product_opIffEEKNS_14CwiseNullaryOpINS0_18scalar_constant_opIfEEKNS_6MatrixIfLi3ELi3ELi0ELi3ELi3EEEEESC_EEKNS2_INS0_18scalar_quotient_opIffEEKNS2_IS4_SG_SG_EESE_EEEEEC1ERSO_, symObjAddr: 0x78EC, symBinAddr: 0x10000B964, symSize: 0x34 }
  - { offsetInCU: 0x261E7A, offset: 0x261E7A, size: 0x8, addend: 0x0, symName: __ZNK5Eigen13CwiseBinaryOpINS_8internal13scalar_sum_opIffEEKNS0_IS3_KNS0_INS1_17scalar_product_opIffEEKNS_14CwiseNullaryOpINS1_18scalar_constant_opIfEEKNS_6MatrixIfLi3ELi3ELi0ELi3ELi3EEEEESB_EEKNS0_INS1_18scalar_quotient_opIffEEKNS0_IS3_SF_SF_EESD_EEEEKNS0_ISH_SF_SD_EEE3rhsEv, symObjAddr: 0x7920, symBinAddr: 0x10000B998, symSize: 0x18 }
  - { offsetInCU: 0x261EA0, offset: 0x261EA0, size: 0x8, addend: 0x0, symName: __ZN5Eigen8internal9evaluatorIKNS_13CwiseBinaryOpINS0_18scalar_quotient_opIffEEKNS2_INS0_17scalar_product_opIffEEKNS_14CwiseNullaryOpINS0_18scalar_constant_opIfEEKNS_6MatrixIfLi3ELi3ELi0ELi3ELi3EEEEESC_EESE_EEEC1ERSI_, symObjAddr: 0x7938, symBinAddr: 0x10000B9B0, symSize: 0x34 }
  - { offsetInCU: 0x261ED8, offset: 0x261ED8, size: 0x8, addend: 0x0, symName: __ZN5Eigen8internal9evaluatorIKNS_13CwiseBinaryOpINS0_13scalar_sum_opIffEEKNS2_INS0_17scalar_product_opIffEEKNS_14CwiseNullaryOpINS0_18scalar_constant_opIfEEKNS_6MatrixIfLi3ELi3ELi0ELi3ELi3EEEEESC_EEKNS2_INS0_18scalar_quotient_opIffEEKNS2_IS4_SG_SG_EESE_EEEEED1Ev, symObjAddr: 0x796C, symBinAddr: 0x10000B9E4, symSize: 0x2C }
  - { offsetInCU: 0x261F04, offset: 0x261F04, size: 0x8, addend: 0x0, symName: __ZN5Eigen8internal9evaluatorIKNS_13CwiseBinaryOpINS0_13scalar_sum_opIffEEKNS2_INS0_17scalar_product_opIffEEKNS_14CwiseNullaryOpINS0_18scalar_constant_opIfEEKNS_6MatrixIfLi3ELi3ELi0ELi3ELi3EEEEESC_EEKNS2_INS0_18scalar_quotient_opIffEEKNS2_IS4_SG_SG_EESE_EEEEEC2ERSO_, symObjAddr: 0x7998, symBinAddr: 0x10000BA10, symSize: 0x34 }
  - { offsetInCU: 0x261F3C, offset: 0x261F3C, size: 0x8, addend: 0x0, symName: __ZN5Eigen8internal9evaluatorINS_13CwiseBinaryOpINS0_13scalar_sum_opIffEEKNS2_INS0_17scalar_product_opIffEEKNS_14CwiseNullaryOpINS0_18scalar_constant_opIfEEKNS_6MatrixIfLi3ELi3ELi0ELi3ELi3EEEEESC_EEKNS2_INS0_18scalar_quotient_opIffEEKNS2_IS4_SG_SG_EESE_EEEEEC2ERKSN_, symObjAddr: 0x79CC, symBinAddr: 0x10000BA44, symSize: 0x34 }
  - { offsetInCU: 0x261F75, offset: 0x261F75, size: 0x8, addend: 0x0, symName: __ZN5Eigen8internal16binary_evaluatorINS_13CwiseBinaryOpINS0_13scalar_sum_opIffEEKNS2_INS0_17scalar_product_opIffEEKNS_14CwiseNullaryOpINS0_18scalar_constant_opIfEEKNS_6MatrixIfLi3ELi3ELi0ELi3ELi3EEEEESC_EEKNS2_INS0_18scalar_quotient_opIffEEKNS2_IS4_SG_SG_EESE_EEEENS0_10IndexBasedESO_ffEC2ERKSN_, symObjAddr: 0x7A00, symBinAddr: 0x10000BA78, symSize: 0x64 }
  - { offsetInCU: 0x261FAE, offset: 0x261FAE, size: 0x8, addend: 0x0, symName: __ZN5Eigen8internal14evaluator_baseINS_13CwiseBinaryOpINS0_13scalar_sum_opIffEEKNS2_INS0_17scalar_product_opIffEEKNS_14CwiseNullaryOpINS0_18scalar_constant_opIfEEKNS_6MatrixIfLi3ELi3ELi0ELi3ELi3EEEEESC_EEKNS2_INS0_18scalar_quotient_opIffEEKNS2_IS4_SG_SG_EESE_EEEEEC2Ev, symObjAddr: 0x7A64, symBinAddr: 0x10000BADC, symSize: 0x14 }
  - { offsetInCU: 0x261FD8, offset: 0x261FD8, size: 0x8, addend: 0x0, symName: __ZN5Eigen8internal16binary_evaluatorINS_13CwiseBinaryOpINS0_13scalar_sum_opIffEEKNS2_INS0_17scalar_product_opIffEEKNS_14CwiseNullaryOpINS0_18scalar_constant_opIfEEKNS_6MatrixIfLi3ELi3ELi0ELi3ELi3EEEEESC_EEKNS2_INS0_18scalar_quotient_opIffEEKNS2_IS4_SG_SG_EESE_EEEENS0_10IndexBasedESO_ffE4DataC1ERKSN_, symObjAddr: 0x7A78, symBinAddr: 0x10000BAF0, symSize: 0x34 }
  - { offsetInCU: 0x262011, offset: 0x262011, size: 0x8, addend: 0x0, symName: __ZN5Eigen8internal14evaluator_baseINS_13CwiseBinaryOpINS0_13scalar_sum_opIffEEKNS2_INS0_17scalar_product_opIffEEKNS_14CwiseNullaryOpINS0_18scalar_constant_opIfEEKNS_6MatrixIfLi3ELi3ELi0ELi3ELi3EEEEESC_EEKNS2_INS0_18scalar_quotient_opIffEEKNS2_IS4_SG_SG_EESE_EEEEED2Ev, symObjAddr: 0x7AAC, symBinAddr: 0x10000BB24, symSize: 0x14 }
  - { offsetInCU: 0x26203B, offset: 0x26203B, size: 0x8, addend: 0x0, symName: __ZN5Eigen8internal16binary_evaluatorINS_13CwiseBinaryOpINS0_13scalar_sum_opIffEEKNS2_INS0_17scalar_product_opIffEEKNS_14CwiseNullaryOpINS0_18scalar_constant_opIfEEKNS_6MatrixIfLi3ELi3ELi0ELi3ELi3EEEEESC_EEKNS2_INS0_18scalar_quotient_opIffEEKNS2_IS4_SG_SG_EESE_EEEENS0_10IndexBasedESO_ffE4DataC2ERKSN_, symObjAddr: 0x7AC0, symBinAddr: 0x10000BB38, symSize: 0xA8 }
  - { offsetInCU: 0x262074, offset: 0x262074, size: 0x8, addend: 0x0, symName: __ZNK5Eigen13CwiseBinaryOpINS_8internal13scalar_sum_opIffEEKNS0_INS1_17scalar_product_opIffEEKNS_14CwiseNullaryOpINS1_18scalar_constant_opIfEEKNS_6MatrixIfLi3ELi3ELi0ELi3ELi3EEEEESB_EEKNS0_INS1_18scalar_quotient_opIffEEKNS0_IS3_SF_SF_EESD_EEE7functorEv, symObjAddr: 0x7B68, symBinAddr: 0x10000BBE0, symSize: 0x18 }
  - { offsetInCU: 0x26209A, offset: 0x26209A, size: 0x8, addend: 0x0, symName: __ZNK5Eigen13CwiseBinaryOpINS_8internal13scalar_sum_opIffEEKNS0_INS1_17scalar_product_opIffEEKNS_14CwiseNullaryOpINS1_18scalar_constant_opIfEEKNS_6MatrixIfLi3ELi3ELi0ELi3ELi3EEEEESB_EEKNS0_INS1_18scalar_quotient_opIffEEKNS0_IS3_SF_SF_EESD_EEE3lhsEv, symObjAddr: 0x7B80, symBinAddr: 0x10000BBF8, symSize: 0x18 }
  - { offsetInCU: 0x2620C0, offset: 0x2620C0, size: 0x8, addend: 0x0, symName: __ZN5Eigen8internal9evaluatorIKNS_13CwiseBinaryOpINS0_17scalar_product_opIffEEKNS_14CwiseNullaryOpINS0_18scalar_constant_opIfEEKNS_6MatrixIfLi3ELi3ELi0ELi3ELi3EEEEESA_EEEC1ERSE_, symObjAddr: 0x7B98, symBinAddr: 0x10000BC10, symSize: 0x34 }
  - { offsetInCU: 0x2620F8, offset: 0x2620F8, size: 0x8, addend: 0x0, symName: __ZNK5Eigen13CwiseBinaryOpINS_8internal13scalar_sum_opIffEEKNS0_INS1_17scalar_product_opIffEEKNS_14CwiseNullaryOpINS1_18scalar_constant_opIfEEKNS_6MatrixIfLi3ELi3ELi0ELi3ELi3EEEEESB_EEKNS0_INS1_18scalar_quotient_opIffEEKNS0_IS3_SF_SF_EESD_EEE3rhsEv, symObjAddr: 0x7BCC, symBinAddr: 0x10000BC44, symSize: 0x18 }
  - { offsetInCU: 0x26211E, offset: 0x26211E, size: 0x8, addend: 0x0, symName: __ZN5Eigen8internal9evaluatorIKNS_13CwiseBinaryOpINS0_18scalar_quotient_opIffEEKNS2_INS0_13scalar_sum_opIffEEKNS2_INS0_17scalar_product_opIffEEKNS_14CwiseNullaryOpINS0_18scalar_constant_opIfEEKNS_6MatrixIfLi3ELi3ELi0ELi3ELi3EEEEESE_EESI_EESG_EEEC1ERSM_, symObjAddr: 0x7BE4, symBinAddr: 0x10000BC5C, symSize: 0x34 }
  - { offsetInCU: 0x262156, offset: 0x262156, size: 0x8, addend: 0x0, symName: __ZN5Eigen8internal9evaluatorIKNS_13CwiseBinaryOpINS0_17scalar_product_opIffEEKNS_14CwiseNullaryOpINS0_18scalar_constant_opIfEEKNS_6MatrixIfLi3ELi3ELi0ELi3ELi3EEEEESA_EEED1Ev, symObjAddr: 0x7C18, symBinAddr: 0x10000BC90, symSize: 0x2C }
  - { offsetInCU: 0x262182, offset: 0x262182, size: 0x8, addend: 0x0, symName: __ZN5Eigen8internal9evaluatorIKNS_13CwiseBinaryOpINS0_17scalar_product_opIffEEKNS_14CwiseNullaryOpINS0_18scalar_constant_opIfEEKNS_6MatrixIfLi3ELi3ELi0ELi3ELi3EEEEESA_EEEC2ERSE_, symObjAddr: 0x7C44, symBinAddr: 0x10000BCBC, symSize: 0x34 }
  - { offsetInCU: 0x2621BA, offset: 0x2621BA, size: 0x8, addend: 0x0, symName: __ZN5Eigen8internal9evaluatorINS_13CwiseBinaryOpINS0_17scalar_product_opIffEEKNS_14CwiseNullaryOpINS0_18scalar_constant_opIfEEKNS_6MatrixIfLi3ELi3ELi0ELi3ELi3EEEEESA_EEEC2ERKSD_, symObjAddr: 0x7C78, symBinAddr: 0x10000BCF0, symSize: 0x34 }
  - { offsetInCU: 0x2621F3, offset: 0x2621F3, size: 0x8, addend: 0x0, symName: __ZN5Eigen8internal16binary_evaluatorINS_13CwiseBinaryOpINS0_17scalar_product_opIffEEKNS_14CwiseNullaryOpINS0_18scalar_constant_opIfEEKNS_6MatrixIfLi3ELi3ELi0ELi3ELi3EEEEESA_EENS0_10IndexBasedESE_ffEC2ERKSD_, symObjAddr: 0x7CAC, symBinAddr: 0x10000BD24, symSize: 0x64 }
  - { offsetInCU: 0x26222C, offset: 0x26222C, size: 0x8, addend: 0x0, symName: __ZN5Eigen8internal14evaluator_baseINS_13CwiseBinaryOpINS0_17scalar_product_opIffEEKNS_14CwiseNullaryOpINS0_18scalar_constant_opIfEEKNS_6MatrixIfLi3ELi3ELi0ELi3ELi3EEEEESA_EEEC2Ev, symObjAddr: 0x7D10, symBinAddr: 0x10000BD88, symSize: 0x14 }
  - { offsetInCU: 0x262256, offset: 0x262256, size: 0x8, addend: 0x0, symName: __ZN5Eigen8internal16binary_evaluatorINS_13CwiseBinaryOpINS0_17scalar_product_opIffEEKNS_14CwiseNullaryOpINS0_18scalar_constant_opIfEEKNS_6MatrixIfLi3ELi3ELi0ELi3ELi3EEEEESA_EENS0_10IndexBasedESE_ffE4DataC1ERKSD_, symObjAddr: 0x7D24, symBinAddr: 0x10000BD9C, symSize: 0x34 }
  - { offsetInCU: 0x26228F, offset: 0x26228F, size: 0x8, addend: 0x0, symName: __ZN5Eigen8internal14evaluator_baseINS_13CwiseBinaryOpINS0_17scalar_product_opIffEEKNS_14CwiseNullaryOpINS0_18scalar_constant_opIfEEKNS_6MatrixIfLi3ELi3ELi0ELi3ELi3EEEEESA_EEED2Ev, symObjAddr: 0x7D58, symBinAddr: 0x10000BDD0, symSize: 0x14 }
  - { offsetInCU: 0x2622B9, offset: 0x2622B9, size: 0x8, addend: 0x0, symName: __ZN5Eigen8internal16binary_evaluatorINS_13CwiseBinaryOpINS0_17scalar_product_opIffEEKNS_14CwiseNullaryOpINS0_18scalar_constant_opIfEEKNS_6MatrixIfLi3ELi3ELi0ELi3ELi3EEEEESA_EENS0_10IndexBasedESE_ffE4DataC2ERKSD_, symObjAddr: 0x7D6C, symBinAddr: 0x10000BDE4, symSize: 0xA8 }
  - { offsetInCU: 0x2622F2, offset: 0x2622F2, size: 0x8, addend: 0x0, symName: __ZNK5Eigen13CwiseBinaryOpINS_8internal17scalar_product_opIffEEKNS_14CwiseNullaryOpINS1_18scalar_constant_opIfEEKNS_6MatrixIfLi3ELi3ELi0ELi3ELi3EEEEES9_E7functorEv, symObjAddr: 0x7E14, symBinAddr: 0x10000BE8C, symSize: 0x18 }
  - { offsetInCU: 0x262318, offset: 0x262318, size: 0x8, addend: 0x0, symName: __ZNK5Eigen13CwiseBinaryOpINS_8internal17scalar_product_opIffEEKNS_14CwiseNullaryOpINS1_18scalar_constant_opIfEEKNS_6MatrixIfLi3ELi3ELi0ELi3ELi3EEEEES9_E3lhsEv, symObjAddr: 0x7E2C, symBinAddr: 0x10000BEA4, symSize: 0x18 }
  - { offsetInCU: 0x26233E, offset: 0x26233E, size: 0x8, addend: 0x0, symName: __ZN5Eigen8internal9evaluatorIKNS_14CwiseNullaryOpINS0_18scalar_constant_opIfEEKNS_6MatrixIfLi3ELi3ELi0ELi3ELi3EEEEEEC1ERS9_, symObjAddr: 0x7E44, symBinAddr: 0x10000BEBC, symSize: 0x34 }
  - { offsetInCU: 0x262376, offset: 0x262376, size: 0x8, addend: 0x0, symName: __ZNK5Eigen13CwiseBinaryOpINS_8internal17scalar_product_opIffEEKNS_14CwiseNullaryOpINS1_18scalar_constant_opIfEEKNS_6MatrixIfLi3ELi3ELi0ELi3ELi3EEEEES9_E3rhsEv, symObjAddr: 0x7E78, symBinAddr: 0x10000BEF0, symSize: 0x18 }
  - { offsetInCU: 0x26239C, offset: 0x26239C, size: 0x8, addend: 0x0, symName: __ZN5Eigen8internal9evaluatorIKNS_6MatrixIfLi3ELi3ELi0ELi3ELi3EEEEC1ERS4_, symObjAddr: 0x7E90, symBinAddr: 0x10000BF08, symSize: 0x34 }
  - { offsetInCU: 0x2623D4, offset: 0x2623D4, size: 0x8, addend: 0x0, symName: __ZN5Eigen8internal9evaluatorIKNS_14CwiseNullaryOpINS0_18scalar_constant_opIfEEKNS_6MatrixIfLi3ELi3ELi0ELi3ELi3EEEEEED1Ev, symObjAddr: 0x7EC4, symBinAddr: 0x10000BF3C, symSize: 0x2C }
  - { offsetInCU: 0x262400, offset: 0x262400, size: 0x8, addend: 0x0, symName: __ZN5Eigen8internal9evaluatorIKNS_14CwiseNullaryOpINS0_18scalar_constant_opIfEEKNS_6MatrixIfLi3ELi3ELi0ELi3ELi3EEEEEEC2ERS9_, symObjAddr: 0x7EF0, symBinAddr: 0x10000BF68, symSize: 0x34 }
  - { offsetInCU: 0x262438, offset: 0x262438, size: 0x8, addend: 0x0, symName: __ZN5Eigen8internal9evaluatorINS_14CwiseNullaryOpINS0_18scalar_constant_opIfEEKNS_6MatrixIfLi3ELi3ELi0ELi3ELi3EEEEEEC2ERKS8_, symObjAddr: 0x7F24, symBinAddr: 0x10000BF9C, symSize: 0x74 }
  - { offsetInCU: 0x262471, offset: 0x262471, size: 0x8, addend: 0x0, symName: __ZN5Eigen8internal14evaluator_baseINS_14CwiseNullaryOpINS0_18scalar_constant_opIfEEKNS_6MatrixIfLi3ELi3ELi0ELi3ELi3EEEEEEC2Ev, symObjAddr: 0x7F98, symBinAddr: 0x10000C010, symSize: 0x14 }
  - { offsetInCU: 0x26249B, offset: 0x26249B, size: 0x8, addend: 0x0, symName: __ZNK5Eigen14CwiseNullaryOpINS_8internal18scalar_constant_opIfEEKNS_6MatrixIfLi3ELi3ELi0ELi3ELi3EEEE7functorEv, symObjAddr: 0x7FAC, symBinAddr: 0x10000C024, symSize: 0x18 }
  - { offsetInCU: 0x2624C1, offset: 0x2624C1, size: 0x8, addend: 0x0, symName: __ZN5Eigen8internal14evaluator_baseINS_14CwiseNullaryOpINS0_18scalar_constant_opIfEEKNS_6MatrixIfLi3ELi3ELi0ELi3ELi3EEEEEED2Ev, symObjAddr: 0x7FC4, symBinAddr: 0x10000C03C, symSize: 0x14 }
  - { offsetInCU: 0x2624EB, offset: 0x2624EB, size: 0x8, addend: 0x0, symName: __ZN5Eigen8internal9evaluatorIKNS_6MatrixIfLi3ELi3ELi0ELi3ELi3EEEEC2ERS4_, symObjAddr: 0x7FD8, symBinAddr: 0x10000C050, symSize: 0x34 }
  - { offsetInCU: 0x262523, offset: 0x262523, size: 0x8, addend: 0x0, symName: __ZN5Eigen8internal9evaluatorINS_6MatrixIfLi3ELi3ELi0ELi3ELi3EEEEC2ERKS3_, symObjAddr: 0x800C, symBinAddr: 0x10000C084, symSize: 0x34 }
  - { offsetInCU: 0x26255C, offset: 0x26255C, size: 0x8, addend: 0x0, symName: __ZN5Eigen8internal9evaluatorINS_15PlainObjectBaseINS_6MatrixIfLi3ELi3ELi0ELi3ELi3EEEEEEC2ERKS5_, symObjAddr: 0x8040, symBinAddr: 0x10000C0B8, symSize: 0x80 }
  - { offsetInCU: 0x262594, offset: 0x262594, size: 0x8, addend: 0x0, symName: __ZN5Eigen8internal14evaluator_baseINS_6MatrixIfLi3ELi3ELi0ELi3ELi3EEEEC2Ev, symObjAddr: 0x80C0, symBinAddr: 0x10000C138, symSize: 0x14 }
  - { offsetInCU: 0x2625BE, offset: 0x2625BE, size: 0x8, addend: 0x0, symName: __ZNK5Eigen15PlainObjectBaseINS_6MatrixIfLi3ELi3ELi0ELi3ELi3EEEE4dataEv, symObjAddr: 0x80D4, symBinAddr: 0x10000C14C, symSize: 0x24 }
  - { offsetInCU: 0x2625E4, offset: 0x2625E4, size: 0x8, addend: 0x0, symName: __ZNK5Eigen15DenseCoeffsBaseINS_6MatrixIfLi3ELi3ELi0ELi3ELi3EEELi3EE11outerStrideEv, symObjAddr: 0x80F8, symBinAddr: 0x10000C170, symSize: 0x28 }
  - { offsetInCU: 0x26260A, offset: 0x26260A, size: 0x8, addend: 0x0, symName: __ZN5Eigen8internal30plainobjectbase_evaluator_dataIfLi3EEC1EPKfl, symObjAddr: 0x8120, symBinAddr: 0x10000C198, symSize: 0x3C }
  - { offsetInCU: 0x262650, offset: 0x262650, size: 0x8, addend: 0x0, symName: __ZN5Eigen8internal14evaluator_baseINS_6MatrixIfLi3ELi3ELi0ELi3ELi3EEEED2Ev, symObjAddr: 0x815C, symBinAddr: 0x10000C1D4, symSize: 0x14 }
  - { offsetInCU: 0x26267A, offset: 0x26267A, size: 0x8, addend: 0x0, symName: __ZNK5Eigen12DenseStorageIfLi9ELi3ELi3ELi0EE4dataEv, symObjAddr: 0x8170, symBinAddr: 0x10000C1E8, symSize: 0x14 }
  - { offsetInCU: 0x2626A0, offset: 0x2626A0, size: 0x8, addend: 0x0, symName: __ZNK5Eigen6MatrixIfLi3ELi3ELi0ELi3ELi3EE11outerStrideEv, symObjAddr: 0x8184, symBinAddr: 0x10000C1FC, symSize: 0x34 }
  - { offsetInCU: 0x2626C6, offset: 0x2626C6, size: 0x8, addend: 0x0, symName: __ZNK5Eigen9DenseBaseINS_6MatrixIfLi3ELi3ELi0ELi3ELi3EEEE9innerSizeEv, symObjAddr: 0x81B8, symBinAddr: 0x10000C230, symSize: 0x24 }
  - { offsetInCU: 0x2626EC, offset: 0x2626EC, size: 0x8, addend: 0x0, symName: __ZNK5Eigen9EigenBaseINS_6MatrixIfLi3ELi3ELi0ELi3ELi3EEEE4rowsEv, symObjAddr: 0x81DC, symBinAddr: 0x10000C254, symSize: 0x28 }
  - { offsetInCU: 0x262712, offset: 0x262712, size: 0x8, addend: 0x0, symName: __ZN5Eigen8internal30plainobjectbase_evaluator_dataIfLi3EEC2EPKfl, symObjAddr: 0x8204, symBinAddr: 0x10000C27C, symSize: 0x40 }
  - { offsetInCU: 0x262758, offset: 0x262758, size: 0x8, addend: 0x0, symName: __ZN5Eigen8internal9evaluatorIKNS_14CwiseNullaryOpINS0_18scalar_constant_opIfEEKNS_6MatrixIfLi3ELi3ELi0ELi3ELi3EEEEEED2Ev, symObjAddr: 0x8244, symBinAddr: 0x10000C2BC, symSize: 0x2C }
  - { offsetInCU: 0x262784, offset: 0x262784, size: 0x8, addend: 0x0, symName: __ZN5Eigen8internal9evaluatorINS_14CwiseNullaryOpINS0_18scalar_constant_opIfEEKNS_6MatrixIfLi3ELi3ELi0ELi3ELi3EEEEEED2Ev, symObjAddr: 0x8270, symBinAddr: 0x10000C2E8, symSize: 0x2C }
  - { offsetInCU: 0x2627B0, offset: 0x2627B0, size: 0x8, addend: 0x0, symName: __ZN5Eigen8internal9evaluatorIKNS_13CwiseBinaryOpINS0_18scalar_quotient_opIffEEKNS2_INS0_13scalar_sum_opIffEEKNS2_INS0_17scalar_product_opIffEEKNS_14CwiseNullaryOpINS0_18scalar_constant_opIfEEKNS_6MatrixIfLi3ELi3ELi0ELi3ELi3EEEEESE_EESI_EESG_EEEC2ERSM_, symObjAddr: 0x829C, symBinAddr: 0x10000C314, symSize: 0x34 }
  - { offsetInCU: 0x2627E8, offset: 0x2627E8, size: 0x8, addend: 0x0, symName: __ZN5Eigen8internal9evaluatorINS_13CwiseBinaryOpINS0_18scalar_quotient_opIffEEKNS2_INS0_13scalar_sum_opIffEEKNS2_INS0_17scalar_product_opIffEEKNS_14CwiseNullaryOpINS0_18scalar_constant_opIfEEKNS_6MatrixIfLi3ELi3ELi0ELi3ELi3EEEEESE_EESI_EESG_EEEC2ERKSL_, symObjAddr: 0x82D0, symBinAddr: 0x10000C348, symSize: 0x34 }
  - { offsetInCU: 0x262821, offset: 0x262821, size: 0x8, addend: 0x0, symName: __ZN5Eigen8internal16binary_evaluatorINS_13CwiseBinaryOpINS0_18scalar_quotient_opIffEEKNS2_INS0_13scalar_sum_opIffEEKNS2_INS0_17scalar_product_opIffEEKNS_14CwiseNullaryOpINS0_18scalar_constant_opIfEEKNS_6MatrixIfLi3ELi3ELi0ELi3ELi3EEEEESE_EESI_EESG_EENS0_10IndexBasedESM_ffEC2ERKSL_, symObjAddr: 0x8304, symBinAddr: 0x10000C37C, symSize: 0x64 }
  - { offsetInCU: 0x26285A, offset: 0x26285A, size: 0x8, addend: 0x0, symName: __ZN5Eigen8internal14evaluator_baseINS_13CwiseBinaryOpINS0_18scalar_quotient_opIffEEKNS2_INS0_13scalar_sum_opIffEEKNS2_INS0_17scalar_product_opIffEEKNS_14CwiseNullaryOpINS0_18scalar_constant_opIfEEKNS_6MatrixIfLi3ELi3ELi0ELi3ELi3EEEEESE_EESI_EESG_EEEC2Ev, symObjAddr: 0x8368, symBinAddr: 0x10000C3E0, symSize: 0x14 }
  - { offsetInCU: 0x262884, offset: 0x262884, size: 0x8, addend: 0x0, symName: __ZN5Eigen8internal16binary_evaluatorINS_13CwiseBinaryOpINS0_18scalar_quotient_opIffEEKNS2_INS0_13scalar_sum_opIffEEKNS2_INS0_17scalar_product_opIffEEKNS_14CwiseNullaryOpINS0_18scalar_constant_opIfEEKNS_6MatrixIfLi3ELi3ELi0ELi3ELi3EEEEESE_EESI_EESG_EENS0_10IndexBasedESM_ffE4DataC1ERKSL_, symObjAddr: 0x837C, symBinAddr: 0x10000C3F4, symSize: 0x34 }
  - { offsetInCU: 0x2628BD, offset: 0x2628BD, size: 0x8, addend: 0x0, symName: __ZN5Eigen8internal14evaluator_baseINS_13CwiseBinaryOpINS0_18scalar_quotient_opIffEEKNS2_INS0_13scalar_sum_opIffEEKNS2_INS0_17scalar_product_opIffEEKNS_14CwiseNullaryOpINS0_18scalar_constant_opIfEEKNS_6MatrixIfLi3ELi3ELi0ELi3ELi3EEEEESE_EESI_EESG_EEED2Ev, symObjAddr: 0x83B0, symBinAddr: 0x10000C428, symSize: 0x14 }
  - { offsetInCU: 0x2628E7, offset: 0x2628E7, size: 0x8, addend: 0x0, symName: __ZN5Eigen8internal16binary_evaluatorINS_13CwiseBinaryOpINS0_18scalar_quotient_opIffEEKNS2_INS0_13scalar_sum_opIffEEKNS2_INS0_17scalar_product_opIffEEKNS_14CwiseNullaryOpINS0_18scalar_constant_opIfEEKNS_6MatrixIfLi3ELi3ELi0ELi3ELi3EEEEESE_EESI_EESG_EENS0_10IndexBasedESM_ffE4DataC2ERKSL_, symObjAddr: 0x83C4, symBinAddr: 0x10000C43C, symSize: 0xA8 }
  - { offsetInCU: 0x262920, offset: 0x262920, size: 0x8, addend: 0x0, symName: __ZNK5Eigen13CwiseBinaryOpINS_8internal18scalar_quotient_opIffEEKNS0_INS1_13scalar_sum_opIffEEKNS0_INS1_17scalar_product_opIffEEKNS_14CwiseNullaryOpINS1_18scalar_constant_opIfEEKNS_6MatrixIfLi3ELi3ELi0ELi3ELi3EEEEESD_EESH_EESF_E7functorEv, symObjAddr: 0x846C, symBinAddr: 0x10000C4E4, symSize: 0x18 }
  - { offsetInCU: 0x262946, offset: 0x262946, size: 0x8, addend: 0x0, symName: __ZNK5Eigen13CwiseBinaryOpINS_8internal18scalar_quotient_opIffEEKNS0_INS1_13scalar_sum_opIffEEKNS0_INS1_17scalar_product_opIffEEKNS_14CwiseNullaryOpINS1_18scalar_constant_opIfEEKNS_6MatrixIfLi3ELi3ELi0ELi3ELi3EEEEESD_EESH_EESF_E3lhsEv, symObjAddr: 0x8484, symBinAddr: 0x10000C4FC, symSize: 0x18 }
  - { offsetInCU: 0x26296C, offset: 0x26296C, size: 0x8, addend: 0x0, symName: __ZN5Eigen8internal9evaluatorIKNS_13CwiseBinaryOpINS0_13scalar_sum_opIffEEKNS2_INS0_17scalar_product_opIffEEKNS_14CwiseNullaryOpINS0_18scalar_constant_opIfEEKNS_6MatrixIfLi3ELi3ELi0ELi3ELi3EEEEESC_EESG_EEEC1ERSI_, symObjAddr: 0x849C, symBinAddr: 0x10000C514, symSize: 0x34 }
  - { offsetInCU: 0x2629A4, offset: 0x2629A4, size: 0x8, addend: 0x0, symName: __ZNK5Eigen13CwiseBinaryOpINS_8internal18scalar_quotient_opIffEEKNS0_INS1_13scalar_sum_opIffEEKNS0_INS1_17scalar_product_opIffEEKNS_14CwiseNullaryOpINS1_18scalar_constant_opIfEEKNS_6MatrixIfLi3ELi3ELi0ELi3ELi3EEEEESD_EESH_EESF_E3rhsEv, symObjAddr: 0x84D0, symBinAddr: 0x10000C548, symSize: 0x18 }
  - { offsetInCU: 0x2629CA, offset: 0x2629CA, size: 0x8, addend: 0x0, symName: __ZN5Eigen8internal9evaluatorIKNS_13CwiseBinaryOpINS0_13scalar_sum_opIffEEKNS2_INS0_17scalar_product_opIffEEKNS_14CwiseNullaryOpINS0_18scalar_constant_opIfEEKNS_6MatrixIfLi3ELi3ELi0ELi3ELi3EEEEESC_EESG_EEED1Ev, symObjAddr: 0x84E8, symBinAddr: 0x10000C560, symSize: 0x2C }
  - { offsetInCU: 0x2629F6, offset: 0x2629F6, size: 0x8, addend: 0x0, symName: __ZN5Eigen8internal9evaluatorIKNS_13CwiseBinaryOpINS0_13scalar_sum_opIffEEKNS2_INS0_17scalar_product_opIffEEKNS_14CwiseNullaryOpINS0_18scalar_constant_opIfEEKNS_6MatrixIfLi3ELi3ELi0ELi3ELi3EEEEESC_EESG_EEEC2ERSI_, symObjAddr: 0x8514, symBinAddr: 0x10000C58C, symSize: 0x34 }
  - { offsetInCU: 0x262A2E, offset: 0x262A2E, size: 0x8, addend: 0x0, symName: __ZN5Eigen8internal9evaluatorINS_13CwiseBinaryOpINS0_13scalar_sum_opIffEEKNS2_INS0_17scalar_product_opIffEEKNS_14CwiseNullaryOpINS0_18scalar_constant_opIfEEKNS_6MatrixIfLi3ELi3ELi0ELi3ELi3EEEEESC_EESG_EEEC2ERKSH_, symObjAddr: 0x8548, symBinAddr: 0x10000C5C0, symSize: 0x34 }
  - { offsetInCU: 0x262A67, offset: 0x262A67, size: 0x8, addend: 0x0, symName: __ZN5Eigen8internal16binary_evaluatorINS_13CwiseBinaryOpINS0_13scalar_sum_opIffEEKNS2_INS0_17scalar_product_opIffEEKNS_14CwiseNullaryOpINS0_18scalar_constant_opIfEEKNS_6MatrixIfLi3ELi3ELi0ELi3ELi3EEEEESC_EESG_EENS0_10IndexBasedESI_ffEC2ERKSH_, symObjAddr: 0x857C, symBinAddr: 0x10000C5F4, symSize: 0x64 }
  - { offsetInCU: 0x262AA0, offset: 0x262AA0, size: 0x8, addend: 0x0, symName: __ZN5Eigen8internal14evaluator_baseINS_13CwiseBinaryOpINS0_13scalar_sum_opIffEEKNS2_INS0_17scalar_product_opIffEEKNS_14CwiseNullaryOpINS0_18scalar_constant_opIfEEKNS_6MatrixIfLi3ELi3ELi0ELi3ELi3EEEEESC_EESG_EEEC2Ev, symObjAddr: 0x85E0, symBinAddr: 0x10000C658, symSize: 0x14 }
  - { offsetInCU: 0x262ACA, offset: 0x262ACA, size: 0x8, addend: 0x0, symName: __ZN5Eigen8internal16binary_evaluatorINS_13CwiseBinaryOpINS0_13scalar_sum_opIffEEKNS2_INS0_17scalar_product_opIffEEKNS_14CwiseNullaryOpINS0_18scalar_constant_opIfEEKNS_6MatrixIfLi3ELi3ELi0ELi3ELi3EEEEESC_EESG_EENS0_10IndexBasedESI_ffE4DataC1ERKSH_, symObjAddr: 0x85F4, symBinAddr: 0x10000C66C, symSize: 0x34 }
  - { offsetInCU: 0x262B03, offset: 0x262B03, size: 0x8, addend: 0x0, symName: __ZN5Eigen8internal14evaluator_baseINS_13CwiseBinaryOpINS0_13scalar_sum_opIffEEKNS2_INS0_17scalar_product_opIffEEKNS_14CwiseNullaryOpINS0_18scalar_constant_opIfEEKNS_6MatrixIfLi3ELi3ELi0ELi3ELi3EEEEESC_EESG_EEED2Ev, symObjAddr: 0x8628, symBinAddr: 0x10000C6A0, symSize: 0x14 }
  - { offsetInCU: 0x262B2D, offset: 0x262B2D, size: 0x8, addend: 0x0, symName: __ZN5Eigen8internal16binary_evaluatorINS_13CwiseBinaryOpINS0_13scalar_sum_opIffEEKNS2_INS0_17scalar_product_opIffEEKNS_14CwiseNullaryOpINS0_18scalar_constant_opIfEEKNS_6MatrixIfLi3ELi3ELi0ELi3ELi3EEEEESC_EESG_EENS0_10IndexBasedESI_ffE4DataC2ERKSH_, symObjAddr: 0x863C, symBinAddr: 0x10000C6B4, symSize: 0xA8 }
  - { offsetInCU: 0x262B66, offset: 0x262B66, size: 0x8, addend: 0x0, symName: __ZNK5Eigen13CwiseBinaryOpINS_8internal13scalar_sum_opIffEEKNS0_INS1_17scalar_product_opIffEEKNS_14CwiseNullaryOpINS1_18scalar_constant_opIfEEKNS_6MatrixIfLi3ELi3ELi0ELi3ELi3EEEEESB_EESF_E7functorEv, symObjAddr: 0x86E4, symBinAddr: 0x10000C75C, symSize: 0x18 }
  - { offsetInCU: 0x262B8C, offset: 0x262B8C, size: 0x8, addend: 0x0, symName: __ZNK5Eigen13CwiseBinaryOpINS_8internal13scalar_sum_opIffEEKNS0_INS1_17scalar_product_opIffEEKNS_14CwiseNullaryOpINS1_18scalar_constant_opIfEEKNS_6MatrixIfLi3ELi3ELi0ELi3ELi3EEEEESB_EESF_E3lhsEv, symObjAddr: 0x86FC, symBinAddr: 0x10000C774, symSize: 0x18 }
  - { offsetInCU: 0x262BB2, offset: 0x262BB2, size: 0x8, addend: 0x0, symName: __ZNK5Eigen13CwiseBinaryOpINS_8internal13scalar_sum_opIffEEKNS0_INS1_17scalar_product_opIffEEKNS_14CwiseNullaryOpINS1_18scalar_constant_opIfEEKNS_6MatrixIfLi3ELi3ELi0ELi3ELi3EEEEESB_EESF_E3rhsEv, symObjAddr: 0x8714, symBinAddr: 0x10000C78C, symSize: 0x18 }
  - { offsetInCU: 0x262BD8, offset: 0x262BD8, size: 0x8, addend: 0x0, symName: __ZN5Eigen8internal9evaluatorIKNS_13CwiseBinaryOpINS0_13scalar_sum_opIffEEKNS2_INS0_17scalar_product_opIffEEKNS_14CwiseNullaryOpINS0_18scalar_constant_opIfEEKNS_6MatrixIfLi3ELi3ELi0ELi3ELi3EEEEESC_EESG_EEED2Ev, symObjAddr: 0x872C, symBinAddr: 0x10000C7A4, symSize: 0x2C }
  - { offsetInCU: 0x262C04, offset: 0x262C04, size: 0x8, addend: 0x0, symName: __ZN5Eigen8internal9evaluatorINS_13CwiseBinaryOpINS0_13scalar_sum_opIffEEKNS2_INS0_17scalar_product_opIffEEKNS_14CwiseNullaryOpINS0_18scalar_constant_opIfEEKNS_6MatrixIfLi3ELi3ELi0ELi3ELi3EEEEESC_EESG_EEED2Ev, symObjAddr: 0x8758, symBinAddr: 0x10000C7D0, symSize: 0x2C }
  - { offsetInCU: 0x262C31, offset: 0x262C31, size: 0x8, addend: 0x0, symName: __ZN5Eigen8internal16binary_evaluatorINS_13CwiseBinaryOpINS0_13scalar_sum_opIffEEKNS2_INS0_17scalar_product_opIffEEKNS_14CwiseNullaryOpINS0_18scalar_constant_opIfEEKNS_6MatrixIfLi3ELi3ELi0ELi3ELi3EEEEESC_EESG_EENS0_10IndexBasedESI_ffED2Ev, symObjAddr: 0x8784, symBinAddr: 0x10000C7FC, symSize: 0x34 }
  - { offsetInCU: 0x262C5D, offset: 0x262C5D, size: 0x8, addend: 0x0, symName: __ZN5Eigen8internal16binary_evaluatorINS_13CwiseBinaryOpINS0_13scalar_sum_opIffEEKNS2_INS0_17scalar_product_opIffEEKNS_14CwiseNullaryOpINS0_18scalar_constant_opIfEEKNS_6MatrixIfLi3ELi3ELi0ELi3ELi3EEEEESC_EESG_EENS0_10IndexBasedESI_ffE4DataD1Ev, symObjAddr: 0x87B8, symBinAddr: 0x10000C830, symSize: 0x2C }
  - { offsetInCU: 0x262C8A, offset: 0x262C8A, size: 0x8, addend: 0x0, symName: __ZN5Eigen8internal16binary_evaluatorINS_13CwiseBinaryOpINS0_13scalar_sum_opIffEEKNS2_INS0_17scalar_product_opIffEEKNS_14CwiseNullaryOpINS0_18scalar_constant_opIfEEKNS_6MatrixIfLi3ELi3ELi0ELi3ELi3EEEEESC_EESG_EENS0_10IndexBasedESI_ffE4DataD2Ev, symObjAddr: 0x87E4, symBinAddr: 0x10000C85C, symSize: 0x3C }
  - { offsetInCU: 0x262CB7, offset: 0x262CB7, size: 0x8, addend: 0x0, symName: __ZN5Eigen8internal9evaluatorIKNS_13CwiseBinaryOpINS0_17scalar_product_opIffEEKNS_14CwiseNullaryOpINS0_18scalar_constant_opIfEEKNS_6MatrixIfLi3ELi3ELi0ELi3ELi3EEEEESA_EEED2Ev, symObjAddr: 0x8820, symBinAddr: 0x10000C898, symSize: 0x2C }
  - { offsetInCU: 0x262CE3, offset: 0x262CE3, size: 0x8, addend: 0x0, symName: __ZN5Eigen8internal9evaluatorINS_13CwiseBinaryOpINS0_17scalar_product_opIffEEKNS_14CwiseNullaryOpINS0_18scalar_constant_opIfEEKNS_6MatrixIfLi3ELi3ELi0ELi3ELi3EEEEESA_EEED2Ev, symObjAddr: 0x884C, symBinAddr: 0x10000C8C4, symSize: 0x2C }
  - { offsetInCU: 0x262D10, offset: 0x262D10, size: 0x8, addend: 0x0, symName: __ZN5Eigen8internal16binary_evaluatorINS_13CwiseBinaryOpINS0_17scalar_product_opIffEEKNS_14CwiseNullaryOpINS0_18scalar_constant_opIfEEKNS_6MatrixIfLi3ELi3ELi0ELi3ELi3EEEEESA_EENS0_10IndexBasedESE_ffED2Ev, symObjAddr: 0x8878, symBinAddr: 0x10000C8F0, symSize: 0x34 }
  - { offsetInCU: 0x262D3C, offset: 0x262D3C, size: 0x8, addend: 0x0, symName: __ZN5Eigen8internal16binary_evaluatorINS_13CwiseBinaryOpINS0_17scalar_product_opIffEEKNS_14CwiseNullaryOpINS0_18scalar_constant_opIfEEKNS_6MatrixIfLi3ELi3ELi0ELi3ELi3EEEEESA_EENS0_10IndexBasedESE_ffE4DataD1Ev, symObjAddr: 0x88AC, symBinAddr: 0x10000C924, symSize: 0x2C }
  - { offsetInCU: 0x262D69, offset: 0x262D69, size: 0x8, addend: 0x0, symName: __ZN5Eigen8internal16binary_evaluatorINS_13CwiseBinaryOpINS0_17scalar_product_opIffEEKNS_14CwiseNullaryOpINS0_18scalar_constant_opIfEEKNS_6MatrixIfLi3ELi3ELi0ELi3ELi3EEEEESA_EENS0_10IndexBasedESE_ffE4DataD2Ev, symObjAddr: 0x88D8, symBinAddr: 0x10000C950, symSize: 0x3C }
  - { offsetInCU: 0x262D96, offset: 0x262D96, size: 0x8, addend: 0x0, symName: __ZN5Eigen8internal9evaluatorIKNS_6MatrixIfLi3ELi3ELi0ELi3ELi3EEEED1Ev, symObjAddr: 0x8914, symBinAddr: 0x10000C98C, symSize: 0x2C }
  - { offsetInCU: 0x262DC2, offset: 0x262DC2, size: 0x8, addend: 0x0, symName: __ZN5Eigen8internal9evaluatorIKNS_6MatrixIfLi3ELi3ELi0ELi3ELi3EEEED2Ev, symObjAddr: 0x8940, symBinAddr: 0x10000C9B8, symSize: 0x2C }
  - { offsetInCU: 0x262DEE, offset: 0x262DEE, size: 0x8, addend: 0x0, symName: __ZN5Eigen8internal9evaluatorINS_6MatrixIfLi3ELi3ELi0ELi3ELi3EEEED2Ev, symObjAddr: 0x896C, symBinAddr: 0x10000C9E4, symSize: 0x2C }
  - { offsetInCU: 0x262E1B, offset: 0x262E1B, size: 0x8, addend: 0x0, symName: __ZN5Eigen8internal9evaluatorINS_15PlainObjectBaseINS_6MatrixIfLi3ELi3ELi0ELi3ELi3EEEEEED2Ev, symObjAddr: 0x8998, symBinAddr: 0x10000CA10, symSize: 0x2C }
  - { offsetInCU: 0x262E47, offset: 0x262E47, size: 0x8, addend: 0x0, symName: __ZN5Eigen8internal9evaluatorIKNS_13CwiseBinaryOpINS0_18scalar_quotient_opIffEEKNS2_INS0_17scalar_product_opIffEEKNS_14CwiseNullaryOpINS0_18scalar_constant_opIfEEKNS_6MatrixIfLi3ELi3ELi0ELi3ELi3EEEEESC_EESE_EEEC2ERSI_, symObjAddr: 0x89C4, symBinAddr: 0x10000CA3C, symSize: 0x34 }
  - { offsetInCU: 0x262E7F, offset: 0x262E7F, size: 0x8, addend: 0x0, symName: __ZN5Eigen8internal9evaluatorINS_13CwiseBinaryOpINS0_18scalar_quotient_opIffEEKNS2_INS0_17scalar_product_opIffEEKNS_14CwiseNullaryOpINS0_18scalar_constant_opIfEEKNS_6MatrixIfLi3ELi3ELi0ELi3ELi3EEEEESC_EESE_EEEC2ERKSH_, symObjAddr: 0x89F8, symBinAddr: 0x10000CA70, symSize: 0x34 }
  - { offsetInCU: 0x262EB8, offset: 0x262EB8, size: 0x8, addend: 0x0, symName: __ZN5Eigen8internal16binary_evaluatorINS_13CwiseBinaryOpINS0_18scalar_quotient_opIffEEKNS2_INS0_17scalar_product_opIffEEKNS_14CwiseNullaryOpINS0_18scalar_constant_opIfEEKNS_6MatrixIfLi3ELi3ELi0ELi3ELi3EEEEESC_EESE_EENS0_10IndexBasedESI_ffEC2ERKSH_, symObjAddr: 0x8A2C, symBinAddr: 0x10000CAA4, symSize: 0x64 }
  - { offsetInCU: 0x262EF1, offset: 0x262EF1, size: 0x8, addend: 0x0, symName: __ZN5Eigen8internal14evaluator_baseINS_13CwiseBinaryOpINS0_18scalar_quotient_opIffEEKNS2_INS0_17scalar_product_opIffEEKNS_14CwiseNullaryOpINS0_18scalar_constant_opIfEEKNS_6MatrixIfLi3ELi3ELi0ELi3ELi3EEEEESC_EESE_EEEC2Ev, symObjAddr: 0x8A90, symBinAddr: 0x10000CB08, symSize: 0x14 }
  - { offsetInCU: 0x262F1B, offset: 0x262F1B, size: 0x8, addend: 0x0, symName: __ZN5Eigen8internal16binary_evaluatorINS_13CwiseBinaryOpINS0_18scalar_quotient_opIffEEKNS2_INS0_17scalar_product_opIffEEKNS_14CwiseNullaryOpINS0_18scalar_constant_opIfEEKNS_6MatrixIfLi3ELi3ELi0ELi3ELi3EEEEESC_EESE_EENS0_10IndexBasedESI_ffE4DataC1ERKSH_, symObjAddr: 0x8AA4, symBinAddr: 0x10000CB1C, symSize: 0x34 }
  - { offsetInCU: 0x262F54, offset: 0x262F54, size: 0x8, addend: 0x0, symName: __ZN5Eigen8internal14evaluator_baseINS_13CwiseBinaryOpINS0_18scalar_quotient_opIffEEKNS2_INS0_17scalar_product_opIffEEKNS_14CwiseNullaryOpINS0_18scalar_constant_opIfEEKNS_6MatrixIfLi3ELi3ELi0ELi3ELi3EEEEESC_EESE_EEED2Ev, symObjAddr: 0x8AD8, symBinAddr: 0x10000CB50, symSize: 0x14 }
  - { offsetInCU: 0x262F7E, offset: 0x262F7E, size: 0x8, addend: 0x0, symName: __ZN5Eigen8internal16binary_evaluatorINS_13CwiseBinaryOpINS0_18scalar_quotient_opIffEEKNS2_INS0_17scalar_product_opIffEEKNS_14CwiseNullaryOpINS0_18scalar_constant_opIfEEKNS_6MatrixIfLi3ELi3ELi0ELi3ELi3EEEEESC_EESE_EENS0_10IndexBasedESI_ffE4DataC2ERKSH_, symObjAddr: 0x8AEC, symBinAddr: 0x10000CB64, symSize: 0xA8 }
  - { offsetInCU: 0x262FB7, offset: 0x262FB7, size: 0x8, addend: 0x0, symName: __ZNK5Eigen13CwiseBinaryOpINS_8internal18scalar_quotient_opIffEEKNS0_INS1_17scalar_product_opIffEEKNS_14CwiseNullaryOpINS1_18scalar_constant_opIfEEKNS_6MatrixIfLi3ELi3ELi0ELi3ELi3EEEEESB_EESD_E7functorEv, symObjAddr: 0x8B94, symBinAddr: 0x10000CC0C, symSize: 0x18 }
  - { offsetInCU: 0x262FDD, offset: 0x262FDD, size: 0x8, addend: 0x0, symName: __ZNK5Eigen13CwiseBinaryOpINS_8internal18scalar_quotient_opIffEEKNS0_INS1_17scalar_product_opIffEEKNS_14CwiseNullaryOpINS1_18scalar_constant_opIfEEKNS_6MatrixIfLi3ELi3ELi0ELi3ELi3EEEEESB_EESD_E3lhsEv, symObjAddr: 0x8BAC, symBinAddr: 0x10000CC24, symSize: 0x18 }
  - { offsetInCU: 0x263003, offset: 0x263003, size: 0x8, addend: 0x0, symName: __ZNK5Eigen13CwiseBinaryOpINS_8internal18scalar_quotient_opIffEEKNS0_INS1_17scalar_product_opIffEEKNS_14CwiseNullaryOpINS1_18scalar_constant_opIfEEKNS_6MatrixIfLi3ELi3ELi0ELi3ELi3EEEEESB_EESD_E3rhsEv, symObjAddr: 0x8BC4, symBinAddr: 0x10000CC3C, symSize: 0x18 }
  - { offsetInCU: 0x263029, offset: 0x263029, size: 0x8, addend: 0x0, symName: __ZN5Eigen8internal9evaluatorIKNS_13CwiseBinaryOpINS0_13scalar_sum_opIffEEKNS2_INS0_17scalar_product_opIffEEKNS_14CwiseNullaryOpINS0_18scalar_constant_opIfEEKNS_6MatrixIfLi3ELi3ELi0ELi3ELi3EEEEESC_EEKNS2_INS0_18scalar_quotient_opIffEEKNS2_IS4_SG_SG_EESE_EEEEED2Ev, symObjAddr: 0x8BDC, symBinAddr: 0x10000CC54, symSize: 0x2C }
  - { offsetInCU: 0x263055, offset: 0x263055, size: 0x8, addend: 0x0, symName: __ZN5Eigen8internal9evaluatorINS_13CwiseBinaryOpINS0_13scalar_sum_opIffEEKNS2_INS0_17scalar_product_opIffEEKNS_14CwiseNullaryOpINS0_18scalar_constant_opIfEEKNS_6MatrixIfLi3ELi3ELi0ELi3ELi3EEEEESC_EEKNS2_INS0_18scalar_quotient_opIffEEKNS2_IS4_SG_SG_EESE_EEEEED2Ev, symObjAddr: 0x8C08, symBinAddr: 0x10000CC80, symSize: 0x2C }
  - { offsetInCU: 0x263082, offset: 0x263082, size: 0x8, addend: 0x0, symName: __ZN5Eigen8internal16binary_evaluatorINS_13CwiseBinaryOpINS0_13scalar_sum_opIffEEKNS2_INS0_17scalar_product_opIffEEKNS_14CwiseNullaryOpINS0_18scalar_constant_opIfEEKNS_6MatrixIfLi3ELi3ELi0ELi3ELi3EEEEESC_EEKNS2_INS0_18scalar_quotient_opIffEEKNS2_IS4_SG_SG_EESE_EEEENS0_10IndexBasedESO_ffED2Ev, symObjAddr: 0x8C34, symBinAddr: 0x10000CCAC, symSize: 0x34 }
  - { offsetInCU: 0x2630AE, offset: 0x2630AE, size: 0x8, addend: 0x0, symName: __ZN5Eigen8internal16binary_evaluatorINS_13CwiseBinaryOpINS0_13scalar_sum_opIffEEKNS2_INS0_17scalar_product_opIffEEKNS_14CwiseNullaryOpINS0_18scalar_constant_opIfEEKNS_6MatrixIfLi3ELi3ELi0ELi3ELi3EEEEESC_EEKNS2_INS0_18scalar_quotient_opIffEEKNS2_IS4_SG_SG_EESE_EEEENS0_10IndexBasedESO_ffE4DataD1Ev, symObjAddr: 0x8C68, symBinAddr: 0x10000CCE0, symSize: 0x2C }
  - { offsetInCU: 0x2630DB, offset: 0x2630DB, size: 0x8, addend: 0x0, symName: __ZN5Eigen8internal16binary_evaluatorINS_13CwiseBinaryOpINS0_13scalar_sum_opIffEEKNS2_INS0_17scalar_product_opIffEEKNS_14CwiseNullaryOpINS0_18scalar_constant_opIfEEKNS_6MatrixIfLi3ELi3ELi0ELi3ELi3EEEEESC_EEKNS2_INS0_18scalar_quotient_opIffEEKNS2_IS4_SG_SG_EESE_EEEENS0_10IndexBasedESO_ffE4DataD2Ev, symObjAddr: 0x8C94, symBinAddr: 0x10000CD0C, symSize: 0x3C }
  - { offsetInCU: 0x263108, offset: 0x263108, size: 0x8, addend: 0x0, symName: __ZN5Eigen8internal9evaluatorIKNS_13CwiseBinaryOpINS0_18scalar_quotient_opIffEEKNS2_INS0_13scalar_sum_opIffEEKNS2_INS0_17scalar_product_opIffEEKNS_14CwiseNullaryOpINS0_18scalar_constant_opIfEEKNS_6MatrixIfLi3ELi3ELi0ELi3ELi3EEEEESE_EESI_EESG_EEED1Ev, symObjAddr: 0x8CD0, symBinAddr: 0x10000CD48, symSize: 0x2C }
  - { offsetInCU: 0x263134, offset: 0x263134, size: 0x8, addend: 0x0, symName: __ZN5Eigen8internal9evaluatorIKNS_13CwiseBinaryOpINS0_18scalar_quotient_opIffEEKNS2_INS0_13scalar_sum_opIffEEKNS2_INS0_17scalar_product_opIffEEKNS_14CwiseNullaryOpINS0_18scalar_constant_opIfEEKNS_6MatrixIfLi3ELi3ELi0ELi3ELi3EEEEESE_EESI_EESG_EEED2Ev, symObjAddr: 0x8CFC, symBinAddr: 0x10000CD74, symSize: 0x2C }
  - { offsetInCU: 0x263160, offset: 0x263160, size: 0x8, addend: 0x0, symName: __ZN5Eigen8internal9evaluatorINS_13CwiseBinaryOpINS0_18scalar_quotient_opIffEEKNS2_INS0_13scalar_sum_opIffEEKNS2_INS0_17scalar_product_opIffEEKNS_14CwiseNullaryOpINS0_18scalar_constant_opIfEEKNS_6MatrixIfLi3ELi3ELi0ELi3ELi3EEEEESE_EESI_EESG_EEED2Ev, symObjAddr: 0x8D28, symBinAddr: 0x10000CDA0, symSize: 0x2C }
  - { offsetInCU: 0x26318D, offset: 0x26318D, size: 0x8, addend: 0x0, symName: __ZN5Eigen8internal16binary_evaluatorINS_13CwiseBinaryOpINS0_18scalar_quotient_opIffEEKNS2_INS0_13scalar_sum_opIffEEKNS2_INS0_17scalar_product_opIffEEKNS_14CwiseNullaryOpINS0_18scalar_constant_opIfEEKNS_6MatrixIfLi3ELi3ELi0ELi3ELi3EEEEESE_EESI_EESG_EENS0_10IndexBasedESM_ffED2Ev, symObjAddr: 0x8D54, symBinAddr: 0x10000CDCC, symSize: 0x34 }
  - { offsetInCU: 0x2631B9, offset: 0x2631B9, size: 0x8, addend: 0x0, symName: __ZN5Eigen8internal16binary_evaluatorINS_13CwiseBinaryOpINS0_18scalar_quotient_opIffEEKNS2_INS0_13scalar_sum_opIffEEKNS2_INS0_17scalar_product_opIffEEKNS_14CwiseNullaryOpINS0_18scalar_constant_opIfEEKNS_6MatrixIfLi3ELi3ELi0ELi3ELi3EEEEESE_EESI_EESG_EENS0_10IndexBasedESM_ffE4DataD1Ev, symObjAddr: 0x8D88, symBinAddr: 0x10000CE00, symSize: 0x2C }
  - { offsetInCU: 0x2631E6, offset: 0x2631E6, size: 0x8, addend: 0x0, symName: __ZN5Eigen8internal16binary_evaluatorINS_13CwiseBinaryOpINS0_18scalar_quotient_opIffEEKNS2_INS0_13scalar_sum_opIffEEKNS2_INS0_17scalar_product_opIffEEKNS_14CwiseNullaryOpINS0_18scalar_constant_opIfEEKNS_6MatrixIfLi3ELi3ELi0ELi3ELi3EEEEESE_EESI_EESG_EENS0_10IndexBasedESM_ffE4DataD2Ev, symObjAddr: 0x8DB4, symBinAddr: 0x10000CE2C, symSize: 0x3C }
  - { offsetInCU: 0x263213, offset: 0x263213, size: 0x8, addend: 0x0, symName: __ZN5Eigen8internal9evaluatorIKNS_13CwiseBinaryOpINS0_13scalar_sum_opIffEEKNS2_IS4_KNS2_INS0_17scalar_product_opIffEEKNS_14CwiseNullaryOpINS0_18scalar_constant_opIfEEKNS_6MatrixIfLi3ELi3ELi0ELi3ELi3EEEEESC_EEKNS2_INS0_18scalar_quotient_opIffEEKNS2_IS4_SG_SG_EESE_EEEEKNS2_ISI_SG_SE_EEEEED2Ev, symObjAddr: 0x8DF0, symBinAddr: 0x10000CE68, symSize: 0x2C }
  - { offsetInCU: 0x26323F, offset: 0x26323F, size: 0x8, addend: 0x0, symName: __ZN5Eigen8internal9evaluatorINS_13CwiseBinaryOpINS0_13scalar_sum_opIffEEKNS2_IS4_KNS2_INS0_17scalar_product_opIffEEKNS_14CwiseNullaryOpINS0_18scalar_constant_opIfEEKNS_6MatrixIfLi3ELi3ELi0ELi3ELi3EEEEESC_EEKNS2_INS0_18scalar_quotient_opIffEEKNS2_IS4_SG_SG_EESE_EEEEKNS2_ISI_SG_SE_EEEEED2Ev, symObjAddr: 0x8E1C, symBinAddr: 0x10000CE94, symSize: 0x2C }
  - { offsetInCU: 0x26326C, offset: 0x26326C, size: 0x8, addend: 0x0, symName: __ZN5Eigen8internal16binary_evaluatorINS_13CwiseBinaryOpINS0_13scalar_sum_opIffEEKNS2_IS4_KNS2_INS0_17scalar_product_opIffEEKNS_14CwiseNullaryOpINS0_18scalar_constant_opIfEEKNS_6MatrixIfLi3ELi3ELi0ELi3ELi3EEEEESC_EEKNS2_INS0_18scalar_quotient_opIffEEKNS2_IS4_SG_SG_EESE_EEEEKNS2_ISI_SG_SE_EEEENS0_10IndexBasedESS_ffED2Ev, symObjAddr: 0x8E48, symBinAddr: 0x10000CEC0, symSize: 0x34 }
  - { offsetInCU: 0x263298, offset: 0x263298, size: 0x8, addend: 0x0, symName: __ZN5Eigen8internal16binary_evaluatorINS_13CwiseBinaryOpINS0_13scalar_sum_opIffEEKNS2_IS4_KNS2_INS0_17scalar_product_opIffEEKNS_14CwiseNullaryOpINS0_18scalar_constant_opIfEEKNS_6MatrixIfLi3ELi3ELi0ELi3ELi3EEEEESC_EEKNS2_INS0_18scalar_quotient_opIffEEKNS2_IS4_SG_SG_EESE_EEEEKNS2_ISI_SG_SE_EEEENS0_10IndexBasedESS_ffE4DataD1Ev, symObjAddr: 0x8E7C, symBinAddr: 0x10000CEF4, symSize: 0x2C }
  - { offsetInCU: 0x2632C5, offset: 0x2632C5, size: 0x8, addend: 0x0, symName: __ZN5Eigen8internal16binary_evaluatorINS_13CwiseBinaryOpINS0_13scalar_sum_opIffEEKNS2_IS4_KNS2_INS0_17scalar_product_opIffEEKNS_14CwiseNullaryOpINS0_18scalar_constant_opIfEEKNS_6MatrixIfLi3ELi3ELi0ELi3ELi3EEEEESC_EEKNS2_INS0_18scalar_quotient_opIffEEKNS2_IS4_SG_SG_EESE_EEEEKNS2_ISI_SG_SE_EEEENS0_10IndexBasedESS_ffE4DataD2Ev, symObjAddr: 0x8EA8, symBinAddr: 0x10000CF20, symSize: 0x3C }
  - { offsetInCU: 0x2632F2, offset: 0x2632F2, size: 0x8, addend: 0x0, symName: __ZN5Eigen8internal9evaluatorIKNS_13CwiseBinaryOpINS0_18scalar_quotient_opIffEEKNS2_INS0_17scalar_product_opIffEEKNS_14CwiseNullaryOpINS0_18scalar_constant_opIfEEKNS_6MatrixIfLi3ELi3ELi0ELi3ELi3EEEEESC_EESE_EEED1Ev, symObjAddr: 0x8EE4, symBinAddr: 0x10000CF5C, symSize: 0x2C }
  - { offsetInCU: 0x26331E, offset: 0x26331E, size: 0x8, addend: 0x0, symName: __ZN5Eigen8internal9evaluatorIKNS_13CwiseBinaryOpINS0_18scalar_quotient_opIffEEKNS2_INS0_17scalar_product_opIffEEKNS_14CwiseNullaryOpINS0_18scalar_constant_opIfEEKNS_6MatrixIfLi3ELi3ELi0ELi3ELi3EEEEESC_EESE_EEED2Ev, symObjAddr: 0x8F10, symBinAddr: 0x10000CF88, symSize: 0x2C }
  - { offsetInCU: 0x26334A, offset: 0x26334A, size: 0x8, addend: 0x0, symName: __ZN5Eigen8internal9evaluatorINS_13CwiseBinaryOpINS0_18scalar_quotient_opIffEEKNS2_INS0_17scalar_product_opIffEEKNS_14CwiseNullaryOpINS0_18scalar_constant_opIfEEKNS_6MatrixIfLi3ELi3ELi0ELi3ELi3EEEEESC_EESE_EEED2Ev, symObjAddr: 0x8F3C, symBinAddr: 0x10000CFB4, symSize: 0x2C }
  - { offsetInCU: 0x263377, offset: 0x263377, size: 0x8, addend: 0x0, symName: __ZN5Eigen8internal16binary_evaluatorINS_13CwiseBinaryOpINS0_18scalar_quotient_opIffEEKNS2_INS0_17scalar_product_opIffEEKNS_14CwiseNullaryOpINS0_18scalar_constant_opIfEEKNS_6MatrixIfLi3ELi3ELi0ELi3ELi3EEEEESC_EESE_EENS0_10IndexBasedESI_ffED2Ev, symObjAddr: 0x8F68, symBinAddr: 0x10000CFE0, symSize: 0x34 }
  - { offsetInCU: 0x2633A3, offset: 0x2633A3, size: 0x8, addend: 0x0, symName: __ZN5Eigen8internal16binary_evaluatorINS_13CwiseBinaryOpINS0_18scalar_quotient_opIffEEKNS2_INS0_17scalar_product_opIffEEKNS_14CwiseNullaryOpINS0_18scalar_constant_opIfEEKNS_6MatrixIfLi3ELi3ELi0ELi3ELi3EEEEESC_EESE_EENS0_10IndexBasedESI_ffE4DataD1Ev, symObjAddr: 0x8F9C, symBinAddr: 0x10000D014, symSize: 0x2C }
  - { offsetInCU: 0x2633D0, offset: 0x2633D0, size: 0x8, addend: 0x0, symName: __ZN5Eigen8internal16binary_evaluatorINS_13CwiseBinaryOpINS0_18scalar_quotient_opIffEEKNS2_INS0_17scalar_product_opIffEEKNS_14CwiseNullaryOpINS0_18scalar_constant_opIfEEKNS_6MatrixIfLi3ELi3ELi0ELi3ELi3EEEEESC_EESE_EENS0_10IndexBasedESI_ffE4DataD2Ev, symObjAddr: 0x8FC8, symBinAddr: 0x10000D040, symSize: 0x3C }
  - { offsetInCU: 0x2633FD, offset: 0x2633FD, size: 0x8, addend: 0x0, symName: __ZN5Eigen8internal31generic_dense_assignment_kernelINS0_9evaluatorINS_6MatrixIfLi3ELi3ELi0ELi3ELi3EEEEENS2_INS_13CwiseBinaryOpINS0_13scalar_sum_opIffEEKNS6_IS8_KNS6_IS8_KNS6_INS0_17scalar_product_opIffEEKNS_14CwiseNullaryOpINS0_18scalar_constant_opIfEEKS4_EESE_EEKNS6_INS0_18scalar_quotient_opIffEEKNS6_IS8_SI_SI_EESG_EEEEKNS6_ISK_SI_SG_EEEESU_EEEENS0_9assign_opIffEELi0EEC2ERS5_RKSW_RKSY_RS4_, symObjAddr: 0x9004, symBinAddr: 0x10000D07C, symSize: 0x44 }
  - { offsetInCU: 0x263463, offset: 0x263463, size: 0x8, addend: 0x0, symName: __ZNK5Eigen8internal31generic_dense_assignment_kernelINS0_9evaluatorINS_6MatrixIfLi3ELi3ELi0ELi3ELi3EEEEENS2_INS_13CwiseBinaryOpINS0_13scalar_sum_opIffEEKNS6_IS8_KNS6_IS8_KNS6_INS0_17scalar_product_opIffEEKNS_14CwiseNullaryOpINS0_18scalar_constant_opIfEEKS4_EESE_EEKNS6_INS0_18scalar_quotient_opIffEEKNS6_IS8_SI_SI_EESG_EEEEKNS6_ISK_SI_SG_EEEESU_EEEENS0_9assign_opIffEELi0EE4sizeEv, symObjAddr: 0x9048, symBinAddr: 0x10000D0C0, symSize: 0x28 }
  - { offsetInCU: 0x263489, offset: 0x263489, size: 0x8, addend: 0x0, symName: __ZNK5Eigen8internal31generic_dense_assignment_kernelINS0_9evaluatorINS_6MatrixIfLi3ELi3ELi0ELi3ELi3EEEEENS2_INS_13CwiseBinaryOpINS0_13scalar_sum_opIffEEKNS6_IS8_KNS6_IS8_KNS6_INS0_17scalar_product_opIffEEKNS_14CwiseNullaryOpINS0_18scalar_constant_opIfEEKS4_EESE_EEKNS6_INS0_18scalar_quotient_opIffEEKNS6_IS8_SI_SI_EESG_EEEEKNS6_ISK_SI_SG_EEEESU_EEEENS0_9assign_opIffEELi0EE10dstDataPtrEv, symObjAddr: 0x9114, symBinAddr: 0x10000D18C, symSize: 0x28 }
  - { offsetInCU: 0x2634AF, offset: 0x2634AF, size: 0x8, addend: 0x0, symName: __ZN5Eigen8internal31unaligned_dense_assignment_loopILb0EE3runINS0_31generic_dense_assignment_kernelINS0_9evaluatorINS_6MatrixIfLi3ELi3ELi0ELi3ELi3EEEEENS5_INS_13CwiseBinaryOpINS0_13scalar_sum_opIffEEKNS9_ISB_KNS9_ISB_KNS9_INS0_17scalar_product_opIffEEKNS_14CwiseNullaryOpINS0_18scalar_constant_opIfEEKS7_EESH_EEKNS9_INS0_18scalar_quotient_opIffEEKNS9_ISB_SL_SL_EESJ_EEEEKNS9_ISN_SL_SJ_EEEESX_EEEENS0_9assign_opIffEELi0EEEEEvRT_ll, symObjAddr: 0x913C, symBinAddr: 0x10000D1B4, symSize: 0x68 }
  - { offsetInCU: 0x263517, offset: 0x263517, size: 0x8, addend: 0x0, symName: __ZN5Eigen8internal31generic_dense_assignment_kernelINS0_9evaluatorINS_6MatrixIfLi3ELi3ELi0ELi3ELi3EEEEENS2_INS_13CwiseBinaryOpINS0_13scalar_sum_opIffEEKNS6_IS8_KNS6_IS8_KNS6_INS0_17scalar_product_opIffEEKNS_14CwiseNullaryOpINS0_18scalar_constant_opIfEEKS4_EESE_EEKNS6_INS0_18scalar_quotient_opIffEEKNS6_IS8_SI_SI_EESG_EEEEKNS6_ISK_SI_SG_EEEESU_EEEENS0_9assign_opIffEELi0EE12assignPacketILi16ELi0E18__simd64_float32_tEEvl, symObjAddr: 0x91A4, symBinAddr: 0x10000D21C, symSize: 0x64 }
  - { offsetInCU: 0x263569, offset: 0x263569, size: 0x8, addend: 0x0, symName: __ZNK5Eigen9EigenBaseINS_6MatrixIfLi3ELi3ELi0ELi3ELi3EEEE4sizeEv, symObjAddr: 0x9208, symBinAddr: 0x10000D280, symSize: 0x44 }
  - { offsetInCU: 0x26358F, offset: 0x26358F, size: 0x8, addend: 0x0, symName: __ZNK5Eigen9EigenBaseINS_6MatrixIfLi3ELi3ELi0ELi3ELi3EEEE4colsEv, symObjAddr: 0x924C, symBinAddr: 0x10000D2C4, symSize: 0x28 }
  - { offsetInCU: 0x2635B5, offset: 0x2635B5, size: 0x8, addend: 0x0, symName: __ZN5Eigen15PlainObjectBaseINS_6MatrixIfLi3ELi3ELi0ELi3ELi3EEEE4dataEv, symObjAddr: 0x9274, symBinAddr: 0x10000D2EC, symSize: 0x24 }
  - { offsetInCU: 0x2635DB, offset: 0x2635DB, size: 0x8, addend: 0x0, symName: __ZN5Eigen8internal31generic_dense_assignment_kernelINS0_9evaluatorINS_6MatrixIfLi3ELi3ELi0ELi3ELi3EEEEENS2_INS_13CwiseBinaryOpINS0_13scalar_sum_opIffEEKNS6_IS8_KNS6_IS8_KNS6_INS0_17scalar_product_opIffEEKNS_14CwiseNullaryOpINS0_18scalar_constant_opIfEEKS4_EESE_EEKNS6_INS0_18scalar_quotient_opIffEEKNS6_IS8_SI_SI_EESG_EEEEKNS6_ISK_SI_SG_EEEESU_EEEENS0_9assign_opIffEELi0EE11assignCoeffEl, symObjAddr: 0x9298, symBinAddr: 0x10000D310, symSize: 0x64 }
  - { offsetInCU: 0x263610, offset: 0x263610, size: 0x8, addend: 0x0, symName: __ZNK5Eigen8internal9assign_opIffE11assignCoeffERfRKf, symObjAddr: 0x92FC, symBinAddr: 0x10000D374, symSize: 0x28 }
  - { offsetInCU: 0x263652, offset: 0x263652, size: 0x8, addend: 0x0, symName: __ZN5Eigen8internal9evaluatorINS_15PlainObjectBaseINS_6MatrixIfLi3ELi3ELi0ELi3ELi3EEEEEE8coeffRefEl, symObjAddr: 0x9324, symBinAddr: 0x10000D39C, symSize: 0x24 }
  - { offsetInCU: 0x263686, offset: 0x263686, size: 0x8, addend: 0x0, symName: __ZNK5Eigen8internal16binary_evaluatorINS_13CwiseBinaryOpINS0_13scalar_sum_opIffEEKNS2_IS4_KNS2_IS4_KNS2_INS0_17scalar_product_opIffEEKNS_14CwiseNullaryOpINS0_18scalar_constant_opIfEEKNS_6MatrixIfLi3ELi3ELi0ELi3ELi3EEEEESC_EEKNS2_INS0_18scalar_quotient_opIffEEKNS2_IS4_SG_SG_EESE_EEEEKNS2_ISI_SG_SE_EEEESS_EENS0_10IndexBasedESU_ffE5coeffEl, symObjAddr: 0x9348, symBinAddr: 0x10000D3C0, symSize: 0x70 }
  - { offsetInCU: 0x2636BB, offset: 0x2636BB, size: 0x8, addend: 0x0, symName: __ZNK5Eigen8internal16binary_evaluatorINS_13CwiseBinaryOpINS0_13scalar_sum_opIffEEKNS2_IS4_KNS2_IS4_KNS2_INS0_17scalar_product_opIffEEKNS_14CwiseNullaryOpINS0_18scalar_constant_opIfEEKNS_6MatrixIfLi3ELi3ELi0ELi3ELi3EEEEESC_EEKNS2_INS0_18scalar_quotient_opIffEEKNS2_IS4_SG_SG_EESE_EEEEKNS2_ISI_SG_SE_EEEESS_EENS0_10IndexBasedESU_ffE4Data4funcEv, symObjAddr: 0x93B8, symBinAddr: 0x10000D430, symSize: 0x14 }
  - { offsetInCU: 0x2636E1, offset: 0x2636E1, size: 0x8, addend: 0x0, symName: __ZNK5Eigen8internal13scalar_sum_opIffEclERKfS4_, symObjAddr: 0x93CC, symBinAddr: 0x10000D444, symSize: 0x2C }
  - { offsetInCU: 0x263723, offset: 0x263723, size: 0x8, addend: 0x0, symName: __ZNK5Eigen8internal16binary_evaluatorINS_13CwiseBinaryOpINS0_13scalar_sum_opIffEEKNS2_IS4_KNS2_INS0_17scalar_product_opIffEEKNS_14CwiseNullaryOpINS0_18scalar_constant_opIfEEKNS_6MatrixIfLi3ELi3ELi0ELi3ELi3EEEEESC_EEKNS2_INS0_18scalar_quotient_opIffEEKNS2_IS4_SG_SG_EESE_EEEEKNS2_ISI_SG_SE_EEEENS0_10IndexBasedESS_ffE5coeffEl, symObjAddr: 0x93F8, symBinAddr: 0x10000D470, symSize: 0x70 }
  - { offsetInCU: 0x263758, offset: 0x263758, size: 0x8, addend: 0x0, symName: __ZNK5Eigen8internal16binary_evaluatorINS_13CwiseBinaryOpINS0_13scalar_sum_opIffEEKNS2_IS4_KNS2_INS0_17scalar_product_opIffEEKNS_14CwiseNullaryOpINS0_18scalar_constant_opIfEEKNS_6MatrixIfLi3ELi3ELi0ELi3ELi3EEEEESC_EEKNS2_INS0_18scalar_quotient_opIffEEKNS2_IS4_SG_SG_EESE_EEEEKNS2_ISI_SG_SE_EEEENS0_10IndexBasedESS_ffE4Data4funcEv, symObjAddr: 0x9468, symBinAddr: 0x10000D4E0, symSize: 0x14 }
  - { offsetInCU: 0x26377E, offset: 0x26377E, size: 0x8, addend: 0x0, symName: __ZNK5Eigen8internal16binary_evaluatorINS_13CwiseBinaryOpINS0_13scalar_sum_opIffEEKNS2_INS0_17scalar_product_opIffEEKNS_14CwiseNullaryOpINS0_18scalar_constant_opIfEEKNS_6MatrixIfLi3ELi3ELi0ELi3ELi3EEEEESC_EEKNS2_INS0_18scalar_quotient_opIffEEKNS2_IS4_SG_SG_EESE_EEEENS0_10IndexBasedESO_ffE5coeffEl, symObjAddr: 0x947C, symBinAddr: 0x10000D4F4, symSize: 0x70 }
  - { offsetInCU: 0x2637B3, offset: 0x2637B3, size: 0x8, addend: 0x0, symName: __ZNK5Eigen8internal16binary_evaluatorINS_13CwiseBinaryOpINS0_18scalar_quotient_opIffEEKNS2_INS0_17scalar_product_opIffEEKNS_14CwiseNullaryOpINS0_18scalar_constant_opIfEEKNS_6MatrixIfLi3ELi3ELi0ELi3ELi3EEEEESC_EESE_EENS0_10IndexBasedESI_ffE5coeffEl, symObjAddr: 0x94EC, symBinAddr: 0x10000D564, symSize: 0x70 }
  - { offsetInCU: 0x2637E8, offset: 0x2637E8, size: 0x8, addend: 0x0, symName: __ZNK5Eigen8internal16binary_evaluatorINS_13CwiseBinaryOpINS0_13scalar_sum_opIffEEKNS2_INS0_17scalar_product_opIffEEKNS_14CwiseNullaryOpINS0_18scalar_constant_opIfEEKNS_6MatrixIfLi3ELi3ELi0ELi3ELi3EEEEESC_EEKNS2_INS0_18scalar_quotient_opIffEEKNS2_IS4_SG_SG_EESE_EEEENS0_10IndexBasedESO_ffE4Data4funcEv, symObjAddr: 0x955C, symBinAddr: 0x10000D5D4, symSize: 0x14 }
  - { offsetInCU: 0x26380E, offset: 0x26380E, size: 0x8, addend: 0x0, symName: __ZNK5Eigen8internal16binary_evaluatorINS_13CwiseBinaryOpINS0_17scalar_product_opIffEEKNS_14CwiseNullaryOpINS0_18scalar_constant_opIfEEKNS_6MatrixIfLi3ELi3ELi0ELi3ELi3EEEEESA_EENS0_10IndexBasedESE_ffE5coeffEl, symObjAddr: 0x9570, symBinAddr: 0x10000D5E8, symSize: 0x6C }
  - { offsetInCU: 0x263843, offset: 0x263843, size: 0x8, addend: 0x0, symName: __ZNK5Eigen8internal16binary_evaluatorINS_13CwiseBinaryOpINS0_18scalar_quotient_opIffEEKNS2_INS0_13scalar_sum_opIffEEKNS2_INS0_17scalar_product_opIffEEKNS_14CwiseNullaryOpINS0_18scalar_constant_opIfEEKNS_6MatrixIfLi3ELi3ELi0ELi3ELi3EEEEESE_EESI_EESG_EENS0_10IndexBasedESM_ffE5coeffEl, symObjAddr: 0x95DC, symBinAddr: 0x10000D654, symSize: 0x70 }
  - { offsetInCU: 0x263878, offset: 0x263878, size: 0x8, addend: 0x0, symName: __ZNK5Eigen8internal16binary_evaluatorINS_13CwiseBinaryOpINS0_17scalar_product_opIffEEKNS_14CwiseNullaryOpINS0_18scalar_constant_opIfEEKNS_6MatrixIfLi3ELi3ELi0ELi3ELi3EEEEESA_EENS0_10IndexBasedESE_ffE4Data4funcEv, symObjAddr: 0x964C, symBinAddr: 0x10000D6C4, symSize: 0x14 }
  - { offsetInCU: 0x26389E, offset: 0x26389E, size: 0x8, addend: 0x0, symName: __ZNK5Eigen8internal17scalar_product_opIffEclERKfS4_, symObjAddr: 0x9660, symBinAddr: 0x10000D6D8, symSize: 0x2C }
  - { offsetInCU: 0x2638EA, offset: 0x2638EA, size: 0x8, addend: 0x0, symName: __ZNK5Eigen8internal9evaluatorINS_14CwiseNullaryOpINS0_18scalar_constant_opIfEEKNS_6MatrixIfLi3ELi3ELi0ELi3ELi3EEEEEE5coeffIlEEfT_, symObjAddr: 0x968C, symBinAddr: 0x10000D704, symSize: 0x38 }
  - { offsetInCU: 0x263928, offset: 0x263928, size: 0x8, addend: 0x0, symName: __ZNK5Eigen8internal9evaluatorINS_15PlainObjectBaseINS_6MatrixIfLi3ELi3ELi0ELi3ELi3EEEEEE5coeffEl, symObjAddr: 0x96C4, symBinAddr: 0x10000D73C, symSize: 0x24 }
  - { offsetInCU: 0x263961, offset: 0x263961, size: 0x8, addend: 0x0, symName: __ZNK5Eigen8internal15nullary_wrapperIfNS0_18scalar_constant_opIfEELb1ELb0ELb0EEclIlEEfRKS3_T_S8_, symObjAddr: 0x96E8, symBinAddr: 0x10000D760, symSize: 0x30 }
  - { offsetInCU: 0x2639B5, offset: 0x2639B5, size: 0x8, addend: 0x0, symName: __ZNK5Eigen8internal18scalar_constant_opIfEclEv, symObjAddr: 0x9718, symBinAddr: 0x10000D790, symSize: 0x18 }
  - { offsetInCU: 0x2639DB, offset: 0x2639DB, size: 0x8, addend: 0x0, symName: __ZNK5Eigen8internal16binary_evaluatorINS_13CwiseBinaryOpINS0_18scalar_quotient_opIffEEKNS2_INS0_13scalar_sum_opIffEEKNS2_INS0_17scalar_product_opIffEEKNS_14CwiseNullaryOpINS0_18scalar_constant_opIfEEKNS_6MatrixIfLi3ELi3ELi0ELi3ELi3EEEEESE_EESI_EESG_EENS0_10IndexBasedESM_ffE4Data4funcEv, symObjAddr: 0x9730, symBinAddr: 0x10000D7A8, symSize: 0x14 }
  - { offsetInCU: 0x263A01, offset: 0x263A01, size: 0x8, addend: 0x0, symName: __ZNK5Eigen8internal18scalar_quotient_opIffEclERKfS4_, symObjAddr: 0x9744, symBinAddr: 0x10000D7BC, symSize: 0x2C }
  - { offsetInCU: 0x263A45, offset: 0x263A45, size: 0x8, addend: 0x0, symName: __ZNK5Eigen8internal16binary_evaluatorINS_13CwiseBinaryOpINS0_13scalar_sum_opIffEEKNS2_INS0_17scalar_product_opIffEEKNS_14CwiseNullaryOpINS0_18scalar_constant_opIfEEKNS_6MatrixIfLi3ELi3ELi0ELi3ELi3EEEEESC_EESG_EENS0_10IndexBasedESI_ffE5coeffEl, symObjAddr: 0x9770, symBinAddr: 0x10000D7E8, symSize: 0x70 }
  - { offsetInCU: 0x263A7A, offset: 0x263A7A, size: 0x8, addend: 0x0, symName: __ZNK5Eigen8internal16binary_evaluatorINS_13CwiseBinaryOpINS0_13scalar_sum_opIffEEKNS2_INS0_17scalar_product_opIffEEKNS_14CwiseNullaryOpINS0_18scalar_constant_opIfEEKNS_6MatrixIfLi3ELi3ELi0ELi3ELi3EEEEESC_EESG_EENS0_10IndexBasedESI_ffE4Data4funcEv, symObjAddr: 0x97E0, symBinAddr: 0x10000D858, symSize: 0x14 }
  - { offsetInCU: 0x263AA0, offset: 0x263AA0, size: 0x8, addend: 0x0, symName: __ZNK5Eigen8internal16binary_evaluatorINS_13CwiseBinaryOpINS0_18scalar_quotient_opIffEEKNS2_INS0_17scalar_product_opIffEEKNS_14CwiseNullaryOpINS0_18scalar_constant_opIfEEKNS_6MatrixIfLi3ELi3ELi0ELi3ELi3EEEEESC_EESE_EENS0_10IndexBasedESI_ffE4Data4funcEv, symObjAddr: 0x97F4, symBinAddr: 0x10000D86C, symSize: 0x14 }
  - { offsetInCU: 0x263AD0, offset: 0x263AD0, size: 0x8, addend: 0x0, symName: __ZNK5Eigen8internal9assign_opIffE12assignPacketILi16E18__simd64_float32_tEEvPfRKT0_, symObjAddr: 0x9808, symBinAddr: 0x10000D880, symSize: 0x40 }
  - { offsetInCU: 0x263B4A, offset: 0x263B4A, size: 0x8, addend: 0x0, symName: __ZNK5Eigen8internal16binary_evaluatorINS_13CwiseBinaryOpINS0_13scalar_sum_opIffEEKNS2_IS4_KNS2_IS4_KNS2_INS0_17scalar_product_opIffEEKNS_14CwiseNullaryOpINS0_18scalar_constant_opIfEEKNS_6MatrixIfLi3ELi3ELi0ELi3ELi3EEEEESC_EEKNS2_INS0_18scalar_quotient_opIffEEKNS2_IS4_SG_SG_EESE_EEEEKNS2_ISI_SG_SE_EEEESS_EENS0_10IndexBasedESU_ffE6packetILi0E18__simd64_float32_tEET0_l, symObjAddr: 0x9848, symBinAddr: 0x10000D8C0, symSize: 0x70 }
  - { offsetInCU: 0x263B92, offset: 0x263B92, size: 0x8, addend: 0x0, symName: __ZNK5Eigen8internal13scalar_sum_opIffE8packetOpI18__simd64_float32_tEET_RKS5_S7_, symObjAddr: 0x98E4, symBinAddr: 0x10000D95C, symSize: 0x30 }
  - { offsetInCU: 0x263BDD, offset: 0x263BDD, size: 0x8, addend: 0x0, symName: __ZNK5Eigen8internal16binary_evaluatorINS_13CwiseBinaryOpINS0_13scalar_sum_opIffEEKNS2_IS4_KNS2_INS0_17scalar_product_opIffEEKNS_14CwiseNullaryOpINS0_18scalar_constant_opIfEEKNS_6MatrixIfLi3ELi3ELi0ELi3ELi3EEEEESC_EEKNS2_INS0_18scalar_quotient_opIffEEKNS2_IS4_SG_SG_EESE_EEEEKNS2_ISI_SG_SE_EEEENS0_10IndexBasedESS_ffE6packetILi0E18__simd64_float32_tEET0_l, symObjAddr: 0x9914, symBinAddr: 0x10000D98C, symSize: 0x70 }
  - { offsetInCU: 0x263C25, offset: 0x263C25, size: 0x8, addend: 0x0, symName: __ZNK5Eigen8internal16binary_evaluatorINS_13CwiseBinaryOpINS0_13scalar_sum_opIffEEKNS2_INS0_17scalar_product_opIffEEKNS_14CwiseNullaryOpINS0_18scalar_constant_opIfEEKNS_6MatrixIfLi3ELi3ELi0ELi3ELi3EEEEESC_EEKNS2_INS0_18scalar_quotient_opIffEEKNS2_IS4_SG_SG_EESE_EEEENS0_10IndexBasedESO_ffE6packetILi0E18__simd64_float32_tEET0_l, symObjAddr: 0x99C4, symBinAddr: 0x10000DA3C, symSize: 0x70 }
  - { offsetInCU: 0x263C6D, offset: 0x263C6D, size: 0x8, addend: 0x0, symName: __ZNK5Eigen8internal16binary_evaluatorINS_13CwiseBinaryOpINS0_18scalar_quotient_opIffEEKNS2_INS0_17scalar_product_opIffEEKNS_14CwiseNullaryOpINS0_18scalar_constant_opIfEEKNS_6MatrixIfLi3ELi3ELi0ELi3ELi3EEEEESC_EESE_EENS0_10IndexBasedESI_ffE6packetILi0E18__simd64_float32_tEET0_l, symObjAddr: 0x9A34, symBinAddr: 0x10000DAAC, symSize: 0x70 }
  - { offsetInCU: 0x263CB5, offset: 0x263CB5, size: 0x8, addend: 0x0, symName: __ZNK5Eigen8internal16binary_evaluatorINS_13CwiseBinaryOpINS0_17scalar_product_opIffEEKNS_14CwiseNullaryOpINS0_18scalar_constant_opIfEEKNS_6MatrixIfLi3ELi3ELi0ELi3ELi3EEEEESA_EENS0_10IndexBasedESE_ffE6packetILi0E18__simd64_float32_tEET0_l, symObjAddr: 0x9AA4, symBinAddr: 0x10000DB1C, symSize: 0x70 }
  - { offsetInCU: 0x263CFD, offset: 0x263CFD, size: 0x8, addend: 0x0, symName: __ZNK5Eigen8internal16binary_evaluatorINS_13CwiseBinaryOpINS0_18scalar_quotient_opIffEEKNS2_INS0_13scalar_sum_opIffEEKNS2_INS0_17scalar_product_opIffEEKNS_14CwiseNullaryOpINS0_18scalar_constant_opIfEEKNS_6MatrixIfLi3ELi3ELi0ELi3ELi3EEEEESE_EESI_EESG_EENS0_10IndexBasedESM_ffE6packetILi0E18__simd64_float32_tEET0_l, symObjAddr: 0x9B14, symBinAddr: 0x10000DB8C, symSize: 0x70 }
  - { offsetInCU: 0x263D45, offset: 0x263D45, size: 0x8, addend: 0x0, symName: __ZNK5Eigen8internal17scalar_product_opIffE8packetOpI18__simd64_float32_tEET_RKS5_S7_, symObjAddr: 0x9B84, symBinAddr: 0x10000DBFC, symSize: 0x30 }
  - { offsetInCU: 0x263D90, offset: 0x263D90, size: 0x8, addend: 0x0, symName: __ZNK5Eigen8internal9evaluatorINS_14CwiseNullaryOpINS0_18scalar_constant_opIfEEKNS_6MatrixIfLi3ELi3ELi0ELi3ELi3EEEEEE6packetILi0E18__simd64_float32_tlEET0_T1_, symObjAddr: 0x9BB4, symBinAddr: 0x10000DC2C, symSize: 0x38 }
  - { offsetInCU: 0x263DEB, offset: 0x263DEB, size: 0x8, addend: 0x0, symName: __ZNK5Eigen8internal9evaluatorINS_15PlainObjectBaseINS_6MatrixIfLi3ELi3ELi0ELi3ELi3EEEEEE6packetILi0E18__simd64_float32_tEET0_l, symObjAddr: 0x9BEC, symBinAddr: 0x10000DC64, symSize: 0x3C }
  - { offsetInCU: 0x263E4F, offset: 0x263E4F, size: 0x8, addend: 0x0, symName: __ZNK5Eigen8internal15nullary_wrapperIfNS0_18scalar_constant_opIfEELb1ELb0ELb0EE8packetOpI18__simd64_float32_tlEET_RKS3_T0_SA_, symObjAddr: 0x9C68, symBinAddr: 0x10000DCE0, symSize: 0x30 }
  - { offsetInCU: 0x263EAC, offset: 0x263EAC, size: 0x8, addend: 0x0, symName: __ZNK5Eigen8internal18scalar_constant_opIfE8packetOpI18__simd64_float32_tEEKT_v, symObjAddr: 0x9C98, symBinAddr: 0x10000DD10, symSize: 0x24 }
  - { offsetInCU: 0x263EDB, offset: 0x263EDB, size: 0x8, addend: 0x0, symName: __ZNK5Eigen8internal18scalar_quotient_opIffE8packetOpI18__simd64_float32_tEEKT_RS6_S7_, symObjAddr: 0x9D34, symBinAddr: 0x10000DDAC, symSize: 0x30 }
  - { offsetInCU: 0x263F28, offset: 0x263F28, size: 0x8, addend: 0x0, symName: __ZNK5Eigen8internal16binary_evaluatorINS_13CwiseBinaryOpINS0_13scalar_sum_opIffEEKNS2_INS0_17scalar_product_opIffEEKNS_14CwiseNullaryOpINS0_18scalar_constant_opIfEEKNS_6MatrixIfLi3ELi3ELi0ELi3ELi3EEEEESC_EESG_EENS0_10IndexBasedESI_ffE6packetILi0E18__simd64_float32_tEET0_l, symObjAddr: 0x9D64, symBinAddr: 0x10000DDDC, symSize: 0x70 }
  - { offsetInCU: 0x263F70, offset: 0x263F70, size: 0x8, addend: 0x0, symName: __ZN5Eigen8internal9evaluatorINS_13CwiseBinaryOpINS0_13scalar_sum_opIffEEKNS2_IS4_KNS2_IS4_KNS2_INS0_17scalar_product_opIffEEKNS_14CwiseNullaryOpINS0_18scalar_constant_opIfEEKNS_6MatrixIfLi3ELi3ELi0ELi3ELi3EEEEESC_EEKNS2_INS0_18scalar_quotient_opIffEEKNS2_IS4_SG_SG_EESE_EEEEKNS2_ISI_SG_SE_EEEESS_EEED2Ev, symObjAddr: 0x9E14, symBinAddr: 0x10000DE8C, symSize: 0x2C }
  - { offsetInCU: 0x263F9D, offset: 0x263F9D, size: 0x8, addend: 0x0, symName: __ZN5Eigen8internal16binary_evaluatorINS_13CwiseBinaryOpINS0_13scalar_sum_opIffEEKNS2_IS4_KNS2_IS4_KNS2_INS0_17scalar_product_opIffEEKNS_14CwiseNullaryOpINS0_18scalar_constant_opIfEEKNS_6MatrixIfLi3ELi3ELi0ELi3ELi3EEEEESC_EEKNS2_INS0_18scalar_quotient_opIffEEKNS2_IS4_SG_SG_EESE_EEEEKNS2_ISI_SG_SE_EEEESS_EENS0_10IndexBasedESU_ffED2Ev, symObjAddr: 0x9E40, symBinAddr: 0x10000DEB8, symSize: 0x34 }
  - { offsetInCU: 0x263FC9, offset: 0x263FC9, size: 0x8, addend: 0x0, symName: __ZN5Eigen8internal16binary_evaluatorINS_13CwiseBinaryOpINS0_13scalar_sum_opIffEEKNS2_IS4_KNS2_IS4_KNS2_INS0_17scalar_product_opIffEEKNS_14CwiseNullaryOpINS0_18scalar_constant_opIfEEKNS_6MatrixIfLi3ELi3ELi0ELi3ELi3EEEEESC_EEKNS2_INS0_18scalar_quotient_opIffEEKNS2_IS4_SG_SG_EESE_EEEEKNS2_ISI_SG_SE_EEEESS_EENS0_10IndexBasedESU_ffE4DataD1Ev, symObjAddr: 0x9E74, symBinAddr: 0x10000DEEC, symSize: 0x2C }
  - { offsetInCU: 0x263FF6, offset: 0x263FF6, size: 0x8, addend: 0x0, symName: __ZN5Eigen8internal16binary_evaluatorINS_13CwiseBinaryOpINS0_13scalar_sum_opIffEEKNS2_IS4_KNS2_IS4_KNS2_INS0_17scalar_product_opIffEEKNS_14CwiseNullaryOpINS0_18scalar_constant_opIfEEKNS_6MatrixIfLi3ELi3ELi0ELi3ELi3EEEEESC_EEKNS2_INS0_18scalar_quotient_opIffEEKNS2_IS4_SG_SG_EESE_EEEEKNS2_ISI_SG_SE_EEEESS_EENS0_10IndexBasedESU_ffE4DataD2Ev, symObjAddr: 0x9EA0, symBinAddr: 0x10000DF18, symSize: 0x3C }
  - { offsetInCU: 0x264023, offset: 0x264023, size: 0x8, addend: 0x0, symName: __ZN5Eigen8internal9assign_opIffEC2Ev, symObjAddr: 0x9EDC, symBinAddr: 0x10000DF54, symSize: 0x14 }
  - { offsetInCU: 0x26404D, offset: 0x26404D, size: 0x8, addend: 0x0, symName: __ZN5Eigen6MatrixIfLi3ELi3ELi0ELi3ELi3EEC2INS_13CwiseBinaryOpINS_8internal13scalar_sum_opIffEEKNS3_IS6_KNS3_INS4_17scalar_product_opIffEEKNS_14CwiseNullaryOpINS4_18scalar_constant_opIfEEKS1_EESC_EEKNS3_INS4_18scalar_quotient_opIffEEKNS3_IS6_SG_SG_EESE_EEEEKNS3_ISI_SG_SE_EEEEEERKNS_9EigenBaseIT_EE, symObjAddr: 0x9EF0, symBinAddr: 0x10000DF68, symSize: 0x40 }
  - { offsetInCU: 0x26408F, offset: 0x26408F, size: 0x8, addend: 0x0, symName: __ZN5Eigen15PlainObjectBaseINS_6MatrixIfLi3ELi3ELi0ELi3ELi3EEEEC2INS_13CwiseBinaryOpINS_8internal13scalar_sum_opIffEEKNS5_IS8_KNS5_INS6_17scalar_product_opIffEEKNS_14CwiseNullaryOpINS6_18scalar_constant_opIfEEKS2_EESE_EEKNS5_INS6_18scalar_quotient_opIffEEKNS5_IS8_SI_SI_EESG_EEEEKNS5_ISK_SI_SG_EEEEEERKNS_9DenseBaseIT_EE, symObjAddr: 0x9F30, symBinAddr: 0x10000DFA8, symSize: 0x54 }
  - { offsetInCU: 0x2640D1, offset: 0x2640D1, size: 0x8, addend: 0x0, symName: __ZN5Eigen15PlainObjectBaseINS_6MatrixIfLi3ELi3ELi0ELi3ELi3EEEE10resizeLikeINS_13CwiseBinaryOpINS_8internal13scalar_sum_opIffEEKNS5_IS8_KNS5_INS6_17scalar_product_opIffEEKNS_14CwiseNullaryOpINS6_18scalar_constant_opIfEEKS2_EESE_EEKNS5_INS6_18scalar_quotient_opIffEEKNS5_IS8_SI_SI_EESG_EEEEKNS5_ISK_SI_SG_EEEEEEvRKNS_9EigenBaseIT_EE, symObjAddr: 0x9F84, symBinAddr: 0x10000DFFC, symSize: 0x9C }
  - { offsetInCU: 0x26412D, offset: 0x26412D, size: 0x8, addend: 0x0, symName: __ZN5Eigen15PlainObjectBaseINS_6MatrixIfLi3ELi3ELi0ELi3ELi3EEEE12_set_noaliasINS_13CwiseBinaryOpINS_8internal13scalar_sum_opIffEEKNS5_IS8_KNS5_INS6_17scalar_product_opIffEEKNS_14CwiseNullaryOpINS6_18scalar_constant_opIfEEKS2_EESE_EEKNS5_INS6_18scalar_quotient_opIffEEKNS5_IS8_SI_SI_EESG_EEEEKNS5_ISK_SI_SG_EEEEEERS2_RKNS_9DenseBaseIT_EE, symObjAddr: 0xA020, symBinAddr: 0x10000E098, symSize: 0x60 }
  - { offsetInCU: 0x26416B, offset: 0x26416B, size: 0x8, addend: 0x0, symName: __ZN5Eigen8internal10AssignmentINS_6MatrixIfLi3ELi3ELi0ELi3ELi3EEENS_13CwiseBinaryOpINS0_13scalar_sum_opIffEEKNS4_IS6_KNS4_INS0_17scalar_product_opIffEEKNS_14CwiseNullaryOpINS0_18scalar_constant_opIfEEKS3_EESC_EEKNS4_INS0_18scalar_quotient_opIffEEKNS4_IS6_SG_SG_EESE_EEEEKNS4_ISI_SG_SE_EEEENS0_9assign_opIffEENS0_11Dense2DenseEvE3runERS3_RKSR_RKST_, symObjAddr: 0xA0BC, symBinAddr: 0x10000E134, symSize: 0x40 }
  - { offsetInCU: 0x2641AD, offset: 0x2641AD, size: 0x8, addend: 0x0, symName: __ZN5Eigen8internal27checkTransposeAliasing_implINS_6MatrixIfLi3ELi3ELi0ELi3ELi3EEENS_13CwiseBinaryOpINS0_13scalar_sum_opIffEEKNS4_IS6_KNS4_INS0_17scalar_product_opIffEEKNS_14CwiseNullaryOpINS0_18scalar_constant_opIfEEKS3_EESC_EEKNS4_INS0_18scalar_quotient_opIffEEKNS4_IS6_SG_SG_EESE_EEEEKNS4_ISI_SG_SE_EEEELb0EE3runERSC_RKSR_, symObjAddr: 0xA23C, symBinAddr: 0x10000E2B4, symSize: 0x14 }
  - { offsetInCU: 0x2641D8, offset: 0x2641D8, size: 0x8, addend: 0x0, symName: __ZN5Eigen8internal9evaluatorINS_13CwiseBinaryOpINS0_13scalar_sum_opIffEEKNS2_IS4_KNS2_INS0_17scalar_product_opIffEEKNS_14CwiseNullaryOpINS0_18scalar_constant_opIfEEKNS_6MatrixIfLi3ELi3ELi0ELi3ELi3EEEEESC_EEKNS2_INS0_18scalar_quotient_opIffEEKNS2_IS4_SG_SG_EESE_EEEEKNS2_ISI_SG_SE_EEEEEC1ERKSR_, symObjAddr: 0xA250, symBinAddr: 0x10000E2C8, symSize: 0x34 }
  - { offsetInCU: 0x264211, offset: 0x264211, size: 0x8, addend: 0x0, symName: __ZN5Eigen8internal31generic_dense_assignment_kernelINS0_9evaluatorINS_6MatrixIfLi3ELi3ELi0ELi3ELi3EEEEENS2_INS_13CwiseBinaryOpINS0_13scalar_sum_opIffEEKNS6_IS8_KNS6_INS0_17scalar_product_opIffEEKNS_14CwiseNullaryOpINS0_18scalar_constant_opIfEEKS4_EESE_EEKNS6_INS0_18scalar_quotient_opIffEEKNS6_IS8_SI_SI_EESG_EEEEKNS6_ISK_SI_SG_EEEEEENS0_9assign_opIffEELi0EEC1ERS5_RKSU_RKSW_RS4_, symObjAddr: 0xA37C, symBinAddr: 0x10000E3F4, symSize: 0x4C }
  - { offsetInCU: 0x264277, offset: 0x264277, size: 0x8, addend: 0x0, symName: __ZN5Eigen8internal9evaluatorINS_13CwiseBinaryOpINS0_13scalar_sum_opIffEEKNS2_IS4_KNS2_INS0_17scalar_product_opIffEEKNS_14CwiseNullaryOpINS0_18scalar_constant_opIfEEKNS_6MatrixIfLi3ELi3ELi0ELi3ELi3EEEEESC_EEKNS2_INS0_18scalar_quotient_opIffEEKNS2_IS4_SG_SG_EESE_EEEEKNS2_ISI_SG_SE_EEEEED1Ev, symObjAddr: 0xA488, symBinAddr: 0x10000E500, symSize: 0x2C }
  - { offsetInCU: 0x2642A4, offset: 0x2642A4, size: 0x8, addend: 0x0, symName: __ZN5Eigen8internal31generic_dense_assignment_kernelINS0_9evaluatorINS_6MatrixIfLi3ELi3ELi0ELi3ELi3EEEEENS2_INS_13CwiseBinaryOpINS0_13scalar_sum_opIffEEKNS6_IS8_KNS6_INS0_17scalar_product_opIffEEKNS_14CwiseNullaryOpINS0_18scalar_constant_opIfEEKS4_EESE_EEKNS6_INS0_18scalar_quotient_opIffEEKNS6_IS8_SI_SI_EESG_EEEEKNS6_ISK_SI_SG_EEEEEENS0_9assign_opIffEELi0EEC2ERS5_RKSU_RKSW_RS4_, symObjAddr: 0xA4B4, symBinAddr: 0x10000E52C, symSize: 0x44 }
  - { offsetInCU: 0x26430A, offset: 0x26430A, size: 0x8, addend: 0x0, symName: __ZNK5Eigen8internal31generic_dense_assignment_kernelINS0_9evaluatorINS_6MatrixIfLi3ELi3ELi0ELi3ELi3EEEEENS2_INS_13CwiseBinaryOpINS0_13scalar_sum_opIffEEKNS6_IS8_KNS6_INS0_17scalar_product_opIffEEKNS_14CwiseNullaryOpINS0_18scalar_constant_opIfEEKS4_EESE_EEKNS6_INS0_18scalar_quotient_opIffEEKNS6_IS8_SI_SI_EESG_EEEEKNS6_ISK_SI_SG_EEEEEENS0_9assign_opIffEELi0EE4sizeEv, symObjAddr: 0xA4F8, symBinAddr: 0x10000E570, symSize: 0x28 }
  - { offsetInCU: 0x264330, offset: 0x264330, size: 0x8, addend: 0x0, symName: __ZNK5Eigen8internal31generic_dense_assignment_kernelINS0_9evaluatorINS_6MatrixIfLi3ELi3ELi0ELi3ELi3EEEEENS2_INS_13CwiseBinaryOpINS0_13scalar_sum_opIffEEKNS6_IS8_KNS6_INS0_17scalar_product_opIffEEKNS_14CwiseNullaryOpINS0_18scalar_constant_opIfEEKS4_EESE_EEKNS6_INS0_18scalar_quotient_opIffEEKNS6_IS8_SI_SI_EESG_EEEEKNS6_ISK_SI_SG_EEEEEENS0_9assign_opIffEELi0EE10dstDataPtrEv, symObjAddr: 0xA520, symBinAddr: 0x10000E598, symSize: 0x28 }
  - { offsetInCU: 0x264356, offset: 0x264356, size: 0x8, addend: 0x0, symName: __ZN5Eigen8internal31unaligned_dense_assignment_loopILb0EE3runINS0_31generic_dense_assignment_kernelINS0_9evaluatorINS_6MatrixIfLi3ELi3ELi0ELi3ELi3EEEEENS5_INS_13CwiseBinaryOpINS0_13scalar_sum_opIffEEKNS9_ISB_KNS9_INS0_17scalar_product_opIffEEKNS_14CwiseNullaryOpINS0_18scalar_constant_opIfEEKS7_EESH_EEKNS9_INS0_18scalar_quotient_opIffEEKNS9_ISB_SL_SL_EESJ_EEEEKNS9_ISN_SL_SJ_EEEEEENS0_9assign_opIffEELi0EEEEEvRT_ll, symObjAddr: 0xA548, symBinAddr: 0x10000E5C0, symSize: 0x68 }
  - { offsetInCU: 0x2643BE, offset: 0x2643BE, size: 0x8, addend: 0x0, symName: __ZN5Eigen8internal31generic_dense_assignment_kernelINS0_9evaluatorINS_6MatrixIfLi3ELi3ELi0ELi3ELi3EEEEENS2_INS_13CwiseBinaryOpINS0_13scalar_sum_opIffEEKNS6_IS8_KNS6_INS0_17scalar_product_opIffEEKNS_14CwiseNullaryOpINS0_18scalar_constant_opIfEEKS4_EESE_EEKNS6_INS0_18scalar_quotient_opIffEEKNS6_IS8_SI_SI_EESG_EEEEKNS6_ISK_SI_SG_EEEEEENS0_9assign_opIffEELi0EE12assignPacketILi16ELi0E18__simd64_float32_tEEvl, symObjAddr: 0xA5B0, symBinAddr: 0x10000E628, symSize: 0x64 }
  - { offsetInCU: 0x264410, offset: 0x264410, size: 0x8, addend: 0x0, symName: __ZN5Eigen8internal31generic_dense_assignment_kernelINS0_9evaluatorINS_6MatrixIfLi3ELi3ELi0ELi3ELi3EEEEENS2_INS_13CwiseBinaryOpINS0_13scalar_sum_opIffEEKNS6_IS8_KNS6_INS0_17scalar_product_opIffEEKNS_14CwiseNullaryOpINS0_18scalar_constant_opIfEEKS4_EESE_EEKNS6_INS0_18scalar_quotient_opIffEEKNS6_IS8_SI_SI_EESG_EEEEKNS6_ISK_SI_SG_EEEEEENS0_9assign_opIffEELi0EE11assignCoeffEl, symObjAddr: 0xA614, symBinAddr: 0x10000E68C, symSize: 0x64 }
  - { offsetInCU: 0x264445, offset: 0x264445, size: 0x8, addend: 0x0, symName: __ZN5Eigen11EigenSolverINS_6MatrixIfLi3ELi3ELi0ELi3ELi3EEEEC2IS2_EERKNS_9EigenBaseIT_EEb, symObjAddr: 0xA678, symBinAddr: 0x10000E6F0, symSize: 0x118 }
  - { offsetInCU: 0x264499, offset: 0x264499, size: 0x8, addend: 0x0, symName: __ZN5Eigen6MatrixIfLi3ELi3ELi0ELi3ELi3EEC1IllEERKT_RKT0_, symObjAddr: 0xA790, symBinAddr: 0x10000E808, symSize: 0x3C }
  - { offsetInCU: 0x2644F3, offset: 0x2644F3, size: 0x8, addend: 0x0, symName: __ZN5Eigen6MatrixINSt3__17complexIfEELi3ELi1ELi0ELi3ELi1EEC1IlEERKT_, symObjAddr: 0xA7CC, symBinAddr: 0x10000E844, symSize: 0x34 }
  - { offsetInCU: 0x264535, offset: 0x264535, size: 0x8, addend: 0x0, symName: __ZN5Eigen9RealSchurINS_6MatrixIfLi3ELi3ELi0ELi3ELi3EEEEC1El, symObjAddr: 0xA800, symBinAddr: 0x10000E878, symSize: 0x34 }
  - { offsetInCU: 0x26456D, offset: 0x26456D, size: 0x8, addend: 0x0, symName: __ZN5Eigen6MatrixIfLi3ELi1ELi0ELi3ELi1EEC1IlEERKT_, symObjAddr: 0xA834, symBinAddr: 0x10000E8AC, symSize: 0x34 }
  - { offsetInCU: 0x2645AF, offset: 0x2645AF, size: 0x8, addend: 0x0, symName: __ZN5Eigen11EigenSolverINS_6MatrixIfLi3ELi3ELi0ELi3ELi3EEEE7computeIS2_EERS3_RKNS_9EigenBaseIT_EEb, symObjAddr: 0xA868, symBinAddr: 0x10000E8E0, symSize: 0x500 }
  - { offsetInCU: 0x264706, offset: 0x264706, size: 0x8, addend: 0x0, symName: __ZN5Eigen6MatrixIfLi3ELi3ELi0ELi3ELi3EEC2IllEERKT_RKT0_, symObjAddr: 0xAD68, symBinAddr: 0x10000EDE0, symSize: 0x54 }
  - { offsetInCU: 0x264765, offset: 0x264765, size: 0x8, addend: 0x0, symName: __ZN5Eigen15PlainObjectBaseINS_6MatrixIfLi3ELi3ELi0ELi3ELi3EEEE6_init2IllEEvllPNS_8internal9enable_ifILb1ET_E4typeE, symObjAddr: 0xADBC, symBinAddr: 0x10000EE34, symSize: 0x44 }
  - { offsetInCU: 0x2647E4, offset: 0x2647E4, size: 0x8, addend: 0x0, symName: __ZN5Eigen6MatrixINSt3__17complexIfEELi3ELi1ELi0ELi3ELi1EEC2IlEERKT_, symObjAddr: 0xAE00, symBinAddr: 0x10000EE78, symSize: 0x48 }
  - { offsetInCU: 0x264826, offset: 0x264826, size: 0x8, addend: 0x0, symName: __ZN5Eigen15PlainObjectBaseINS_6MatrixINSt3__17complexIfEELi3ELi1ELi0ELi3ELi1EEEEC2Ev, symObjAddr: 0xAE48, symBinAddr: 0x10000EEC0, symSize: 0x34 }
  - { offsetInCU: 0x264850, offset: 0x264850, size: 0x8, addend: 0x0, symName: __ZN5Eigen15PlainObjectBaseINS_6MatrixINSt3__17complexIfEELi3ELi1ELi0ELi3ELi1EEEE22_check_template_paramsEv, symObjAddr: 0xAE7C, symBinAddr: 0x10000EEF4, symSize: 0x4 }
  - { offsetInCU: 0x264864, offset: 0x264864, size: 0x8, addend: 0x0, symName: __ZN5Eigen15PlainObjectBaseINS_6MatrixINSt3__17complexIfEELi3ELi1ELi0ELi3ELi1EEEE6_init1IlEEvlPNS_8internal9enable_ifIXaaooneLNS_9DenseBaseIS5_EUt_E3ELi1Entsr8internal14is_convertibleIT_S4_EE5valueoontLNS8_7is_sameINS_9MatrixXprENS_8ArrayXprEEUt_E0EeqLSC_3EL_ZNS_L7DynamicEEESD_E4typeE, symObjAddr: 0xAE80, symBinAddr: 0x10000EEF8, symSize: 0x48 }
  - { offsetInCU: 0x2648BC, offset: 0x2648BC, size: 0x8, addend: 0x0, symName: __ZN5Eigen10MatrixBaseINS_6MatrixINSt3__17complexIfEELi3ELi1ELi0ELi3ELi1EEEEC2Ev, symObjAddr: 0xAEC8, symBinAddr: 0x10000EF40, symSize: 0x2C }
  - { offsetInCU: 0x2648E6, offset: 0x2648E6, size: 0x8, addend: 0x0, symName: __ZN5Eigen12DenseStorageINSt3__17complexIfEELi3ELi3ELi1ELi0EEC1Ev, symObjAddr: 0xAEF4, symBinAddr: 0x10000EF6C, symSize: 0x2C }
  - { offsetInCU: 0x264910, offset: 0x264910, size: 0x8, addend: 0x0, symName: __ZN5Eigen9DenseBaseINS_6MatrixINSt3__17complexIfEELi3ELi1ELi0ELi3ELi1EEEEC2Ev, symObjAddr: 0xAF20, symBinAddr: 0x10000EF98, symSize: 0x14 }
  - { offsetInCU: 0x26493A, offset: 0x26493A, size: 0x8, addend: 0x0, symName: __ZN5Eigen12DenseStorageINSt3__17complexIfEELi3ELi3ELi1ELi0EEC2Ev, symObjAddr: 0xAF34, symBinAddr: 0x10000EFAC, symSize: 0x2C }
  - { offsetInCU: 0x264964, offset: 0x264964, size: 0x8, addend: 0x0, symName: __ZN5Eigen8internal11plain_arrayINSt3__17complexIfEELi3ELi0ELi0EEC1Ev, symObjAddr: 0xAF60, symBinAddr: 0x10000EFD8, symSize: 0x2C }
  - { offsetInCU: 0x26498E, offset: 0x26498E, size: 0x8, addend: 0x0, symName: __ZN5Eigen8internal11plain_arrayINSt3__17complexIfEELi3ELi0ELi0EEC2Ev, symObjAddr: 0xAF8C, symBinAddr: 0x10000F004, symSize: 0x74 }
  - { offsetInCU: 0x2649B8, offset: 0x2649B8, size: 0x8, addend: 0x0, symName: __ZNSt3__17complexIfEC1B7v160006Eff, symObjAddr: 0xB000, symBinAddr: 0x10000F078, symSize: 0x3C }
  - { offsetInCU: 0x264A00, offset: 0x264A00, size: 0x8, addend: 0x0, symName: __ZNSt3__17complexIfEC2B7v160006Eff, symObjAddr: 0xB040, symBinAddr: 0x10000F0B8, symSize: 0x2C }
  - { offsetInCU: 0x264A48, offset: 0x264A48, size: 0x8, addend: 0x0, symName: __ZN5Eigen15PlainObjectBaseINS_6MatrixINSt3__17complexIfEELi3ELi1ELi0ELi3ELi1EEEE6resizeEl, symObjAddr: 0xB07C, symBinAddr: 0x10000F0F4, symSize: 0xA0 }
  - { offsetInCU: 0x264A7D, offset: 0x264A7D, size: 0x8, addend: 0x0, symName: __ZN5Eigen12DenseStorageINSt3__17complexIfEELi3ELi3ELi1ELi0EE6resizeElll, symObjAddr: 0xB11C, symBinAddr: 0x10000F194, symSize: 0x1C }
  - { offsetInCU: 0x264AC4, offset: 0x264AC4, size: 0x8, addend: 0x0, symName: __ZN5Eigen9RealSchurINS_6MatrixIfLi3ELi3ELi0ELi3ELi3EEEEC2El, symObjAddr: 0xB138, symBinAddr: 0x10000F1B0, symSize: 0x80 }
  - { offsetInCU: 0x264AFC, offset: 0x264AFC, size: 0x8, addend: 0x0, symName: __ZN5Eigen23HessenbergDecompositionINS_6MatrixIfLi3ELi3ELi0ELi3ELi3EEEEC1El, symObjAddr: 0xB1B8, symBinAddr: 0x10000F230, symSize: 0x34 }
  - { offsetInCU: 0x264B34, offset: 0x264B34, size: 0x8, addend: 0x0, symName: __ZN5Eigen23HessenbergDecompositionINS_6MatrixIfLi3ELi3ELi0ELi3ELi3EEEEC2El, symObjAddr: 0xB1EC, symBinAddr: 0x10000F264, symSize: 0x94 }
  - { offsetInCU: 0x264B6C, offset: 0x264B6C, size: 0x8, addend: 0x0, symName: __ZN5Eigen6MatrixIfLi2ELi1ELi0ELi2ELi1EEC1Ev, symObjAddr: 0xB280, symBinAddr: 0x10000F2F8, symSize: 0x2C }
  - { offsetInCU: 0x264B96, offset: 0x264B96, size: 0x8, addend: 0x0, symName: __ZN5Eigen6MatrixIfLi1ELi3ELi1ELi1ELi3EEC1IlEERKT_, symObjAddr: 0xB2AC, symBinAddr: 0x10000F324, symSize: 0x34 }
  - { offsetInCU: 0x264BD8, offset: 0x264BD8, size: 0x8, addend: 0x0, symName: __ZN5Eigen15PlainObjectBaseINS_6MatrixIfLi2ELi1ELi0ELi2ELi1EEEE6resizeEl, symObjAddr: 0xB2E0, symBinAddr: 0x10000F358, symSize: 0xA0 }
  - { offsetInCU: 0x264C0D, offset: 0x264C0D, size: 0x8, addend: 0x0, symName: __ZN5Eigen6MatrixIfLi2ELi1ELi0ELi2ELi1EEC2Ev, symObjAddr: 0xB380, symBinAddr: 0x10000F3F8, symSize: 0x30 }
  - { offsetInCU: 0x264C37, offset: 0x264C37, size: 0x8, addend: 0x0, symName: __ZN5Eigen15PlainObjectBaseINS_6MatrixIfLi2ELi1ELi0ELi2ELi1EEEEC2Ev, symObjAddr: 0xB3B0, symBinAddr: 0x10000F428, symSize: 0x34 }
  - { offsetInCU: 0x264C61, offset: 0x264C61, size: 0x8, addend: 0x0, symName: __ZN5Eigen15PlainObjectBaseINS_6MatrixIfLi2ELi1ELi0ELi2ELi1EEEE22_check_template_paramsEv, symObjAddr: 0xB3E4, symBinAddr: 0x10000F45C, symSize: 0x4 }
  - { offsetInCU: 0x264C75, offset: 0x264C75, size: 0x8, addend: 0x0, symName: __ZN5Eigen10MatrixBaseINS_6MatrixIfLi2ELi1ELi0ELi2ELi1EEEEC2Ev, symObjAddr: 0xB3E8, symBinAddr: 0x10000F460, symSize: 0x2C }
  - { offsetInCU: 0x264C9F, offset: 0x264C9F, size: 0x8, addend: 0x0, symName: __ZN5Eigen12DenseStorageIfLi2ELi2ELi1ELi0EEC1Ev, symObjAddr: 0xB414, symBinAddr: 0x10000F48C, symSize: 0x2C }
  - { offsetInCU: 0x264CC9, offset: 0x264CC9, size: 0x8, addend: 0x0, symName: __ZN5Eigen9DenseBaseINS_6MatrixIfLi2ELi1ELi0ELi2ELi1EEEEC2Ev, symObjAddr: 0xB440, symBinAddr: 0x10000F4B8, symSize: 0x14 }
  - { offsetInCU: 0x264CF3, offset: 0x264CF3, size: 0x8, addend: 0x0, symName: __ZN5Eigen12DenseStorageIfLi2ELi2ELi1ELi0EEC2Ev, symObjAddr: 0xB454, symBinAddr: 0x10000F4CC, symSize: 0x2C }
  - { offsetInCU: 0x264D1D, offset: 0x264D1D, size: 0x8, addend: 0x0, symName: __ZN5Eigen8internal11plain_arrayIfLi2ELi0ELi0EEC1Ev, symObjAddr: 0xB480, symBinAddr: 0x10000F4F8, symSize: 0x2C }
  - { offsetInCU: 0x264D47, offset: 0x264D47, size: 0x8, addend: 0x0, symName: __ZN5Eigen8internal11plain_arrayIfLi2ELi0ELi0EEC2Ev, symObjAddr: 0xB4AC, symBinAddr: 0x10000F524, symSize: 0x2C }
  - { offsetInCU: 0x264D71, offset: 0x264D71, size: 0x8, addend: 0x0, symName: __ZN5Eigen6MatrixIfLi1ELi3ELi1ELi1ELi3EEC2IlEERKT_, symObjAddr: 0xB4DC, symBinAddr: 0x10000F554, symSize: 0x48 }
  - { offsetInCU: 0x264DB3, offset: 0x264DB3, size: 0x8, addend: 0x0, symName: __ZN5Eigen15PlainObjectBaseINS_6MatrixIfLi1ELi3ELi1ELi1ELi3EEEEC2Ev, symObjAddr: 0xB524, symBinAddr: 0x10000F59C, symSize: 0x34 }
  - { offsetInCU: 0x264DDD, offset: 0x264DDD, size: 0x8, addend: 0x0, symName: __ZN5Eigen15PlainObjectBaseINS_6MatrixIfLi1ELi3ELi1ELi1ELi3EEEE22_check_template_paramsEv, symObjAddr: 0xB558, symBinAddr: 0x10000F5D0, symSize: 0x4 }
  - { offsetInCU: 0x264DF1, offset: 0x264DF1, size: 0x8, addend: 0x0, symName: __ZN5Eigen15PlainObjectBaseINS_6MatrixIfLi1ELi3ELi1ELi1ELi3EEEE6_init1IlEEvlPNS_8internal9enable_ifIXaaooneLNS_9DenseBaseIS2_EUt_E3ELi1Entsr8internal14is_convertibleIT_fEE5valueoontLNS5_7is_sameINS_9MatrixXprENS_8ArrayXprEEUt_E0EeqLS9_3EL_ZNS_L7DynamicEEESA_E4typeE, symObjAddr: 0xB55C, symBinAddr: 0x10000F5D4, symSize: 0x48 }
  - { offsetInCU: 0x264E49, offset: 0x264E49, size: 0x8, addend: 0x0, symName: __ZN5Eigen10MatrixBaseINS_6MatrixIfLi1ELi3ELi1ELi1ELi3EEEEC2Ev, symObjAddr: 0xB5A4, symBinAddr: 0x10000F61C, symSize: 0x2C }
  - { offsetInCU: 0x264E73, offset: 0x264E73, size: 0x8, addend: 0x0, symName: __ZN5Eigen12DenseStorageIfLi3ELi1ELi3ELi1EEC1Ev, symObjAddr: 0xB5D0, symBinAddr: 0x10000F648, symSize: 0x2C }
  - { offsetInCU: 0x264E9D, offset: 0x264E9D, size: 0x8, addend: 0x0, symName: __ZN5Eigen9DenseBaseINS_6MatrixIfLi1ELi3ELi1ELi1ELi3EEEEC2Ev, symObjAddr: 0xB5FC, symBinAddr: 0x10000F674, symSize: 0x14 }
  - { offsetInCU: 0x264EC7, offset: 0x264EC7, size: 0x8, addend: 0x0, symName: __ZN5Eigen12DenseStorageIfLi3ELi1ELi3ELi1EEC2Ev, symObjAddr: 0xB610, symBinAddr: 0x10000F688, symSize: 0x2C }
  - { offsetInCU: 0x264EF1, offset: 0x264EF1, size: 0x8, addend: 0x0, symName: __ZN5Eigen8internal11plain_arrayIfLi3ELi1ELi0EEC1Ev, symObjAddr: 0xB63C, symBinAddr: 0x10000F6B4, symSize: 0x2C }
  - { offsetInCU: 0x264F1B, offset: 0x264F1B, size: 0x8, addend: 0x0, symName: __ZN5Eigen8internal11plain_arrayIfLi3ELi1ELi0EEC2Ev, symObjAddr: 0xB668, symBinAddr: 0x10000F6E0, symSize: 0x2C }
  - { offsetInCU: 0x264F45, offset: 0x264F45, size: 0x8, addend: 0x0, symName: __ZN5Eigen15PlainObjectBaseINS_6MatrixIfLi1ELi3ELi1ELi1ELi3EEEE6resizeEl, symObjAddr: 0xB698, symBinAddr: 0x10000F710, symSize: 0xA0 }
  - { offsetInCU: 0x264F7A, offset: 0x264F7A, size: 0x8, addend: 0x0, symName: __ZN5Eigen12DenseStorageIfLi3ELi1ELi3ELi1EE6resizeElll, symObjAddr: 0xB738, symBinAddr: 0x10000F7B0, symSize: 0x1C }
  - { offsetInCU: 0x264FC1, offset: 0x264FC1, size: 0x8, addend: 0x0, symName: __ZN5Eigen12DenseStorageIfLi2ELi2ELi1ELi0EE6resizeElll, symObjAddr: 0xB754, symBinAddr: 0x10000F7CC, symSize: 0x1C }
  - { offsetInCU: 0x265008, offset: 0x265008, size: 0x8, addend: 0x0, symName: __ZN5Eigen6MatrixIfLi3ELi1ELi0ELi3ELi1EEC2IlEERKT_, symObjAddr: 0xB770, symBinAddr: 0x10000F7E8, symSize: 0x48 }
  - { offsetInCU: 0x26504A, offset: 0x26504A, size: 0x8, addend: 0x0, symName: __ZN5Eigen15PlainObjectBaseINS_6MatrixIfLi3ELi1ELi0ELi3ELi1EEEEC2Ev, symObjAddr: 0xB7B8, symBinAddr: 0x10000F830, symSize: 0x34 }
  - { offsetInCU: 0x265074, offset: 0x265074, size: 0x8, addend: 0x0, symName: __ZN5Eigen15PlainObjectBaseINS_6MatrixIfLi3ELi1ELi0ELi3ELi1EEEE22_check_template_paramsEv, symObjAddr: 0xB7EC, symBinAddr: 0x10000F864, symSize: 0x4 }
  - { offsetInCU: 0x265088, offset: 0x265088, size: 0x8, addend: 0x0, symName: __ZN5Eigen15PlainObjectBaseINS_6MatrixIfLi3ELi1ELi0ELi3ELi1EEEE6_init1IlEEvlPNS_8internal9enable_ifIXaaooneLNS_9DenseBaseIS2_EUt_E3ELi1Entsr8internal14is_convertibleIT_fEE5valueoontLNS5_7is_sameINS_9MatrixXprENS_8ArrayXprEEUt_E0EeqLS9_3EL_ZNS_L7DynamicEEESA_E4typeE, symObjAddr: 0xB7F0, symBinAddr: 0x10000F868, symSize: 0x48 }
  - { offsetInCU: 0x2650E0, offset: 0x2650E0, size: 0x8, addend: 0x0, symName: __ZN5Eigen10MatrixBaseINS_6MatrixIfLi3ELi1ELi0ELi3ELi1EEEEC2Ev, symObjAddr: 0xB838, symBinAddr: 0x10000F8B0, symSize: 0x2C }
  - { offsetInCU: 0x26510A, offset: 0x26510A, size: 0x8, addend: 0x0, symName: __ZN5Eigen12DenseStorageIfLi3ELi3ELi1ELi0EEC1Ev, symObjAddr: 0xB864, symBinAddr: 0x10000F8DC, symSize: 0x2C }
  - { offsetInCU: 0x265134, offset: 0x265134, size: 0x8, addend: 0x0, symName: __ZN5Eigen9DenseBaseINS_6MatrixIfLi3ELi1ELi0ELi3ELi1EEEEC2Ev, symObjAddr: 0xB890, symBinAddr: 0x10000F908, symSize: 0x14 }
  - { offsetInCU: 0x26515E, offset: 0x26515E, size: 0x8, addend: 0x0, symName: __ZN5Eigen12DenseStorageIfLi3ELi3ELi1ELi0EEC2Ev, symObjAddr: 0xB8A4, symBinAddr: 0x10000F91C, symSize: 0x2C }
  - { offsetInCU: 0x265188, offset: 0x265188, size: 0x8, addend: 0x0, symName: __ZN5Eigen8internal11plain_arrayIfLi3ELi0ELi0EEC1Ev, symObjAddr: 0xB8D0, symBinAddr: 0x10000F948, symSize: 0x2C }
  - { offsetInCU: 0x2651B2, offset: 0x2651B2, size: 0x8, addend: 0x0, symName: __ZN5Eigen8internal11plain_arrayIfLi3ELi0ELi0EEC2Ev, symObjAddr: 0xB8FC, symBinAddr: 0x10000F974, symSize: 0x2C }
  - { offsetInCU: 0x2651DC, offset: 0x2651DC, size: 0x8, addend: 0x0, symName: __ZN5Eigen15PlainObjectBaseINS_6MatrixIfLi3ELi1ELi0ELi3ELi1EEEE6resizeEl, symObjAddr: 0xB928, symBinAddr: 0x10000F9A0, symSize: 0xA0 }
  - { offsetInCU: 0x265211, offset: 0x265211, size: 0x8, addend: 0x0, symName: __ZN5Eigen12DenseStorageIfLi3ELi3ELi1ELi0EE6resizeElll, symObjAddr: 0xB9C8, symBinAddr: 0x10000FA40, symSize: 0x1C }
  - { offsetInCU: 0x265258, offset: 0x265258, size: 0x8, addend: 0x0, symName: __ZN5Eigen11EigenSolverINS_6MatrixIfLi3ELi3ELi0ELi3ELi3EEEE25check_template_parametersEv, symObjAddr: 0xB9E4, symBinAddr: 0x10000FA5C, symSize: 0x4 }
  - { offsetInCU: 0x26526C, offset: 0x26526C, size: 0x8, addend: 0x0, symName: __ZN5Eigen9RealSchurINS_6MatrixIfLi3ELi3ELi0ELi3ELi3EEEE7computeIS2_EERS3_RKNS_9EigenBaseIT_EEb, symObjAddr: 0xB9E8, symBinAddr: 0x10000FA60, symSize: 0x258 }
  - { offsetInCU: 0x2652E3, offset: 0x2652E3, size: 0x8, addend: 0x0, symName: __ZNK5Eigen9RealSchurINS_6MatrixIfLi3ELi3ELi0ELi3ELi3EEEE4infoEv, symObjAddr: 0xBC40, symBinAddr: 0x10000FCB8, symSize: 0x7C }
  - { offsetInCU: 0x265309, offset: 0x265309, size: 0x8, addend: 0x0, symName: __ZNK5Eigen9RealSchurINS_6MatrixIfLi3ELi3ELi0ELi3ELi3EEEE7matrixTEv, symObjAddr: 0xBCBC, symBinAddr: 0x10000FD34, symSize: 0x78 }
  - { offsetInCU: 0x26532F, offset: 0x26532F, size: 0x8, addend: 0x0, symName: __ZN5Eigen6MatrixIfLi3ELi3ELi0ELi3ELi3EEaSERKS1_, symObjAddr: 0xBD34, symBinAddr: 0x10000FDAC, symSize: 0x2C }
  - { offsetInCU: 0x265363, offset: 0x265363, size: 0x8, addend: 0x0, symName: __ZNK5Eigen9RealSchurINS_6MatrixIfLi3ELi3ELi0ELi3ELi3EEEE7matrixUEv, symObjAddr: 0xBD60, symBinAddr: 0x10000FDD8, symSize: 0xD0 }
  - { offsetInCU: 0x265389, offset: 0x265389, size: 0x8, addend: 0x0, symName: __ZNK5Eigen15PlainObjectBaseINS_6MatrixIfLi3ELi3ELi0ELi3ELi3EEEE5coeffEll, symObjAddr: 0xBE30, symBinAddr: 0x10000FEA8, symSize: 0x60 }
  - { offsetInCU: 0x2653CB, offset: 0x2653CB, size: 0x8, addend: 0x0, symName: __ZN5Eigen15PlainObjectBaseINS_6MatrixINSt3__17complexIfEELi3ELi1ELi0ELi3ELi1EEEE8coeffRefEl, symObjAddr: 0xBE90, symBinAddr: 0x10000FF08, symSize: 0x30 }
  - { offsetInCU: 0x2653FF, offset: 0x2653FF, size: 0x8, addend: 0x0, symName: __ZNSt3__17complexIfEaSB7v160006Ef, symObjAddr: 0xBEC0, symBinAddr: 0x10000FF38, symSize: 0x28 }
  - { offsetInCU: 0x265433, offset: 0x265433, size: 0x8, addend: 0x0, symName: __Z4sqrtB7v160006f, symObjAddr: 0xBF10, symBinAddr: 0x10000FF88, symSize: 0x18 }
  - { offsetInCU: 0x265462, offset: 0x265462, size: 0x8, addend: 0x0, symName: __ZN5Eigen11EigenSolverINS_6MatrixIfLi3ELi3ELi0ELi3ELi3EEEE21doComputeEigenvectorsEv, symObjAddr: 0xBF28, symBinAddr: 0x10000FFA0, symSize: 0x1220 }
  - { offsetInCU: 0x2657CE, offset: 0x2657CE, size: 0x8, addend: 0x0, symName: __ZNSt3__114numeric_limitsIfE3minB7v160006Ev, symObjAddr: 0xD148, symBinAddr: 0x1000111C0, symSize: 0x14 }
  - { offsetInCU: 0x2657E2, offset: 0x2657E2, size: 0x8, addend: 0x0, symName: __ZNK5Eigen10MatrixBaseINS_6MatrixIfLi3ELi3ELi0ELi3ELi3EEEE8cwiseAbsEv, symObjAddr: 0xD15C, symBinAddr: 0x1000111D4, symSize: 0x4C }
  - { offsetInCU: 0x265808, offset: 0x265808, size: 0x8, addend: 0x0, symName: __ZNK5Eigen9DenseBaseINS_12CwiseUnaryOpINS_8internal13scalar_abs_opIfEEKNS_6MatrixIfLi3ELi3ELi0ELi3ELi3EEEEEE8maxCoeffEv, symObjAddr: 0xD1A8, symBinAddr: 0x100011220, symSize: 0x24 }
  - { offsetInCU: 0x26582E, offset: 0x26582E, size: 0x8, addend: 0x0, symName: __ZN5Eigen15PlainObjectBaseINS_6MatrixIfLi3ELi3ELi0ELi3ELi3EEEE7setZeroEll, symObjAddr: 0xD1CC, symBinAddr: 0x100011244, symSize: 0x4C }
  - { offsetInCU: 0x265875, offset: 0x265875, size: 0x8, addend: 0x0, symName: __ZN5Eigen10MatrixBaseINS_6MatrixIfLi3ELi3ELi0ELi3ELi3EEEE11setIdentityEll, symObjAddr: 0xD218, symBinAddr: 0x100011290, symSize: 0x44 }
  - { offsetInCU: 0x2658C6, offset: 0x2658C6, size: 0x8, addend: 0x0, symName: __ZN5Eigen23HessenbergDecompositionINS_6MatrixIfLi3ELi3ELi0ELi3ELi3EEEE7computeINS_13CwiseBinaryOpINS_8internal18scalar_quotient_opIffEEKS2_KNS_14CwiseNullaryOpINS6_18scalar_constant_opIfEES9_EEEEEERS3_RKNS_9EigenBaseIT_EE, symObjAddr: 0xD25C, symBinAddr: 0x1000112D4, symSize: 0xB8 }
  - { offsetInCU: 0x265903, offset: 0x265903, size: 0x8, addend: 0x0, symName: __ZNK5Eigen10MatrixBaseINS_6MatrixIfLi3ELi3ELi0ELi3ELi3EEEEdvIfEEKNS_13CwiseBinaryOpINS_8internal18scalar_quotient_opIfNS6_18promote_scalar_argIfT_Xsr5Eigen8internal14has_ReturnTypeINS_20ScalarBinaryOpTraitsIfS9_NS7_IfS9_EEEEEE5valueEE4typeEEEKS2_KNS6_19plain_constant_typeIS2_SE_E4typeEEERKS9_, symObjAddr: 0xD314, symBinAddr: 0x10001138C, symSize: 0xA8 }
  - { offsetInCU: 0x265940, offset: 0x265940, size: 0x8, addend: 0x0, symName: __ZNK5Eigen23HessenbergDecompositionINS_6MatrixIfLi3ELi3ELi0ELi3ELi3EEEE7matrixQEv, symObjAddr: 0xD3BC, symBinAddr: 0x100011434, symSize: 0xD0 }
  - { offsetInCU: 0x265966, offset: 0x265966, size: 0x8, addend: 0x0, symName: __ZNK5Eigen19HouseholderSequenceINS_6MatrixIfLi3ELi3ELi0ELi3ELi3EEENS1_IfLi2ELi1ELi0ELi2ELi1EEELi1EE6evalToIS2_NS1_IfLi3ELi1ELi0ELi3ELi1EEEEEvRT_RT0_, symObjAddr: 0xD48C, symBinAddr: 0x100011504, symSize: 0x488 }
  - { offsetInCU: 0x265A66, offset: 0x265A66, size: 0x8, addend: 0x0, symName: __ZN5Eigen9RealSchurINS_6MatrixIfLi3ELi3ELi0ELi3ELi3EEEE21computeFromHessenbergINS_8internal40HessenbergDecompositionMatrixHReturnTypeIS2_EES2_EERS3_RKT_RKT0_b, symObjAddr: 0xD914, symBinAddr: 0x10001198C, symSize: 0x3A4 }
  - { offsetInCU: 0x265BD0, offset: 0x265BD0, size: 0x8, addend: 0x0, symName: __ZNK5Eigen23HessenbergDecompositionINS_6MatrixIfLi3ELi3ELi0ELi3ELi3EEEE7matrixHEv, symObjAddr: 0xDCB8, symBinAddr: 0x100011D30, symSize: 0x84 }
  - { offsetInCU: 0x265BF6, offset: 0x265BF6, size: 0x8, addend: 0x0, symName: __ZN5Eigen9DenseBaseINS_6MatrixIfLi3ELi3ELi0ELi3ELi3EEEEmLERKf, symObjAddr: 0xDD3C, symBinAddr: 0x100011DB4, symSize: 0x8C }
  - { offsetInCU: 0x265C2D, offset: 0x265C2D, size: 0x8, addend: 0x0, symName: __ZNSt3__123__libcpp_numeric_limitsIfLb1EE3minB7v160006Ev, symObjAddr: 0xDDC8, symBinAddr: 0x100011E40, symSize: 0xC }
  - { offsetInCU: 0x265C41, offset: 0x265C41, size: 0x8, addend: 0x0, symName: __ZN5Eigen8internal13scalar_abs_opIfEC1Ev, symObjAddr: 0xDDD4, symBinAddr: 0x100011E4C, symSize: 0x2C }
  - { offsetInCU: 0x265C6B, offset: 0x265C6B, size: 0x8, addend: 0x0, symName: __ZN5Eigen12CwiseUnaryOpINS_8internal13scalar_abs_opIfEEKNS_6MatrixIfLi3ELi3ELi0ELi3ELi3EEEEC1ERS6_RKS3_, symObjAddr: 0xDE00, symBinAddr: 0x100011E78, symSize: 0x3C }
  - { offsetInCU: 0x265CB1, offset: 0x265CB1, size: 0x8, addend: 0x0, symName: __ZN5Eigen8internal13scalar_abs_opIfEC2Ev, symObjAddr: 0xDE3C, symBinAddr: 0x100011EB4, symSize: 0x14 }
  - { offsetInCU: 0x265CDB, offset: 0x265CDB, size: 0x8, addend: 0x0, symName: __ZN5Eigen12CwiseUnaryOpINS_8internal13scalar_abs_opIfEEKNS_6MatrixIfLi3ELi3ELi0ELi3ELi3EEEEC2ERS6_RKS3_, symObjAddr: 0xDE50, symBinAddr: 0x100011EC8, symSize: 0x4C }
  - { offsetInCU: 0x265D26, offset: 0x265D26, size: 0x8, addend: 0x0, symName: __ZN5Eigen16CwiseUnaryOpImplINS_8internal13scalar_abs_opIfEEKNS_6MatrixIfLi3ELi3ELi0ELi3ELi3EEENS_5DenseEEC2Ev, symObjAddr: 0xDE9C, symBinAddr: 0x100011F14, symSize: 0x2C }
  - { offsetInCU: 0x265D52, offset: 0x265D52, size: 0x8, addend: 0x0, symName: __ZN5Eigen8internal13scalar_abs_opIfEC1ERKS2_, symObjAddr: 0xDEC8, symBinAddr: 0x100011F40, symSize: 0x34 }
  - { offsetInCU: 0x265D87, offset: 0x265D87, size: 0x8, addend: 0x0, symName: __ZN5Eigen10MatrixBaseINS_12CwiseUnaryOpINS_8internal13scalar_abs_opIfEEKNS_6MatrixIfLi3ELi3ELi0ELi3ELi3EEEEEEC2Ev, symObjAddr: 0xDEFC, symBinAddr: 0x100011F74, symSize: 0x2C }
  - { offsetInCU: 0x265DB1, offset: 0x265DB1, size: 0x8, addend: 0x0, symName: __ZN5Eigen9DenseBaseINS_12CwiseUnaryOpINS_8internal13scalar_abs_opIfEEKNS_6MatrixIfLi3ELi3ELi0ELi3ELi3EEEEEEC2Ev, symObjAddr: 0xDF28, symBinAddr: 0x100011FA0, symSize: 0x14 }
  - { offsetInCU: 0x265DDB, offset: 0x265DDB, size: 0x8, addend: 0x0, symName: __ZN5Eigen8internal13scalar_abs_opIfEC2ERKS2_, symObjAddr: 0xDF3C, symBinAddr: 0x100011FB4, symSize: 0x18 }
  - { offsetInCU: 0x265E10, offset: 0x265E10, size: 0x8, addend: 0x0, symName: __ZNK5Eigen9DenseBaseINS_12CwiseUnaryOpINS_8internal13scalar_abs_opIfEEKNS_6MatrixIfLi3ELi3ELi0ELi3ELi3EEEEEE8maxCoeffILi0EEEfv, symObjAddr: 0xDF54, symBinAddr: 0x100011FCC, symSize: 0x40 }
  - { offsetInCU: 0x265E43, offset: 0x265E43, size: 0x8, addend: 0x0, symName: __ZNK5Eigen9EigenBaseINS_12CwiseUnaryOpINS_8internal13scalar_abs_opIfEEKNS_6MatrixIfLi3ELi3ELi0ELi3ELi3EEEEEE7derivedEv, symObjAddr: 0xDF94, symBinAddr: 0x10001200C, symSize: 0x14 }
  - { offsetInCU: 0x265E69, offset: 0x265E69, size: 0x8, addend: 0x0, symName: __ZNK5Eigen9DenseBaseINS_12CwiseUnaryOpINS_8internal13scalar_abs_opIfEEKNS_6MatrixIfLi3ELi3ELi0ELi3ELi3EEEEEE5reduxINS2_13scalar_max_opIffLi0EEEEEfRKT_, symObjAddr: 0xDFA8, symBinAddr: 0x100012020, symSize: 0x10C }
  - { offsetInCU: 0x265EC5, offset: 0x265EC5, size: 0x8, addend: 0x0, symName: __ZN5Eigen8internal13scalar_max_opIffLi0EEC1Ev, symObjAddr: 0xE0B4, symBinAddr: 0x10001212C, symSize: 0x2C }
  - { offsetInCU: 0x265EEF, offset: 0x265EEF, size: 0x8, addend: 0x0, symName: __ZNK5Eigen9EigenBaseINS_12CwiseUnaryOpINS_8internal13scalar_abs_opIfEEKNS_6MatrixIfLi3ELi3ELi0ELi3ELi3EEEEEE4rowsEv, symObjAddr: 0xE0E0, symBinAddr: 0x100012158, symSize: 0x28 }
  - { offsetInCU: 0x265F15, offset: 0x265F15, size: 0x8, addend: 0x0, symName: __ZNK5Eigen9EigenBaseINS_12CwiseUnaryOpINS_8internal13scalar_abs_opIfEEKNS_6MatrixIfLi3ELi3ELi0ELi3ELi3EEEEEE4colsEv, symObjAddr: 0xE108, symBinAddr: 0x100012180, symSize: 0x28 }
  - { offsetInCU: 0x265F3B, offset: 0x265F3B, size: 0x8, addend: 0x0, symName: __ZN5Eigen8internal15redux_evaluatorINS_12CwiseUnaryOpINS0_13scalar_abs_opIfEEKNS_6MatrixIfLi3ELi3ELi0ELi3ELi3EEEEEEC1ERKS8_, symObjAddr: 0xE130, symBinAddr: 0x1000121A8, symSize: 0x34 }
  - { offsetInCU: 0x265F74, offset: 0x265F74, size: 0x8, addend: 0x0, symName: __ZN5Eigen8internal10redux_implINS0_13scalar_max_opIffLi0EEENS0_15redux_evaluatorINS_12CwiseUnaryOpINS0_13scalar_abs_opIfEEKNS_6MatrixIfLi3ELi3ELi0ELi3ELi3EEEEEEELi3ELi2EE3runISB_EEfRKSC_RKS3_RKT_, symObjAddr: 0xE164, symBinAddr: 0x1000121DC, symSize: 0x100 }
  - { offsetInCU: 0x265FDC, offset: 0x265FDC, size: 0x8, addend: 0x0, symName: __ZN5Eigen8internal15redux_evaluatorINS_12CwiseUnaryOpINS0_13scalar_abs_opIfEEKNS_6MatrixIfLi3ELi3ELi0ELi3ELi3EEEEEED1Ev, symObjAddr: 0xE264, symBinAddr: 0x1000122DC, symSize: 0x2C }
  - { offsetInCU: 0x266009, offset: 0x266009, size: 0x8, addend: 0x0, symName: __ZNK5Eigen12CwiseUnaryOpINS_8internal13scalar_abs_opIfEEKNS_6MatrixIfLi3ELi3ELi0ELi3ELi3EEEE4rowsEv, symObjAddr: 0xE290, symBinAddr: 0x100012308, symSize: 0x28 }
  - { offsetInCU: 0x26602F, offset: 0x26602F, size: 0x8, addend: 0x0, symName: __ZNK5Eigen12CwiseUnaryOpINS_8internal13scalar_abs_opIfEEKNS_6MatrixIfLi3ELi3ELi0ELi3ELi3EEEE4colsEv, symObjAddr: 0xE2B8, symBinAddr: 0x100012330, symSize: 0x28 }
  - { offsetInCU: 0x266055, offset: 0x266055, size: 0x8, addend: 0x0, symName: __ZN5Eigen8internal15redux_evaluatorINS_12CwiseUnaryOpINS0_13scalar_abs_opIfEEKNS_6MatrixIfLi3ELi3ELi0ELi3ELi3EEEEEEC2ERKS8_, symObjAddr: 0xE2E0, symBinAddr: 0x100012358, symSize: 0x34 }
  - { offsetInCU: 0x26608E, offset: 0x26608E, size: 0x8, addend: 0x0, symName: __ZN5Eigen8internal9evaluatorINS_12CwiseUnaryOpINS0_13scalar_abs_opIfEEKNS_6MatrixIfLi3ELi3ELi0ELi3ELi3EEEEEEC2ERKS8_, symObjAddr: 0xE314, symBinAddr: 0x10001238C, symSize: 0x34 }
  - { offsetInCU: 0x2660C6, offset: 0x2660C6, size: 0x8, addend: 0x0, symName: __ZN5Eigen8internal15unary_evaluatorINS_12CwiseUnaryOpINS0_13scalar_abs_opIfEEKNS_6MatrixIfLi3ELi3ELi0ELi3ELi3EEEEENS0_10IndexBasedEfEC2ERKS8_, symObjAddr: 0xE348, symBinAddr: 0x1000123C0, symSize: 0x64 }
  - { offsetInCU: 0x2660FF, offset: 0x2660FF, size: 0x8, addend: 0x0, symName: __ZN5Eigen8internal14evaluator_baseINS_12CwiseUnaryOpINS0_13scalar_abs_opIfEEKNS_6MatrixIfLi3ELi3ELi0ELi3ELi3EEEEEEC2Ev, symObjAddr: 0xE3AC, symBinAddr: 0x100012424, symSize: 0x14 }
  - { offsetInCU: 0x266129, offset: 0x266129, size: 0x8, addend: 0x0, symName: __ZN5Eigen8internal15unary_evaluatorINS_12CwiseUnaryOpINS0_13scalar_abs_opIfEEKNS_6MatrixIfLi3ELi3ELi0ELi3ELi3EEEEENS0_10IndexBasedEfE4DataC1ERKS8_, symObjAddr: 0xE3C0, symBinAddr: 0x100012438, symSize: 0x34 }
  - { offsetInCU: 0x266162, offset: 0x266162, size: 0x8, addend: 0x0, symName: __ZN5Eigen8internal14evaluator_baseINS_12CwiseUnaryOpINS0_13scalar_abs_opIfEEKNS_6MatrixIfLi3ELi3ELi0ELi3ELi3EEEEEED2Ev, symObjAddr: 0xE3F4, symBinAddr: 0x10001246C, symSize: 0x14 }
  - { offsetInCU: 0x26618C, offset: 0x26618C, size: 0x8, addend: 0x0, symName: __ZN5Eigen8internal15unary_evaluatorINS_12CwiseUnaryOpINS0_13scalar_abs_opIfEEKNS_6MatrixIfLi3ELi3ELi0ELi3ELi3EEEEENS0_10IndexBasedEfE4DataC2ERKS8_, symObjAddr: 0xE408, symBinAddr: 0x100012480, symSize: 0x58 }
  - { offsetInCU: 0x2661C5, offset: 0x2661C5, size: 0x8, addend: 0x0, symName: __ZNK5Eigen12CwiseUnaryOpINS_8internal13scalar_abs_opIfEEKNS_6MatrixIfLi3ELi3ELi0ELi3ELi3EEEE7functorEv, symObjAddr: 0xE460, symBinAddr: 0x1000124D8, symSize: 0x18 }
  - { offsetInCU: 0x2661EB, offset: 0x2661EB, size: 0x8, addend: 0x0, symName: __ZNK5Eigen12CwiseUnaryOpINS_8internal13scalar_abs_opIfEEKNS_6MatrixIfLi3ELi3ELi0ELi3ELi3EEEE16nestedExpressionEv, symObjAddr: 0xE478, symBinAddr: 0x1000124F0, symSize: 0x18 }
  - { offsetInCU: 0x266211, offset: 0x266211, size: 0x8, addend: 0x0, symName: __ZNK5Eigen8internal13scalar_max_opIffLi0EE6preduxI18__simd64_float32_tEEfRKT_, symObjAddr: 0xE490, symBinAddr: 0x100012508, symSize: 0x28 }
  - { offsetInCU: 0x26624E, offset: 0x26624E, size: 0x8, addend: 0x0, symName: __ZN5Eigen8internal18redux_vec_unrollerINS0_13scalar_max_opIffLi0EEENS0_15redux_evaluatorINS_12CwiseUnaryOpINS0_13scalar_abs_opIfEEKNS_6MatrixIfLi3ELi3ELi0ELi3ELi3EEEEEEELi0ELi4EE3runI18__simd64_float32_tEET_RKSC_RKS3_, symObjAddr: 0xE4B8, symBinAddr: 0x100012530, symSize: 0x60 }
  - { offsetInCU: 0x266288, offset: 0x266288, size: 0x8, addend: 0x0, symName: __ZNK5Eigen8internal13scalar_max_opIffLi0EEclERKfS4_, symObjAddr: 0xE518, symBinAddr: 0x100012590, symSize: 0x30 }
  - { offsetInCU: 0x2662CA, offset: 0x2662CA, size: 0x8, addend: 0x0, symName: __ZN5Eigen8internal20redux_novec_unrollerINS0_13scalar_max_opIffLi0EEENS0_15redux_evaluatorINS_12CwiseUnaryOpINS0_13scalar_abs_opIfEEKNS_6MatrixIfLi3ELi3ELi0ELi3ELi3EEEEEEELi8ELi1EE3runERKSC_RKS3_, symObjAddr: 0xE548, symBinAddr: 0x1000125C0, symSize: 0x30 }
  - { offsetInCU: 0x26630E, offset: 0x26630E, size: 0x8, addend: 0x0, symName: __ZN5Eigen8internal12pminmax_implILi0EE3runIfPFfRKfS5_EEET_RKS8_SA_T0_, symObjAddr: 0xE71C, symBinAddr: 0x100012794, symSize: 0x34 }
  - { offsetInCU: 0x266362, offset: 0x266362, size: 0x8, addend: 0x0, symName: __ZNK5Eigen8internal13scalar_max_opIffLi0EE8packetOpI18__simd64_float32_tEET_RKS5_S7_, symObjAddr: 0xE790, symBinAddr: 0x100012808, symSize: 0x30 }
  - { offsetInCU: 0x2663AD, offset: 0x2663AD, size: 0x8, addend: 0x0, symName: __ZN5Eigen8internal18redux_vec_unrollerINS0_13scalar_max_opIffLi0EEENS0_15redux_evaluatorINS_12CwiseUnaryOpINS0_13scalar_abs_opIfEEKNS_6MatrixIfLi3ELi3ELi0ELi3ELi3EEEEEEELi0ELi2EE3runI18__simd64_float32_tEET_RKSC_RKS3_, symObjAddr: 0xE7C0, symBinAddr: 0x100012838, symSize: 0x60 }
  - { offsetInCU: 0x2663E7, offset: 0x2663E7, size: 0x8, addend: 0x0, symName: __ZN5Eigen8internal18redux_vec_unrollerINS0_13scalar_max_opIffLi0EEENS0_15redux_evaluatorINS_12CwiseUnaryOpINS0_13scalar_abs_opIfEEKNS_6MatrixIfLi3ELi3ELi0ELi3ELi3EEEEEEELi2ELi2EE3runI18__simd64_float32_tEET_RKSC_RKS3_, symObjAddr: 0xE820, symBinAddr: 0x100012898, symSize: 0x60 }
  - { offsetInCU: 0x266437, offset: 0x266437, size: 0x8, addend: 0x0, symName: __ZN5Eigen8internal12pminmax_implILi0EE3runI18__simd64_float32_tPFS4_RKS4_S6_EEET_RKS9_SB_T0_, symObjAddr: 0xE8B4, symBinAddr: 0x10001292C, symSize: 0x34 }
  - { offsetInCU: 0x26648B, offset: 0x26648B, size: 0x8, addend: 0x0, symName: __ZNK5Eigen8internal15redux_evaluatorINS_12CwiseUnaryOpINS0_13scalar_abs_opIfEEKNS_6MatrixIfLi3ELi3ELi0ELi3ELi3EEEEEE18packetByOuterInnerILi0E18__simd64_float32_tEET0_ll, symObjAddr: 0xE988, symBinAddr: 0x100012A00, symSize: 0x34 }
  - { offsetInCU: 0x2664E2, offset: 0x2664E2, size: 0x8, addend: 0x0, symName: __ZNK5Eigen8internal15unary_evaluatorINS_12CwiseUnaryOpINS0_13scalar_abs_opIfEEKNS_6MatrixIfLi3ELi3ELi0ELi3ELi3EEEEENS0_10IndexBasedEfE6packetILi0E18__simd64_float32_tEET0_ll, symObjAddr: 0xE9BC, symBinAddr: 0x100012A34, symSize: 0x58 }
  - { offsetInCU: 0x266539, offset: 0x266539, size: 0x8, addend: 0x0, symName: __ZNK5Eigen8internal15unary_evaluatorINS_12CwiseUnaryOpINS0_13scalar_abs_opIfEEKNS_6MatrixIfLi3ELi3ELi0ELi3ELi3EEEEENS0_10IndexBasedEfE4Data4funcEv, symObjAddr: 0xEA14, symBinAddr: 0x100012A8C, symSize: 0x14 }
  - { offsetInCU: 0x26655F, offset: 0x26655F, size: 0x8, addend: 0x0, symName: __ZNK5Eigen8internal13scalar_abs_opIfE8packetOpI18__simd64_float32_tEEKT_RS6_, symObjAddr: 0xEA28, symBinAddr: 0x100012AA0, symSize: 0x28 }
  - { offsetInCU: 0x26659C, offset: 0x26659C, size: 0x8, addend: 0x0, symName: __ZNK5Eigen8internal9evaluatorINS_15PlainObjectBaseINS_6MatrixIfLi3ELi3ELi0ELi3ELi3EEEEEE6packetILi0E18__simd64_float32_tEET0_ll, symObjAddr: 0xEA50, symBinAddr: 0x100012AC8, symSize: 0x60 }
  - { offsetInCU: 0x26660E, offset: 0x26660E, size: 0x8, addend: 0x0, symName: __ZNK5Eigen8internal30plainobjectbase_evaluator_dataIfLi3EE11outerStrideEv, symObjAddr: 0xEADC, symBinAddr: 0x100012B54, symSize: 0x14 }
  - { offsetInCU: 0x266634, offset: 0x266634, size: 0x8, addend: 0x0, symName: __ZNK5Eigen8internal15redux_evaluatorINS_12CwiseUnaryOpINS0_13scalar_abs_opIfEEKNS_6MatrixIfLi3ELi3ELi0ELi3ELi3EEEEEE17coeffByOuterInnerEll, symObjAddr: 0xEB50, symBinAddr: 0x100012BC8, symSize: 0x34 }
  - { offsetInCU: 0x266678, offset: 0x266678, size: 0x8, addend: 0x0, symName: __ZNK5Eigen8internal15unary_evaluatorINS_12CwiseUnaryOpINS0_13scalar_abs_opIfEEKNS_6MatrixIfLi3ELi3ELi0ELi3ELi3EEEEENS0_10IndexBasedEfE5coeffEll, symObjAddr: 0xEB84, symBinAddr: 0x100012BFC, symSize: 0x54 }
  - { offsetInCU: 0x2666BC, offset: 0x2666BC, size: 0x8, addend: 0x0, symName: __ZNK5Eigen8internal13scalar_abs_opIfEclERKf, symObjAddr: 0xEBD8, symBinAddr: 0x100012C50, symSize: 0x34 }
  - { offsetInCU: 0x266715, offset: 0x266715, size: 0x8, addend: 0x0, symName: __ZNK5Eigen8internal9evaluatorINS_15PlainObjectBaseINS_6MatrixIfLi3ELi3ELi0ELi3ELi3EEEEEE5coeffEll, symObjAddr: 0xEC0C, symBinAddr: 0x100012C84, symSize: 0x5C }
  - { offsetInCU: 0x266757, offset: 0x266757, size: 0x8, addend: 0x0, symName: __ZN5Eigen8internal15redux_evaluatorINS_12CwiseUnaryOpINS0_13scalar_abs_opIfEEKNS_6MatrixIfLi3ELi3ELi0ELi3ELi3EEEEEED2Ev, symObjAddr: 0xEC68, symBinAddr: 0x100012CE0, symSize: 0x2C }
  - { offsetInCU: 0x266784, offset: 0x266784, size: 0x8, addend: 0x0, symName: __ZN5Eigen8internal9evaluatorINS_12CwiseUnaryOpINS0_13scalar_abs_opIfEEKNS_6MatrixIfLi3ELi3ELi0ELi3ELi3EEEEEED2Ev, symObjAddr: 0xEC94, symBinAddr: 0x100012D0C, symSize: 0x2C }
  - { offsetInCU: 0x2667B0, offset: 0x2667B0, size: 0x8, addend: 0x0, symName: __ZN5Eigen8internal15unary_evaluatorINS_12CwiseUnaryOpINS0_13scalar_abs_opIfEEKNS_6MatrixIfLi3ELi3ELi0ELi3ELi3EEEEENS0_10IndexBasedEfED2Ev, symObjAddr: 0xECC0, symBinAddr: 0x100012D38, symSize: 0x34 }
  - { offsetInCU: 0x2667DC, offset: 0x2667DC, size: 0x8, addend: 0x0, symName: __ZN5Eigen8internal15unary_evaluatorINS_12CwiseUnaryOpINS0_13scalar_abs_opIfEEKNS_6MatrixIfLi3ELi3ELi0ELi3ELi3EEEEENS0_10IndexBasedEfE4DataD1Ev, symObjAddr: 0xECF4, symBinAddr: 0x100012D6C, symSize: 0x2C }
  - { offsetInCU: 0x266809, offset: 0x266809, size: 0x8, addend: 0x0, symName: __ZN5Eigen8internal15unary_evaluatorINS_12CwiseUnaryOpINS0_13scalar_abs_opIfEEKNS_6MatrixIfLi3ELi3ELi0ELi3ELi3EEEEENS0_10IndexBasedEfE4DataD2Ev, symObjAddr: 0xED20, symBinAddr: 0x100012D98, symSize: 0x30 }
  - { offsetInCU: 0x266836, offset: 0x266836, size: 0x8, addend: 0x0, symName: __ZN5Eigen8internal13scalar_max_opIffLi0EEC2Ev, symObjAddr: 0xED50, symBinAddr: 0x100012DC8, symSize: 0x14 }
  - { offsetInCU: 0x266860, offset: 0x266860, size: 0x8, addend: 0x0, symName: __ZN5Eigen9DenseBaseINS_6MatrixIfLi3ELi3ELi0ELi3ELi3EEEE11setConstantERKf, symObjAddr: 0xED64, symBinAddr: 0x100012DDC, symSize: 0x64 }
  - { offsetInCU: 0x266898, offset: 0x266898, size: 0x8, addend: 0x0, symName: __ZN5Eigen9DenseBaseINS_6MatrixIfLi3ELi3ELi0ELi3ELi3EEEE8ConstantEllRKf, symObjAddr: 0xEDC8, symBinAddr: 0x100012E40, symSize: 0x60 }
  - { offsetInCU: 0x2668DC, offset: 0x2668DC, size: 0x8, addend: 0x0, symName: __ZN5Eigen6MatrixIfLi3ELi3ELi0ELi3ELi3EEaSINS_14CwiseNullaryOpINS_8internal18scalar_constant_opIfEES1_EEEERS1_RKNS_9DenseBaseIT_EE, symObjAddr: 0xEE28, symBinAddr: 0x100012EA0, symSize: 0x2C }
  - { offsetInCU: 0x266919, offset: 0x266919, size: 0x8, addend: 0x0, symName: __ZN5Eigen9DenseBaseINS_6MatrixIfLi3ELi3ELi0ELi3ELi3EEEE11NullaryExprINS_8internal18scalar_constant_opIfEEEEKNS_14CwiseNullaryOpIT_S2_EEllRKS9_, symObjAddr: 0xEE54, symBinAddr: 0x100012ECC, symSize: 0x48 }
  - { offsetInCU: 0x266966, offset: 0x266966, size: 0x8, addend: 0x0, symName: __ZN5Eigen14CwiseNullaryOpINS_8internal18scalar_constant_opIfEENS_6MatrixIfLi3ELi3ELi0ELi3ELi3EEEEC1EllRKS3_, symObjAddr: 0xEE9C, symBinAddr: 0x100012F14, symSize: 0x44 }
  - { offsetInCU: 0x2669BA, offset: 0x2669BA, size: 0x8, addend: 0x0, symName: __ZN5Eigen14CwiseNullaryOpINS_8internal18scalar_constant_opIfEENS_6MatrixIfLi3ELi3ELi0ELi3ELi3EEEEC2EllRKS3_, symObjAddr: 0xEEE0, symBinAddr: 0x100012F58, symSize: 0x108 }
  - { offsetInCU: 0x266A0E, offset: 0x266A0E, size: 0x8, addend: 0x0, symName: __ZN5Eigen10MatrixBaseINS_14CwiseNullaryOpINS_8internal18scalar_constant_opIfEENS_6MatrixIfLi3ELi3ELi0ELi3ELi3EEEEEEC2Ev, symObjAddr: 0xEFE8, symBinAddr: 0x100013060, symSize: 0x2C }
  - { offsetInCU: 0x266A38, offset: 0x266A38, size: 0x8, addend: 0x0, symName: __ZN5Eigen9DenseBaseINS_14CwiseNullaryOpINS_8internal18scalar_constant_opIfEENS_6MatrixIfLi3ELi3ELi0ELi3ELi3EEEEEEC2Ev, symObjAddr: 0xF014, symBinAddr: 0x10001308C, symSize: 0x14 }
  - { offsetInCU: 0x266A62, offset: 0x266A62, size: 0x8, addend: 0x0, symName: __ZN5Eigen15PlainObjectBaseINS_6MatrixIfLi3ELi3ELi0ELi3ELi3EEEE4_setINS_14CwiseNullaryOpINS_8internal18scalar_constant_opIfEES2_EEEERS2_RKNS_9DenseBaseIT_EE, symObjAddr: 0xF028, symBinAddr: 0x1000130A0, symSize: 0x4C }
  - { offsetInCU: 0x266AA0, offset: 0x266AA0, size: 0x8, addend: 0x0, symName: __ZNK5Eigen9EigenBaseINS_14CwiseNullaryOpINS_8internal18scalar_constant_opIfEENS_6MatrixIfLi3ELi3ELi0ELi3ELi3EEEEEE7derivedEv, symObjAddr: 0xF0C4, symBinAddr: 0x10001313C, symSize: 0x14 }
  - { offsetInCU: 0x266AC6, offset: 0x266AC6, size: 0x8, addend: 0x0, symName: __ZN5Eigen8internal10AssignmentINS_6MatrixIfLi3ELi3ELi0ELi3ELi3EEENS_14CwiseNullaryOpINS0_18scalar_constant_opIfEES3_EENS0_9assign_opIffEENS0_11Dense2DenseEvE3runERS3_RKS7_RKS9_, symObjAddr: 0xF14C, symBinAddr: 0x1000131C4, symSize: 0x40 }
  - { offsetInCU: 0x266B08, offset: 0x266B08, size: 0x8, addend: 0x0, symName: __ZN5Eigen8internal27checkTransposeAliasing_implINS_6MatrixIfLi3ELi3ELi0ELi3ELi3EEENS_14CwiseNullaryOpINS0_18scalar_constant_opIfEES3_EELb0EE3runERKS3_RKS7_, symObjAddr: 0xF258, symBinAddr: 0x1000132D0, symSize: 0x14 }
  - { offsetInCU: 0x266B33, offset: 0x266B33, size: 0x8, addend: 0x0, symName: __ZNK5Eigen14CwiseNullaryOpINS_8internal18scalar_constant_opIfEENS_6MatrixIfLi3ELi3ELi0ELi3ELi3EEEE7functorEv, symObjAddr: 0xF3A8, symBinAddr: 0x100013420, symSize: 0x18 }
  - { offsetInCU: 0x266B59, offset: 0x266B59, size: 0x8, addend: 0x0, symName: __ZNK5Eigen14CwiseNullaryOpINS_8internal18scalar_constant_opIfEENS_6MatrixIfLi3ELi3ELi0ELi3ELi3EEEE4rowsEv, symObjAddr: 0xF3C0, symBinAddr: 0x100013438, symSize: 0x20 }
  - { offsetInCU: 0x266B7F, offset: 0x266B7F, size: 0x8, addend: 0x0, symName: __ZNK5Eigen14CwiseNullaryOpINS_8internal18scalar_constant_opIfEENS_6MatrixIfLi3ELi3ELi0ELi3ELi3EEEE4colsEv, symObjAddr: 0xF3E0, symBinAddr: 0x100013458, symSize: 0x20 }
  - { offsetInCU: 0x266BA5, offset: 0x266BA5, size: 0x8, addend: 0x0, symName: __ZN5Eigen10MatrixBaseINS_6MatrixIfLi3ELi3ELi0ELi3ELi3EEEE11setIdentityEv, symObjAddr: 0xF478, symBinAddr: 0x1000134F0, symSize: 0x28 }
  - { offsetInCU: 0x266BCE, offset: 0x266BCE, size: 0x8, addend: 0x0, symName: __ZN5Eigen8internal16setIdentity_implINS_6MatrixIfLi3ELi3ELi0ELi3ELi3EEELb0EE3runERS3_, symObjAddr: 0xF4A0, symBinAddr: 0x100013518, symSize: 0x50 }
  - { offsetInCU: 0x266BF2, offset: 0x266BF2, size: 0x8, addend: 0x0, symName: __ZN5Eigen10MatrixBaseINS_6MatrixIfLi3ELi3ELi0ELi3ELi3EEEE8IdentityEll, symObjAddr: 0xF4F0, symBinAddr: 0x100013568, symSize: 0x58 }
  - { offsetInCU: 0x266C26, offset: 0x266C26, size: 0x8, addend: 0x0, symName: __ZN5Eigen6MatrixIfLi3ELi3ELi0ELi3ELi3EEaSINS_14CwiseNullaryOpINS_8internal18scalar_identity_opIfEES1_EEEERS1_RKNS_9DenseBaseIT_EE, symObjAddr: 0xF548, symBinAddr: 0x1000135C0, symSize: 0x2C }
  - { offsetInCU: 0x266C63, offset: 0x266C63, size: 0x8, addend: 0x0, symName: __ZN5Eigen9DenseBaseINS_6MatrixIfLi3ELi3ELi0ELi3ELi3EEEE11NullaryExprINS_8internal18scalar_identity_opIfEEEEKNS_14CwiseNullaryOpIT_S2_EEllRKS9_, symObjAddr: 0xF574, symBinAddr: 0x1000135EC, symSize: 0x48 }
  - { offsetInCU: 0x266CB0, offset: 0x266CB0, size: 0x8, addend: 0x0, symName: __ZN5Eigen8internal18scalar_identity_opIfEC1Ev, symObjAddr: 0xF5BC, symBinAddr: 0x100013634, symSize: 0x2C }
  - { offsetInCU: 0x266CDA, offset: 0x266CDA, size: 0x8, addend: 0x0, symName: __ZN5Eigen14CwiseNullaryOpINS_8internal18scalar_identity_opIfEENS_6MatrixIfLi3ELi3ELi0ELi3ELi3EEEEC1EllRKS3_, symObjAddr: 0xF5E8, symBinAddr: 0x100013660, symSize: 0x44 }
  - { offsetInCU: 0x266D2E, offset: 0x266D2E, size: 0x8, addend: 0x0, symName: __ZN5Eigen14CwiseNullaryOpINS_8internal18scalar_identity_opIfEENS_6MatrixIfLi3ELi3ELi0ELi3ELi3EEEEC2EllRKS3_, symObjAddr: 0xF62C, symBinAddr: 0x1000136A4, symSize: 0x108 }
  - { offsetInCU: 0x266D82, offset: 0x266D82, size: 0x8, addend: 0x0, symName: __ZN5Eigen10MatrixBaseINS_14CwiseNullaryOpINS_8internal18scalar_identity_opIfEENS_6MatrixIfLi3ELi3ELi0ELi3ELi3EEEEEEC2Ev, symObjAddr: 0xF734, symBinAddr: 0x1000137AC, symSize: 0x2C }
  - { offsetInCU: 0x266DAC, offset: 0x266DAC, size: 0x8, addend: 0x0, symName: __ZN5Eigen8internal18scalar_identity_opIfEC1ERKS2_, symObjAddr: 0xF760, symBinAddr: 0x1000137D8, symSize: 0x34 }
  - { offsetInCU: 0x266DE1, offset: 0x266DE1, size: 0x8, addend: 0x0, symName: __ZN5Eigen9DenseBaseINS_14CwiseNullaryOpINS_8internal18scalar_identity_opIfEENS_6MatrixIfLi3ELi3ELi0ELi3ELi3EEEEEEC2Ev, symObjAddr: 0xF794, symBinAddr: 0x10001380C, symSize: 0x14 }
  - { offsetInCU: 0x266E0B, offset: 0x266E0B, size: 0x8, addend: 0x0, symName: __ZN5Eigen8internal18scalar_identity_opIfEC2ERKS2_, symObjAddr: 0xF7A8, symBinAddr: 0x100013820, symSize: 0x18 }
  - { offsetInCU: 0x266E40, offset: 0x266E40, size: 0x8, addend: 0x0, symName: __ZN5Eigen8internal18scalar_identity_opIfEC2Ev, symObjAddr: 0xF7C0, symBinAddr: 0x100013838, symSize: 0x14 }
  - { offsetInCU: 0x266E6A, offset: 0x266E6A, size: 0x8, addend: 0x0, symName: __ZN5Eigen15PlainObjectBaseINS_6MatrixIfLi3ELi3ELi0ELi3ELi3EEEE4_setINS_14CwiseNullaryOpINS_8internal18scalar_identity_opIfEES2_EEEERS2_RKNS_9DenseBaseIT_EE, symObjAddr: 0xF7D4, symBinAddr: 0x10001384C, symSize: 0x4C }
  - { offsetInCU: 0x266EA8, offset: 0x266EA8, size: 0x8, addend: 0x0, symName: __ZNK5Eigen9EigenBaseINS_14CwiseNullaryOpINS_8internal18scalar_identity_opIfEENS_6MatrixIfLi3ELi3ELi0ELi3ELi3EEEEEE7derivedEv, symObjAddr: 0xF870, symBinAddr: 0x1000138E8, symSize: 0x14 }
  - { offsetInCU: 0x266ECE, offset: 0x266ECE, size: 0x8, addend: 0x0, symName: __ZN5Eigen8internal10AssignmentINS_6MatrixIfLi3ELi3ELi0ELi3ELi3EEENS_14CwiseNullaryOpINS0_18scalar_identity_opIfEES3_EENS0_9assign_opIffEENS0_11Dense2DenseEvE3runERS3_RKS7_RKS9_, symObjAddr: 0xF8F8, symBinAddr: 0x100013970, symSize: 0x40 }
  - { offsetInCU: 0x266F10, offset: 0x266F10, size: 0x8, addend: 0x0, symName: __ZN5Eigen8internal27checkTransposeAliasing_implINS_6MatrixIfLi3ELi3ELi0ELi3ELi3EEENS_14CwiseNullaryOpINS0_18scalar_identity_opIfEES3_EELb0EE3runERKS3_RKS7_, symObjAddr: 0xFA70, symBinAddr: 0x100013AE8, symSize: 0x14 }
  - { offsetInCU: 0x266F3B, offset: 0x266F3B, size: 0x8, addend: 0x0, symName: __ZN5Eigen8internal9evaluatorINS_14CwiseNullaryOpINS0_18scalar_identity_opIfEENS_6MatrixIfLi3ELi3ELi0ELi3ELi3EEEEEEC1ERKS7_, symObjAddr: 0xFA84, symBinAddr: 0x100013AFC, symSize: 0x34 }
  - { offsetInCU: 0x266F74, offset: 0x266F74, size: 0x8, addend: 0x0, symName: __ZN5Eigen8internal31generic_dense_assignment_kernelINS0_9evaluatorINS_6MatrixIfLi3ELi3ELi0ELi3ELi3EEEEENS2_INS_14CwiseNullaryOpINS0_18scalar_identity_opIfEES4_EEEENS0_9assign_opIffEELi0EEC1ERS5_RKSA_RKSC_RS4_, symObjAddr: 0xFBB0, symBinAddr: 0x100013C28, symSize: 0x4C }
  - { offsetInCU: 0x266FDA, offset: 0x266FDA, size: 0x8, addend: 0x0, symName: __ZN5Eigen8internal21dense_assignment_loopINS0_31generic_dense_assignment_kernelINS0_9evaluatorINS_6MatrixIfLi3ELi3ELi0ELi3ELi3EEEEENS3_INS_14CwiseNullaryOpINS0_18scalar_identity_opIfEES5_EEEENS0_9assign_opIffEELi0EEELi0ELi2EE3runERSE_, symObjAddr: 0xFBFC, symBinAddr: 0x100013C74, symSize: 0x24 }
  - { offsetInCU: 0x266FFE, offset: 0x266FFE, size: 0x8, addend: 0x0, symName: __ZN5Eigen8internal9evaluatorINS_14CwiseNullaryOpINS0_18scalar_identity_opIfEENS_6MatrixIfLi3ELi3ELi0ELi3ELi3EEEEEED1Ev, symObjAddr: 0xFC20, symBinAddr: 0x100013C98, symSize: 0x2C }
  - { offsetInCU: 0x26702A, offset: 0x26702A, size: 0x8, addend: 0x0, symName: __ZN5Eigen8internal9evaluatorINS_14CwiseNullaryOpINS0_18scalar_identity_opIfEENS_6MatrixIfLi3ELi3ELi0ELi3ELi3EEEEEEC2ERKS7_, symObjAddr: 0xFC4C, symBinAddr: 0x100013CC4, symSize: 0x74 }
  - { offsetInCU: 0x267063, offset: 0x267063, size: 0x8, addend: 0x0, symName: __ZN5Eigen8internal14evaluator_baseINS_14CwiseNullaryOpINS0_18scalar_identity_opIfEENS_6MatrixIfLi3ELi3ELi0ELi3ELi3EEEEEEC2Ev, symObjAddr: 0xFCC0, symBinAddr: 0x100013D38, symSize: 0x14 }
  - { offsetInCU: 0x26708D, offset: 0x26708D, size: 0x8, addend: 0x0, symName: __ZNK5Eigen14CwiseNullaryOpINS_8internal18scalar_identity_opIfEENS_6MatrixIfLi3ELi3ELi0ELi3ELi3EEEE7functorEv, symObjAddr: 0xFCD4, symBinAddr: 0x100013D4C, symSize: 0x18 }
  - { offsetInCU: 0x2670B3, offset: 0x2670B3, size: 0x8, addend: 0x0, symName: __ZN5Eigen8internal14evaluator_baseINS_14CwiseNullaryOpINS0_18scalar_identity_opIfEENS_6MatrixIfLi3ELi3ELi0ELi3ELi3EEEEEED2Ev, symObjAddr: 0xFCEC, symBinAddr: 0x100013D64, symSize: 0x14 }
  - { offsetInCU: 0x2670DD, offset: 0x2670DD, size: 0x8, addend: 0x0, symName: __ZNK5Eigen14CwiseNullaryOpINS_8internal18scalar_identity_opIfEENS_6MatrixIfLi3ELi3ELi0ELi3ELi3EEEE4rowsEv, symObjAddr: 0xFD00, symBinAddr: 0x100013D78, symSize: 0x20 }
  - { offsetInCU: 0x267103, offset: 0x267103, size: 0x8, addend: 0x0, symName: __ZNK5Eigen14CwiseNullaryOpINS_8internal18scalar_identity_opIfEENS_6MatrixIfLi3ELi3ELi0ELi3ELi3EEEE4colsEv, symObjAddr: 0xFD20, symBinAddr: 0x100013D98, symSize: 0x20 }
  - { offsetInCU: 0x267129, offset: 0x267129, size: 0x8, addend: 0x0, symName: __ZN5Eigen8internal31generic_dense_assignment_kernelINS0_9evaluatorINS_6MatrixIfLi3ELi3ELi0ELi3ELi3EEEEENS2_INS_14CwiseNullaryOpINS0_18scalar_identity_opIfEES4_EEEENS0_9assign_opIffEELi0EEC2ERS5_RKSA_RKSC_RS4_, symObjAddr: 0xFD40, symBinAddr: 0x100013DB8, symSize: 0x44 }
  - { offsetInCU: 0x26718F, offset: 0x26718F, size: 0x8, addend: 0x0, symName: __ZN5Eigen8internal55copy_using_evaluator_DefaultTraversal_CompleteUnrollingINS0_31generic_dense_assignment_kernelINS0_9evaluatorINS_6MatrixIfLi3ELi3ELi0ELi3ELi3EEEEENS3_INS_14CwiseNullaryOpINS0_18scalar_identity_opIfEES5_EEEENS0_9assign_opIffEELi0EEELi0ELi9EE3runERSE_, symObjAddr: 0xFD84, symBinAddr: 0x100013DFC, symSize: 0x34 }
  - { offsetInCU: 0x2671B2, offset: 0x2671B2, size: 0x8, addend: 0x0, symName: __ZN5Eigen8internal31generic_dense_assignment_kernelINS0_9evaluatorINS_6MatrixIfLi3ELi3ELi0ELi3ELi3EEEEENS2_INS_14CwiseNullaryOpINS0_18scalar_identity_opIfEES4_EEEENS0_9assign_opIffEELi0EE23assignCoeffByOuterInnerEll, symObjAddr: 0xFDB8, symBinAddr: 0x100013E30, symSize: 0x60 }
  - { offsetInCU: 0x267214, offset: 0x267214, size: 0x8, addend: 0x0, symName: __ZN5Eigen8internal55copy_using_evaluator_DefaultTraversal_CompleteUnrollingINS0_31generic_dense_assignment_kernelINS0_9evaluatorINS_6MatrixIfLi3ELi3ELi0ELi3ELi3EEEEENS3_INS_14CwiseNullaryOpINS0_18scalar_identity_opIfEES5_EEEENS0_9assign_opIffEELi0EEELi1ELi9EE3runERSE_, symObjAddr: 0xFE18, symBinAddr: 0x100013E90, symSize: 0x34 }
  - { offsetInCU: 0x267237, offset: 0x267237, size: 0x8, addend: 0x0, symName: __ZN5Eigen8internal31generic_dense_assignment_kernelINS0_9evaluatorINS_6MatrixIfLi3ELi3ELi0ELi3ELi3EEEEENS2_INS_14CwiseNullaryOpINS0_18scalar_identity_opIfEES4_EEEENS0_9assign_opIffEELi0EE20rowIndexByOuterInnerEll, symObjAddr: 0xFE4C, symBinAddr: 0x100013EC4, symSize: 0x18 }
  - { offsetInCU: 0x26726A, offset: 0x26726A, size: 0x8, addend: 0x0, symName: __ZN5Eigen8internal31generic_dense_assignment_kernelINS0_9evaluatorINS_6MatrixIfLi3ELi3ELi0ELi3ELi3EEEEENS2_INS_14CwiseNullaryOpINS0_18scalar_identity_opIfEES4_EEEENS0_9assign_opIffEELi0EE20colIndexByOuterInnerEll, symObjAddr: 0xFE64, symBinAddr: 0x100013EDC, symSize: 0x18 }
  - { offsetInCU: 0x26729D, offset: 0x26729D, size: 0x8, addend: 0x0, symName: __ZN5Eigen8internal31generic_dense_assignment_kernelINS0_9evaluatorINS_6MatrixIfLi3ELi3ELi0ELi3ELi3EEEEENS2_INS_14CwiseNullaryOpINS0_18scalar_identity_opIfEES4_EEEENS0_9assign_opIffEELi0EE11assignCoeffEll, symObjAddr: 0xFE7C, symBinAddr: 0x100013EF4, symSize: 0x70 }
  - { offsetInCU: 0x2672E1, offset: 0x2672E1, size: 0x8, addend: 0x0, symName: __ZN5Eigen8internal9evaluatorINS_15PlainObjectBaseINS_6MatrixIfLi3ELi3ELi0ELi3ELi3EEEEEE8coeffRefEll, symObjAddr: 0xFEEC, symBinAddr: 0x100013F64, symSize: 0x5C }
  - { offsetInCU: 0x26732D, offset: 0x26732D, size: 0x8, addend: 0x0, symName: __ZNK5Eigen8internal9evaluatorINS_14CwiseNullaryOpINS0_18scalar_identity_opIfEENS_6MatrixIfLi3ELi3ELi0ELi3ELi3EEEEEE5coeffIlEEfT_SA_, symObjAddr: 0xFF48, symBinAddr: 0x100013FC0, symSize: 0x3C }
  - { offsetInCU: 0x26737F, offset: 0x26737F, size: 0x8, addend: 0x0, symName: __ZNK5Eigen8internal15nullary_wrapperIfNS0_18scalar_identity_opIfEELb0ELb0ELb1EEclIlEEfRKS3_T_S8_, symObjAddr: 0xFF84, symBinAddr: 0x100013FFC, symSize: 0x38 }
  - { offsetInCU: 0x2673E0, offset: 0x2673E0, size: 0x8, addend: 0x0, symName: __ZNK5Eigen8internal18scalar_identity_opIfEclIlEEKfT_S5_, symObjAddr: 0xFFBC, symBinAddr: 0x100014034, symSize: 0x3C }
  - { offsetInCU: 0x26742B, offset: 0x26742B, size: 0x8, addend: 0x0, symName: __ZN5Eigen8internal55copy_using_evaluator_DefaultTraversal_CompleteUnrollingINS0_31generic_dense_assignment_kernelINS0_9evaluatorINS_6MatrixIfLi3ELi3ELi0ELi3ELi3EEEEENS3_INS_14CwiseNullaryOpINS0_18scalar_identity_opIfEES5_EEEENS0_9assign_opIffEELi0EEELi2ELi9EE3runERSE_, symObjAddr: 0xFFF8, symBinAddr: 0x100014070, symSize: 0x34 }
  - { offsetInCU: 0x26744E, offset: 0x26744E, size: 0x8, addend: 0x0, symName: __ZN5Eigen8internal55copy_using_evaluator_DefaultTraversal_CompleteUnrollingINS0_31generic_dense_assignment_kernelINS0_9evaluatorINS_6MatrixIfLi3ELi3ELi0ELi3ELi3EEEEENS3_INS_14CwiseNullaryOpINS0_18scalar_identity_opIfEES5_EEEENS0_9assign_opIffEELi0EEELi3ELi9EE3runERSE_, symObjAddr: 0x1002C, symBinAddr: 0x1000140A4, symSize: 0x34 }
  - { offsetInCU: 0x267471, offset: 0x267471, size: 0x8, addend: 0x0, symName: __ZN5Eigen8internal55copy_using_evaluator_DefaultTraversal_CompleteUnrollingINS0_31generic_dense_assignment_kernelINS0_9evaluatorINS_6MatrixIfLi3ELi3ELi0ELi3ELi3EEEEENS3_INS_14CwiseNullaryOpINS0_18scalar_identity_opIfEES5_EEEENS0_9assign_opIffEELi0EEELi4ELi9EE3runERSE_, symObjAddr: 0x10060, symBinAddr: 0x1000140D8, symSize: 0x34 }
  - { offsetInCU: 0x267494, offset: 0x267494, size: 0x8, addend: 0x0, symName: __ZN5Eigen8internal55copy_using_evaluator_DefaultTraversal_CompleteUnrollingINS0_31generic_dense_assignment_kernelINS0_9evaluatorINS_6MatrixIfLi3ELi3ELi0ELi3ELi3EEEEENS3_INS_14CwiseNullaryOpINS0_18scalar_identity_opIfEES5_EEEENS0_9assign_opIffEELi0EEELi5ELi9EE3runERSE_, symObjAddr: 0x10094, symBinAddr: 0x10001410C, symSize: 0x34 }
  - { offsetInCU: 0x2674B7, offset: 0x2674B7, size: 0x8, addend: 0x0, symName: __ZN5Eigen8internal55copy_using_evaluator_DefaultTraversal_CompleteUnrollingINS0_31generic_dense_assignment_kernelINS0_9evaluatorINS_6MatrixIfLi3ELi3ELi0ELi3ELi3EEEEENS3_INS_14CwiseNullaryOpINS0_18scalar_identity_opIfEES5_EEEENS0_9assign_opIffEELi0EEELi6ELi9EE3runERSE_, symObjAddr: 0x100C8, symBinAddr: 0x100014140, symSize: 0x34 }
  - { offsetInCU: 0x2674DA, offset: 0x2674DA, size: 0x8, addend: 0x0, symName: __ZN5Eigen8internal55copy_using_evaluator_DefaultTraversal_CompleteUnrollingINS0_31generic_dense_assignment_kernelINS0_9evaluatorINS_6MatrixIfLi3ELi3ELi0ELi3ELi3EEEEENS3_INS_14CwiseNullaryOpINS0_18scalar_identity_opIfEES5_EEEENS0_9assign_opIffEELi0EEELi7ELi9EE3runERSE_, symObjAddr: 0x100FC, symBinAddr: 0x100014174, symSize: 0x34 }
  - { offsetInCU: 0x2674FD, offset: 0x2674FD, size: 0x8, addend: 0x0, symName: __ZN5Eigen8internal55copy_using_evaluator_DefaultTraversal_CompleteUnrollingINS0_31generic_dense_assignment_kernelINS0_9evaluatorINS_6MatrixIfLi3ELi3ELi0ELi3ELi3EEEEENS3_INS_14CwiseNullaryOpINS0_18scalar_identity_opIfEES5_EEEENS0_9assign_opIffEELi0EEELi8ELi9EE3runERSE_, symObjAddr: 0x10130, symBinAddr: 0x1000141A8, symSize: 0x34 }
  - { offsetInCU: 0x267520, offset: 0x267520, size: 0x8, addend: 0x0, symName: __ZN5Eigen8internal55copy_using_evaluator_DefaultTraversal_CompleteUnrollingINS0_31generic_dense_assignment_kernelINS0_9evaluatorINS_6MatrixIfLi3ELi3ELi0ELi3ELi3EEEEENS3_INS_14CwiseNullaryOpINS0_18scalar_identity_opIfEES5_EEEENS0_9assign_opIffEELi0EEELi9ELi9EE3runERSE_, symObjAddr: 0x10164, symBinAddr: 0x1000141DC, symSize: 0x10 }
  - { offsetInCU: 0x267540, offset: 0x267540, size: 0x8, addend: 0x0, symName: __ZN5Eigen8internal9evaluatorINS_14CwiseNullaryOpINS0_18scalar_identity_opIfEENS_6MatrixIfLi3ELi3ELi0ELi3ELi3EEEEEED2Ev, symObjAddr: 0x10174, symBinAddr: 0x1000141EC, symSize: 0x2C }
  - { offsetInCU: 0x26756C, offset: 0x26756C, size: 0x8, addend: 0x0, symName: __ZNK5Eigen9EigenBaseINS_13CwiseBinaryOpINS_8internal18scalar_quotient_opIffEEKNS_6MatrixIfLi3ELi3ELi0ELi3ELi3EEEKNS_14CwiseNullaryOpINS2_18scalar_constant_opIfEES7_EEEEE7derivedEv, symObjAddr: 0x101A0, symBinAddr: 0x100014218, symSize: 0x14 }
  - { offsetInCU: 0x267592, offset: 0x267592, size: 0x8, addend: 0x0, symName: __ZN5Eigen6MatrixIfLi3ELi3ELi0ELi3ELi3EEaSINS_13CwiseBinaryOpINS_8internal18scalar_quotient_opIffEEKS1_KNS_14CwiseNullaryOpINS4_18scalar_constant_opIfEES7_EEEEEERS1_RKNS_9DenseBaseIT_EE, symObjAddr: 0x101B4, symBinAddr: 0x10001422C, symSize: 0x2C }
  - { offsetInCU: 0x2675CF, offset: 0x2675CF, size: 0x8, addend: 0x0, symName: __ZNK5Eigen9EigenBaseINS_13CwiseBinaryOpINS_8internal18scalar_quotient_opIffEEKNS_6MatrixIfLi3ELi3ELi0ELi3ELi3EEEKNS_14CwiseNullaryOpINS2_18scalar_constant_opIfEES7_EEEEE4rowsEv, symObjAddr: 0x101E0, symBinAddr: 0x100014258, symSize: 0x28 }
  - { offsetInCU: 0x2675F5, offset: 0x2675F5, size: 0x8, addend: 0x0, symName: __ZN5Eigen15PlainObjectBaseINS_6MatrixIfLi2ELi1ELi0ELi2ELi1EEEE6resizeEll, symObjAddr: 0x10208, symBinAddr: 0x100014280, symSize: 0x104 }
  - { offsetInCU: 0x267639, offset: 0x267639, size: 0x8, addend: 0x0, symName: __ZN5Eigen23HessenbergDecompositionINS_6MatrixIfLi3ELi3ELi0ELi3ELi3EEEE8_computeERS2_RNS1_IfLi2ELi1ELi0ELi2ELi1EEERNS1_IfLi1ELi3ELi1ELi1ELi3EEE, symObjAddr: 0x1030C, symBinAddr: 0x100014384, symSize: 0x29C }
  - { offsetInCU: 0x2676E6, offset: 0x2676E6, size: 0x8, addend: 0x0, symName: __ZN5Eigen15PlainObjectBaseINS_6MatrixIfLi3ELi3ELi0ELi3ELi3EEEE4_setINS_13CwiseBinaryOpINS_8internal18scalar_quotient_opIffEEKS2_KNS_14CwiseNullaryOpINS6_18scalar_constant_opIfEES9_EEEEEERS2_RKNS_9DenseBaseIT_EE, symObjAddr: 0x105A8, symBinAddr: 0x100014620, symSize: 0x4C }
  - { offsetInCU: 0x267724, offset: 0x267724, size: 0x8, addend: 0x0, symName: __ZN5Eigen8internal10AssignmentINS_6MatrixIfLi3ELi3ELi0ELi3ELi3EEENS_13CwiseBinaryOpINS0_18scalar_quotient_opIffEEKS3_KNS_14CwiseNullaryOpINS0_18scalar_constant_opIfEES7_EEEENS0_9assign_opIffEENS0_11Dense2DenseEvE3runERS3_RKSD_RKSF_, symObjAddr: 0x106B8, symBinAddr: 0x100014730, symSize: 0x40 }
  - { offsetInCU: 0x267766, offset: 0x267766, size: 0x8, addend: 0x0, symName: __ZN5Eigen8internal27checkTransposeAliasing_implINS_6MatrixIfLi3ELi3ELi0ELi3ELi3EEENS_13CwiseBinaryOpINS0_18scalar_quotient_opIffEEKS3_KNS_14CwiseNullaryOpINS0_18scalar_constant_opIfEES7_EEEELb0EE3runERS7_RKSD_, symObjAddr: 0x10830, symBinAddr: 0x1000148A8, symSize: 0x14 }
  - { offsetInCU: 0x267791, offset: 0x267791, size: 0x8, addend: 0x0, symName: __ZN5Eigen8internal9evaluatorINS_13CwiseBinaryOpINS0_18scalar_quotient_opIffEEKNS_6MatrixIfLi3ELi3ELi0ELi3ELi3EEEKNS_14CwiseNullaryOpINS0_18scalar_constant_opIfEES7_EEEEEC1ERKSD_, symObjAddr: 0x10844, symBinAddr: 0x1000148BC, symSize: 0x34 }
  - { offsetInCU: 0x2677CA, offset: 0x2677CA, size: 0x8, addend: 0x0, symName: __ZN5Eigen8internal31generic_dense_assignment_kernelINS0_9evaluatorINS_6MatrixIfLi3ELi3ELi0ELi3ELi3EEEEENS2_INS_13CwiseBinaryOpINS0_18scalar_quotient_opIffEEKS4_KNS_14CwiseNullaryOpINS0_18scalar_constant_opIfEES9_EEEEEENS0_9assign_opIffEELi0EEC1ERS5_RKSG_RKSI_RS4_, symObjAddr: 0x10970, symBinAddr: 0x1000149E8, symSize: 0x4C }
  - { offsetInCU: 0x267830, offset: 0x267830, size: 0x8, addend: 0x0, symName: __ZN5Eigen8internal21dense_assignment_loopINS0_31generic_dense_assignment_kernelINS0_9evaluatorINS_6MatrixIfLi3ELi3ELi0ELi3ELi3EEEEENS3_INS_13CwiseBinaryOpINS0_18scalar_quotient_opIffEEKS5_KNS_14CwiseNullaryOpINS0_18scalar_constant_opIfEESA_EEEEEENS0_9assign_opIffEELi0EEELi3ELi2EE3runERSK_, symObjAddr: 0x109BC, symBinAddr: 0x100014A34, symSize: 0x2C }
  - { offsetInCU: 0x267854, offset: 0x267854, size: 0x8, addend: 0x0, symName: __ZN5Eigen8internal9evaluatorINS_13CwiseBinaryOpINS0_18scalar_quotient_opIffEEKNS_6MatrixIfLi3ELi3ELi0ELi3ELi3EEEKNS_14CwiseNullaryOpINS0_18scalar_constant_opIfEES7_EEEEED1Ev, symObjAddr: 0x109E8, symBinAddr: 0x100014A60, symSize: 0x2C }
  - { offsetInCU: 0x267881, offset: 0x267881, size: 0x8, addend: 0x0, symName: __ZN5Eigen8internal9evaluatorINS_13CwiseBinaryOpINS0_18scalar_quotient_opIffEEKNS_6MatrixIfLi3ELi3ELi0ELi3ELi3EEEKNS_14CwiseNullaryOpINS0_18scalar_constant_opIfEES7_EEEEEC2ERKSD_, symObjAddr: 0x10A14, symBinAddr: 0x100014A8C, symSize: 0x34 }
  - { offsetInCU: 0x2678BA, offset: 0x2678BA, size: 0x8, addend: 0x0, symName: __ZN5Eigen8internal16binary_evaluatorINS_13CwiseBinaryOpINS0_18scalar_quotient_opIffEEKNS_6MatrixIfLi3ELi3ELi0ELi3ELi3EEEKNS_14CwiseNullaryOpINS0_18scalar_constant_opIfEES7_EEEENS0_10IndexBasedESE_ffEC2ERKSD_, symObjAddr: 0x10A48, symBinAddr: 0x100014AC0, symSize: 0x64 }
  - { offsetInCU: 0x2678F3, offset: 0x2678F3, size: 0x8, addend: 0x0, symName: __ZN5Eigen8internal14evaluator_baseINS_13CwiseBinaryOpINS0_18scalar_quotient_opIffEEKNS_6MatrixIfLi3ELi3ELi0ELi3ELi3EEEKNS_14CwiseNullaryOpINS0_18scalar_constant_opIfEES7_EEEEEC2Ev, symObjAddr: 0x10AAC, symBinAddr: 0x100014B24, symSize: 0x14 }
  - { offsetInCU: 0x26791D, offset: 0x26791D, size: 0x8, addend: 0x0, symName: __ZN5Eigen8internal16binary_evaluatorINS_13CwiseBinaryOpINS0_18scalar_quotient_opIffEEKNS_6MatrixIfLi3ELi3ELi0ELi3ELi3EEEKNS_14CwiseNullaryOpINS0_18scalar_constant_opIfEES7_EEEENS0_10IndexBasedESE_ffE4DataC1ERKSD_, symObjAddr: 0x10AC0, symBinAddr: 0x100014B38, symSize: 0x34 }
  - { offsetInCU: 0x267956, offset: 0x267956, size: 0x8, addend: 0x0, symName: __ZN5Eigen8internal14evaluator_baseINS_13CwiseBinaryOpINS0_18scalar_quotient_opIffEEKNS_6MatrixIfLi3ELi3ELi0ELi3ELi3EEEKNS_14CwiseNullaryOpINS0_18scalar_constant_opIfEES7_EEEEED2Ev, symObjAddr: 0x10AF4, symBinAddr: 0x100014B6C, symSize: 0x14 }
  - { offsetInCU: 0x267980, offset: 0x267980, size: 0x8, addend: 0x0, symName: __ZN5Eigen8internal16binary_evaluatorINS_13CwiseBinaryOpINS0_18scalar_quotient_opIffEEKNS_6MatrixIfLi3ELi3ELi0ELi3ELi3EEEKNS_14CwiseNullaryOpINS0_18scalar_constant_opIfEES7_EEEENS0_10IndexBasedESE_ffE4DataC2ERKSD_, symObjAddr: 0x10B08, symBinAddr: 0x100014B80, symSize: 0xA8 }
  - { offsetInCU: 0x2679B9, offset: 0x2679B9, size: 0x8, addend: 0x0, symName: __ZNK5Eigen13CwiseBinaryOpINS_8internal18scalar_quotient_opIffEEKNS_6MatrixIfLi3ELi3ELi0ELi3ELi3EEEKNS_14CwiseNullaryOpINS1_18scalar_constant_opIfEES6_EEE7functorEv, symObjAddr: 0x10BB0, symBinAddr: 0x100014C28, symSize: 0x18 }
  - { offsetInCU: 0x2679DF, offset: 0x2679DF, size: 0x8, addend: 0x0, symName: __ZNK5Eigen13CwiseBinaryOpINS_8internal18scalar_quotient_opIffEEKNS_6MatrixIfLi3ELi3ELi0ELi3ELi3EEEKNS_14CwiseNullaryOpINS1_18scalar_constant_opIfEES6_EEE3lhsEv, symObjAddr: 0x10BC8, symBinAddr: 0x100014C40, symSize: 0x18 }
  - { offsetInCU: 0x267A05, offset: 0x267A05, size: 0x8, addend: 0x0, symName: __ZNK5Eigen13CwiseBinaryOpINS_8internal18scalar_quotient_opIffEEKNS_6MatrixIfLi3ELi3ELi0ELi3ELi3EEEKNS_14CwiseNullaryOpINS1_18scalar_constant_opIfEES6_EEE3rhsEv, symObjAddr: 0x10BE0, symBinAddr: 0x100014C58, symSize: 0x18 }
  - { offsetInCU: 0x267A2B, offset: 0x267A2B, size: 0x8, addend: 0x0, symName: __ZNK5Eigen13CwiseBinaryOpINS_8internal18scalar_quotient_opIffEEKNS_6MatrixIfLi3ELi3ELi0ELi3ELi3EEEKNS_14CwiseNullaryOpINS1_18scalar_constant_opIfEES6_EEE4rowsEv, symObjAddr: 0x10BF8, symBinAddr: 0x100014C70, symSize: 0x28 }
  - { offsetInCU: 0x267A51, offset: 0x267A51, size: 0x8, addend: 0x0, symName: __ZNK5Eigen13CwiseBinaryOpINS_8internal18scalar_quotient_opIffEEKNS_6MatrixIfLi3ELi3ELi0ELi3ELi3EEEKNS_14CwiseNullaryOpINS1_18scalar_constant_opIfEES6_EEE4colsEv, symObjAddr: 0x10C20, symBinAddr: 0x100014C98, symSize: 0x28 }
  - { offsetInCU: 0x267A77, offset: 0x267A77, size: 0x8, addend: 0x0, symName: __ZN5Eigen8internal31generic_dense_assignment_kernelINS0_9evaluatorINS_6MatrixIfLi3ELi3ELi0ELi3ELi3EEEEENS2_INS_13CwiseBinaryOpINS0_18scalar_quotient_opIffEEKS4_KNS_14CwiseNullaryOpINS0_18scalar_constant_opIfEES9_EEEEEENS0_9assign_opIffEELi0EEC2ERS5_RKSG_RKSI_RS4_, symObjAddr: 0x10C48, symBinAddr: 0x100014CC0, symSize: 0x44 }
  - { offsetInCU: 0x267ADD, offset: 0x267ADD, size: 0x8, addend: 0x0, symName: __ZN5Eigen8internal47copy_using_evaluator_innervec_CompleteUnrollingINS0_31generic_dense_assignment_kernelINS0_9evaluatorINS_6MatrixIfLi3ELi3ELi0ELi3ELi3EEEEENS3_INS_13CwiseBinaryOpINS0_18scalar_quotient_opIffEEKS5_KNS_14CwiseNullaryOpINS0_18scalar_constant_opIfEESA_EEEEEENS0_9assign_opIffEELi0EEELi0ELi8EE3runERSK_, symObjAddr: 0x10C8C, symBinAddr: 0x100014D04, symSize: 0x34 }
  - { offsetInCU: 0x267B01, offset: 0x267B01, size: 0x8, addend: 0x0, symName: __ZN5Eigen8internal55copy_using_evaluator_DefaultTraversal_CompleteUnrollingINS0_31generic_dense_assignment_kernelINS0_9evaluatorINS_6MatrixIfLi3ELi3ELi0ELi3ELi3EEEEENS3_INS_13CwiseBinaryOpINS0_18scalar_quotient_opIffEEKS5_KNS_14CwiseNullaryOpINS0_18scalar_constant_opIfEESA_EEEEEENS0_9assign_opIffEELi0EEELi8ELi9EE3runERSK_, symObjAddr: 0x10CC0, symBinAddr: 0x100014D38, symSize: 0x34 }
  - { offsetInCU: 0x267B24, offset: 0x267B24, size: 0x8, addend: 0x0, symName: __ZN5Eigen8internal31generic_dense_assignment_kernelINS0_9evaluatorINS_6MatrixIfLi3ELi3ELi0ELi3ELi3EEEEENS2_INS_13CwiseBinaryOpINS0_18scalar_quotient_opIffEEKS4_KNS_14CwiseNullaryOpINS0_18scalar_constant_opIfEES9_EEEEEENS0_9assign_opIffEELi0EE24assignPacketByOuterInnerILi0ELi0E18__simd64_float32_tEEvll, symObjAddr: 0x10CF4, symBinAddr: 0x100014D6C, symSize: 0x60 }
  - { offsetInCU: 0x267BA3, offset: 0x267BA3, size: 0x8, addend: 0x0, symName: __ZN5Eigen8internal47copy_using_evaluator_innervec_CompleteUnrollingINS0_31generic_dense_assignment_kernelINS0_9evaluatorINS_6MatrixIfLi3ELi3ELi0ELi3ELi3EEEEENS3_INS_13CwiseBinaryOpINS0_18scalar_quotient_opIffEEKS5_KNS_14CwiseNullaryOpINS0_18scalar_constant_opIfEESA_EEEEEENS0_9assign_opIffEELi0EEELi2ELi8EE3runERSK_, symObjAddr: 0x10D54, symBinAddr: 0x100014DCC, symSize: 0x34 }
  - { offsetInCU: 0x267BC7, offset: 0x267BC7, size: 0x8, addend: 0x0, symName: __ZN5Eigen8internal31generic_dense_assignment_kernelINS0_9evaluatorINS_6MatrixIfLi3ELi3ELi0ELi3ELi3EEEEENS2_INS_13CwiseBinaryOpINS0_18scalar_quotient_opIffEEKS4_KNS_14CwiseNullaryOpINS0_18scalar_constant_opIfEES9_EEEEEENS0_9assign_opIffEELi0EE20rowIndexByOuterInnerEll, symObjAddr: 0x10D88, symBinAddr: 0x100014E00, symSize: 0x18 }
  - { offsetInCU: 0x267BFA, offset: 0x267BFA, size: 0x8, addend: 0x0, symName: __ZN5Eigen8internal31generic_dense_assignment_kernelINS0_9evaluatorINS_6MatrixIfLi3ELi3ELi0ELi3ELi3EEEEENS2_INS_13CwiseBinaryOpINS0_18scalar_quotient_opIffEEKS4_KNS_14CwiseNullaryOpINS0_18scalar_constant_opIfEES9_EEEEEENS0_9assign_opIffEELi0EE20colIndexByOuterInnerEll, symObjAddr: 0x10DA0, symBinAddr: 0x100014E18, symSize: 0x18 }
  - { offsetInCU: 0x267C2D, offset: 0x267C2D, size: 0x8, addend: 0x0, symName: __ZN5Eigen8internal31generic_dense_assignment_kernelINS0_9evaluatorINS_6MatrixIfLi3ELi3ELi0ELi3ELi3EEEEENS2_INS_13CwiseBinaryOpINS0_18scalar_quotient_opIffEEKS4_KNS_14CwiseNullaryOpINS0_18scalar_constant_opIfEES9_EEEEEENS0_9assign_opIffEELi0EE12assignPacketILi0ELi0E18__simd64_float32_tEEvll, symObjAddr: 0x10DB8, symBinAddr: 0x100014E30, symSize: 0x70 }
  - { offsetInCU: 0x267C8E, offset: 0x267C8E, size: 0x8, addend: 0x0, symName: __ZNK5Eigen8internal9assign_opIffE12assignPacketILi0E18__simd64_float32_tEEvPfRKT0_, symObjAddr: 0x10E28, symBinAddr: 0x100014EA0, symSize: 0x40 }
  - { offsetInCU: 0x267D08, offset: 0x267D08, size: 0x8, addend: 0x0, symName: __ZNK5Eigen8internal16binary_evaluatorINS_13CwiseBinaryOpINS0_18scalar_quotient_opIffEEKNS_6MatrixIfLi3ELi3ELi0ELi3ELi3EEEKNS_14CwiseNullaryOpINS0_18scalar_constant_opIfEES7_EEEENS0_10IndexBasedESE_ffE6packetILi0E18__simd64_float32_tEET0_ll, symObjAddr: 0x10E68, symBinAddr: 0x100014EE0, symSize: 0x7C }
  - { offsetInCU: 0x267D5F, offset: 0x267D5F, size: 0x8, addend: 0x0, symName: __ZNK5Eigen8internal16binary_evaluatorINS_13CwiseBinaryOpINS0_18scalar_quotient_opIffEEKNS_6MatrixIfLi3ELi3ELi0ELi3ELi3EEEKNS_14CwiseNullaryOpINS0_18scalar_constant_opIfEES7_EEEENS0_10IndexBasedESE_ffE4Data4funcEv, symObjAddr: 0x10EE4, symBinAddr: 0x100014F5C, symSize: 0x14 }
  - { offsetInCU: 0x267D85, offset: 0x267D85, size: 0x8, addend: 0x0, symName: __ZNK5Eigen8internal9evaluatorINS_14CwiseNullaryOpINS0_18scalar_constant_opIfEEKNS_6MatrixIfLi3ELi3ELi0ELi3ELi3EEEEEE6packetILi0E18__simd64_float32_tlEET0_T1_SD_, symObjAddr: 0x10EF8, symBinAddr: 0x100014F70, symSize: 0x3C }
  - { offsetInCU: 0x267DE5, offset: 0x267DE5, size: 0x8, addend: 0x0, symName: __ZN5Eigen8internal47copy_using_evaluator_innervec_CompleteUnrollingINS0_31generic_dense_assignment_kernelINS0_9evaluatorINS_6MatrixIfLi3ELi3ELi0ELi3ELi3EEEEENS3_INS_13CwiseBinaryOpINS0_18scalar_quotient_opIffEEKS5_KNS_14CwiseNullaryOpINS0_18scalar_constant_opIfEESA_EEEEEENS0_9assign_opIffEELi0EEELi4ELi8EE3runERSK_, symObjAddr: 0x10F34, symBinAddr: 0x100014FAC, symSize: 0x34 }
  - { offsetInCU: 0x267E09, offset: 0x267E09, size: 0x8, addend: 0x0, symName: __ZN5Eigen8internal47copy_using_evaluator_innervec_CompleteUnrollingINS0_31generic_dense_assignment_kernelINS0_9evaluatorINS_6MatrixIfLi3ELi3ELi0ELi3ELi3EEEEENS3_INS_13CwiseBinaryOpINS0_18scalar_quotient_opIffEEKS5_KNS_14CwiseNullaryOpINS0_18scalar_constant_opIfEESA_EEEEEENS0_9assign_opIffEELi0EEELi6ELi8EE3runERSK_, symObjAddr: 0x10F68, symBinAddr: 0x100014FE0, symSize: 0x34 }
  - { offsetInCU: 0x267E2D, offset: 0x267E2D, size: 0x8, addend: 0x0, symName: __ZN5Eigen8internal47copy_using_evaluator_innervec_CompleteUnrollingINS0_31generic_dense_assignment_kernelINS0_9evaluatorINS_6MatrixIfLi3ELi3ELi0ELi3ELi3EEEEENS3_INS_13CwiseBinaryOpINS0_18scalar_quotient_opIffEEKS5_KNS_14CwiseNullaryOpINS0_18scalar_constant_opIfEESA_EEEEEENS0_9assign_opIffEELi0EEELi8ELi8EE3runERSK_, symObjAddr: 0x10F9C, symBinAddr: 0x100015014, symSize: 0x10 }
  - { offsetInCU: 0x267E4D, offset: 0x267E4D, size: 0x8, addend: 0x0, symName: __ZN5Eigen8internal31generic_dense_assignment_kernelINS0_9evaluatorINS_6MatrixIfLi3ELi3ELi0ELi3ELi3EEEEENS2_INS_13CwiseBinaryOpINS0_18scalar_quotient_opIffEEKS4_KNS_14CwiseNullaryOpINS0_18scalar_constant_opIfEES9_EEEEEENS0_9assign_opIffEELi0EE23assignCoeffByOuterInnerEll, symObjAddr: 0x10FAC, symBinAddr: 0x100015024, symSize: 0x60 }
  - { offsetInCU: 0x267EAF, offset: 0x267EAF, size: 0x8, addend: 0x0, symName: __ZN5Eigen8internal55copy_using_evaluator_DefaultTraversal_CompleteUnrollingINS0_31generic_dense_assignment_kernelINS0_9evaluatorINS_6MatrixIfLi3ELi3ELi0ELi3ELi3EEEEENS3_INS_13CwiseBinaryOpINS0_18scalar_quotient_opIffEEKS5_KNS_14CwiseNullaryOpINS0_18scalar_constant_opIfEESA_EEEEEENS0_9assign_opIffEELi0EEELi9ELi9EE3runERSK_, symObjAddr: 0x1100C, symBinAddr: 0x100015084, symSize: 0x10 }
  - { offsetInCU: 0x267ECF, offset: 0x267ECF, size: 0x8, addend: 0x0, symName: __ZN5Eigen8internal31generic_dense_assignment_kernelINS0_9evaluatorINS_6MatrixIfLi3ELi3ELi0ELi3ELi3EEEEENS2_INS_13CwiseBinaryOpINS0_18scalar_quotient_opIffEEKS4_KNS_14CwiseNullaryOpINS0_18scalar_constant_opIfEES9_EEEEEENS0_9assign_opIffEELi0EE11assignCoeffEll, symObjAddr: 0x1101C, symBinAddr: 0x100015094, symSize: 0x70 }
  - { offsetInCU: 0x267F13, offset: 0x267F13, size: 0x8, addend: 0x0, symName: __ZNK5Eigen8internal16binary_evaluatorINS_13CwiseBinaryOpINS0_18scalar_quotient_opIffEEKNS_6MatrixIfLi3ELi3ELi0ELi3ELi3EEEKNS_14CwiseNullaryOpINS0_18scalar_constant_opIfEES7_EEEENS0_10IndexBasedESE_ffE5coeffEll, symObjAddr: 0x1108C, symBinAddr: 0x100015104, symSize: 0x74 }
  - { offsetInCU: 0x267F57, offset: 0x267F57, size: 0x8, addend: 0x0, symName: __ZNK5Eigen8internal9evaluatorINS_14CwiseNullaryOpINS0_18scalar_constant_opIfEEKNS_6MatrixIfLi3ELi3ELi0ELi3ELi3EEEEEE5coeffIlEEfT_SB_, symObjAddr: 0x11100, symBinAddr: 0x100015178, symSize: 0x3C }
  - { offsetInCU: 0x267FA4, offset: 0x267FA4, size: 0x8, addend: 0x0, symName: __ZN5Eigen8internal9evaluatorINS_13CwiseBinaryOpINS0_18scalar_quotient_opIffEEKNS_6MatrixIfLi3ELi3ELi0ELi3ELi3EEEKNS_14CwiseNullaryOpINS0_18scalar_constant_opIfEES7_EEEEED2Ev, symObjAddr: 0x1113C, symBinAddr: 0x1000151B4, symSize: 0x2C }
  - { offsetInCU: 0x267FD1, offset: 0x267FD1, size: 0x8, addend: 0x0, symName: __ZN5Eigen8internal16binary_evaluatorINS_13CwiseBinaryOpINS0_18scalar_quotient_opIffEEKNS_6MatrixIfLi3ELi3ELi0ELi3ELi3EEEKNS_14CwiseNullaryOpINS0_18scalar_constant_opIfEES7_EEEENS0_10IndexBasedESE_ffED2Ev, symObjAddr: 0x11168, symBinAddr: 0x1000151E0, symSize: 0x34 }
  - { offsetInCU: 0x267FFD, offset: 0x267FFD, size: 0x8, addend: 0x0, symName: __ZN5Eigen8internal16binary_evaluatorINS_13CwiseBinaryOpINS0_18scalar_quotient_opIffEEKNS_6MatrixIfLi3ELi3ELi0ELi3ELi3EEEKNS_14CwiseNullaryOpINS0_18scalar_constant_opIfEES7_EEEENS0_10IndexBasedESE_ffE4DataD1Ev, symObjAddr: 0x1119C, symBinAddr: 0x100015214, symSize: 0x2C }
  - { offsetInCU: 0x26802A, offset: 0x26802A, size: 0x8, addend: 0x0, symName: __ZN5Eigen8internal16binary_evaluatorINS_13CwiseBinaryOpINS0_18scalar_quotient_opIffEEKNS_6MatrixIfLi3ELi3ELi0ELi3ELi3EEEKNS_14CwiseNullaryOpINS0_18scalar_constant_opIfEES7_EEEENS0_10IndexBasedESE_ffE4DataD2Ev, symObjAddr: 0x111C8, symBinAddr: 0x100015240, symSize: 0x3C }
  - { offsetInCU: 0x268057, offset: 0x268057, size: 0x8, addend: 0x0, symName: __ZN5Eigen9DenseBaseINS_6MatrixIfLi3ELi3ELi0ELi3ELi3EEEE3colEl, symObjAddr: 0x11204, symBinAddr: 0x10001527C, symSize: 0x3C }
  - { offsetInCU: 0x268091, offset: 0x268091, size: 0x8, addend: 0x0, symName: __ZN5Eigen9DenseBaseINS_5BlockINS_6MatrixIfLi3ELi3ELi0ELi3ELi3EEELi3ELi1ELb1EEEE4tailIlEENS5_22FixedSegmentReturnTypeIXsr8internal15get_fixed_valueIT_EE5valueEE4TypeES8_, symObjAddr: 0x11240, symBinAddr: 0x1000152B8, symSize: 0x84 }
  - { offsetInCU: 0x2680CF, offset: 0x2680CF, size: 0x8, addend: 0x0, symName: __ZN5Eigen10MatrixBaseINS_5BlockINS1_INS_6MatrixIfLi3ELi3ELi0ELi3ELi3EEELi3ELi1ELb1EEELin1ELi1ELb0EEEE22makeHouseholderInPlaceERfS7_, symObjAddr: 0x112C4, symBinAddr: 0x10001533C, symSize: 0x6C }
  - { offsetInCU: 0x268123, offset: 0x268123, size: 0x8, addend: 0x0, symName: __ZN5Eigen7MapBaseINS_5BlockINS_6MatrixIfLi3ELi3ELi0ELi3ELi3EEELi3ELi1ELb1EEELi1EE8coeffRefEl, symObjAddr: 0x11330, symBinAddr: 0x1000153A8, symSize: 0x48 }
  - { offsetInCU: 0x268158, offset: 0x268158, size: 0x8, addend: 0x0, symName: __ZN5Eigen15PlainObjectBaseINS_6MatrixIfLi2ELi1ELi0ELi2ELi1EEEE8coeffRefEl, symObjAddr: 0x11378, symBinAddr: 0x1000153F0, symSize: 0x30 }
  - { offsetInCU: 0x26818C, offset: 0x26818C, size: 0x8, addend: 0x0, symName: __ZN5Eigen9DenseBaseINS_6MatrixIfLi3ELi3ELi0ELi3ELi3EEEE17bottomRightCornerIllEENS3_13FixedBlockXprIXsr8internal15get_fixed_valueIT_EE5valueEXsr8internal15get_fixed_valueIT0_EE5valueEE4TypeES6_S7_, symObjAddr: 0x113A8, symBinAddr: 0x100015420, symSize: 0xD0 }
  - { offsetInCU: 0x2681F1, offset: 0x2681F1, size: 0x8, addend: 0x0, symName: __ZN5Eigen10MatrixBaseINS_5BlockINS_6MatrixIfLi3ELi3ELi0ELi3ELi3EEELin1ELin1ELb0EEEE25applyHouseholderOnTheLeftINS_11VectorBlockINS1_IS3_Li3ELi1ELb1EEELin1EEEEEvRKT_RKfPf, symObjAddr: 0x11478, symBinAddr: 0x1000154F0, symSize: 0x22C }
  - { offsetInCU: 0x26827F, offset: 0x26827F, size: 0x8, addend: 0x0, symName: __ZN5Eigen15PlainObjectBaseINS_6MatrixIfLi1ELi3ELi1ELi1ELi3EEEE8coeffRefEl, symObjAddr: 0x116A4, symBinAddr: 0x10001571C, symSize: 0x30 }
  - { offsetInCU: 0x2682B3, offset: 0x2682B3, size: 0x8, addend: 0x0, symName: __ZN5Eigen9DenseBaseINS_6MatrixIfLi3ELi3ELi0ELi3ELi3EEEE9rightColsIlEENS3_13NColsBlockXprIXsr8internal15get_fixed_valueIT_EE5valueEE4TypeES6_, symObjAddr: 0x116D4, symBinAddr: 0x10001574C, symSize: 0x9C }
  - { offsetInCU: 0x2682F6, offset: 0x2682F6, size: 0x8, addend: 0x0, symName: __ZN5Eigen10MatrixBaseINS_5BlockINS_6MatrixIfLi3ELi3ELi0ELi3ELi3EEELi3ELin1ELb1EEEE26applyHouseholderOnTheRightINS_11VectorBlockINS1_IS3_Li3ELi1ELb1EEELin1EEEEEvRKT_RKfPf, symObjAddr: 0x11770, symBinAddr: 0x1000157E8, symSize: 0x1EC }
  - { offsetInCU: 0x268380, offset: 0x268380, size: 0x8, addend: 0x0, symName: __ZN5Eigen5BlockINS_6MatrixIfLi3ELi3ELi0ELi3ELi3EEELi3ELi1ELb1EEC1ERS2_l, symObjAddr: 0x11980, symBinAddr: 0x1000159F8, symSize: 0x3C }
  - { offsetInCU: 0x2683C6, offset: 0x2683C6, size: 0x8, addend: 0x0, symName: __ZN5Eigen5BlockINS_6MatrixIfLi3ELi3ELi0ELi3ELi3EEELi3ELi1ELb1EEC2ERS2_l, symObjAddr: 0x119BC, symBinAddr: 0x100015A34, symSize: 0xAC }
  - { offsetInCU: 0x26840C, offset: 0x26840C, size: 0x8, addend: 0x0, symName: __ZN5Eigen9BlockImplINS_6MatrixIfLi3ELi3ELi0ELi3ELi3EEELi3ELi1ELb1ENS_5DenseEEC2ERS2_l, symObjAddr: 0x11A68, symBinAddr: 0x100015AE0, symSize: 0x3C }
  - { offsetInCU: 0x268452, offset: 0x268452, size: 0x8, addend: 0x0, symName: __ZN5Eigen8internal15BlockImpl_denseINS_6MatrixIfLi3ELi3ELi0ELi3ELi3EEELi3ELi1ELb1ELb1EEC2ERS3_l, symObjAddr: 0x11AA4, symBinAddr: 0x100015B1C, symSize: 0xAC }
  - { offsetInCU: 0x26849A, offset: 0x26849A, size: 0x8, addend: 0x0, symName: __ZN5Eigen7MapBaseINS_5BlockINS_6MatrixIfLi3ELi3ELi0ELi3ELi3EEELi3ELi1ELb1EEELi1EEC2EPfll, symObjAddr: 0x11B50, symBinAddr: 0x100015BC8, symSize: 0x44 }
  - { offsetInCU: 0x2684F1, offset: 0x2684F1, size: 0x8, addend: 0x0, symName: __ZN5Eigen8internal19variable_if_dynamicIlLin1EEC1El, symObjAddr: 0x11B94, symBinAddr: 0x100015C0C, symSize: 0x34 }
  - { offsetInCU: 0x268529, offset: 0x268529, size: 0x8, addend: 0x0, symName: __ZN5Eigen8internal15BlockImpl_denseINS_6MatrixIfLi3ELi3ELi0ELi3ELi3EEELi3ELi1ELb1ELb1EE4initEv, symObjAddr: 0x11BC8, symBinAddr: 0x100015C40, symSize: 0x34 }
  - { offsetInCU: 0x26854F, offset: 0x26854F, size: 0x8, addend: 0x0, symName: __ZN5Eigen7MapBaseINS_5BlockINS_6MatrixIfLi3ELi3ELi0ELi3ELi3EEELi3ELi1ELb1EEELi0EEC2EPfll, symObjAddr: 0x11BFC, symBinAddr: 0x100015C74, symSize: 0x13C }
  - { offsetInCU: 0x2685A3, offset: 0x2685A3, size: 0x8, addend: 0x0, symName: __ZN5Eigen10MatrixBaseINS_5BlockINS_6MatrixIfLi3ELi3ELi0ELi3ELi3EEELi3ELi1ELb1EEEEC2Ev, symObjAddr: 0x11D38, symBinAddr: 0x100015DB0, symSize: 0x2C }
  - { offsetInCU: 0x2685CD, offset: 0x2685CD, size: 0x8, addend: 0x0, symName: __ZN5Eigen8internal19variable_if_dynamicIlLi1EEC1El, symObjAddr: 0x11D64, symBinAddr: 0x100015DDC, symSize: 0x34 }
  - { offsetInCU: 0x268605, offset: 0x268605, size: 0x8, addend: 0x0, symName: __ZNK5Eigen7MapBaseINS_5BlockINS_6MatrixIfLi3ELi3ELi0ELi3ELi3EEELi3ELi1ELb1EEELi0EE11checkSanityIS4_EEvNS_8internal9enable_ifIXeqsr8internal6traitsIT_EE9AlignmentLi0EEPvE4typeE, symObjAddr: 0x11D98, symBinAddr: 0x100015E10, symSize: 0x14 }
  - { offsetInCU: 0x26863F, offset: 0x26863F, size: 0x8, addend: 0x0, symName: __ZN5Eigen9DenseBaseINS_5BlockINS_6MatrixIfLi3ELi3ELi0ELi3ELi3EEELi3ELi1ELb1EEEEC2Ev, symObjAddr: 0x11DAC, symBinAddr: 0x100015E24, symSize: 0x14 }
  - { offsetInCU: 0x268669, offset: 0x268669, size: 0x8, addend: 0x0, symName: __ZN5Eigen8internal19variable_if_dynamicIlLi1EEC2El, symObjAddr: 0x11DC0, symBinAddr: 0x100015E38, symSize: 0x64 }
  - { offsetInCU: 0x2686A1, offset: 0x2686A1, size: 0x8, addend: 0x0, symName: __ZN5Eigen8internal19variable_if_dynamicIlLin1EEC2El, symObjAddr: 0x11E24, symBinAddr: 0x100015E9C, symSize: 0x20 }
  - { offsetInCU: 0x2686D9, offset: 0x2686D9, size: 0x8, addend: 0x0, symName: __ZN5Eigen9EigenBaseINS_5BlockINS_6MatrixIfLi3ELi3ELi0ELi3ELi3EEELi3ELi1ELb1EEEE7derivedEv, symObjAddr: 0x11E44, symBinAddr: 0x100015EBC, symSize: 0x14 }
  - { offsetInCU: 0x2686FF, offset: 0x2686FF, size: 0x8, addend: 0x0, symName: __ZNK5Eigen9EigenBaseINS_5BlockINS_6MatrixIfLi3ELi3ELi0ELi3ELi3EEELi3ELi1ELb1EEEE4sizeEv, symObjAddr: 0x11E58, symBinAddr: 0x100015ED0, symSize: 0x44 }
  - { offsetInCU: 0x268725, offset: 0x268725, size: 0x8, addend: 0x0, symName: __ZN5Eigen11VectorBlockINS_5BlockINS_6MatrixIfLi3ELi3ELi0ELi3ELi3EEELi3ELi1ELb1EEELin1EEC1ERS4_ll, symObjAddr: 0x11EB4, symBinAddr: 0x100015F2C, symSize: 0x44 }
  - { offsetInCU: 0x268779, offset: 0x268779, size: 0x8, addend: 0x0, symName: __ZNK5Eigen9EigenBaseINS_5BlockINS_6MatrixIfLi3ELi3ELi0ELi3ELi3EEELi3ELi1ELb1EEEE4rowsEv, symObjAddr: 0x11EF8, symBinAddr: 0x100015F70, symSize: 0x38 }
  - { offsetInCU: 0x26879F, offset: 0x26879F, size: 0x8, addend: 0x0, symName: __ZNK5Eigen9EigenBaseINS_5BlockINS_6MatrixIfLi3ELi3ELi0ELi3ELi3EEELi3ELi1ELb1EEEE4colsEv, symObjAddr: 0x11F30, symBinAddr: 0x100015FA8, symSize: 0x28 }
  - { offsetInCU: 0x2687C5, offset: 0x2687C5, size: 0x8, addend: 0x0, symName: __ZNK5Eigen9EigenBaseINS_5BlockINS_6MatrixIfLi3ELi3ELi0ELi3ELi3EEELi3ELi1ELb1EEEE7derivedEv, symObjAddr: 0x11F58, symBinAddr: 0x100015FD0, symSize: 0x14 }
  - { offsetInCU: 0x2687EB, offset: 0x2687EB, size: 0x8, addend: 0x0, symName: __ZNK5Eigen7MapBaseINS_5BlockINS_6MatrixIfLi3ELi3ELi0ELi3ELi3EEELi3ELi1ELb1EEELi0EE4rowsEv, symObjAddr: 0x11F6C, symBinAddr: 0x100015FE4, symSize: 0x20 }
  - { offsetInCU: 0x268811, offset: 0x268811, size: 0x8, addend: 0x0, symName: __ZNK5Eigen7MapBaseINS_5BlockINS_6MatrixIfLi3ELi3ELi0ELi3ELi3EEELi3ELi1ELb1EEELi0EE4colsEv, symObjAddr: 0x11F8C, symBinAddr: 0x100016004, symSize: 0x30 }
  - { offsetInCU: 0x268837, offset: 0x268837, size: 0x8, addend: 0x0, symName: __ZN5Eigen8internal19variable_if_dynamicIlLi1EE5valueEv, symObjAddr: 0x11FBC, symBinAddr: 0x100016034, symSize: 0x8 }
  - { offsetInCU: 0x26884B, offset: 0x26884B, size: 0x8, addend: 0x0, symName: __ZN5Eigen11VectorBlockINS_5BlockINS_6MatrixIfLi3ELi3ELi0ELi3ELi3EEELi3ELi1ELb1EEELin1EEC2ERS4_ll, symObjAddr: 0x11FC4, symBinAddr: 0x10001603C, symSize: 0x4C }
  - { offsetInCU: 0x26889F, offset: 0x26889F, size: 0x8, addend: 0x0, symName: __ZN5Eigen5BlockINS0_INS_6MatrixIfLi3ELi3ELi0ELi3ELi3EEELi3ELi1ELb1EEELin1ELi1ELb0EEC2ERS3_llll, symObjAddr: 0x12010, symBinAddr: 0x100016088, symSize: 0x190 }
  - { offsetInCU: 0x26890F, offset: 0x26890F, size: 0x8, addend: 0x0, symName: __ZN5Eigen9BlockImplINS_5BlockINS_6MatrixIfLi3ELi3ELi0ELi3ELi3EEELi3ELi1ELb1EEELin1ELi1ELb0ENS_5DenseEEC2ERS4_llll, symObjAddr: 0x121A0, symBinAddr: 0x100016218, symSize: 0x54 }
  - { offsetInCU: 0x26897F, offset: 0x26897F, size: 0x8, addend: 0x0, symName: __ZN5Eigen8internal15BlockImpl_denseINS_5BlockINS_6MatrixIfLi3ELi3ELi0ELi3ELi3EEELi3ELi1ELb1EEELin1ELi1ELb0ELb1EEC2ERS5_llll, symObjAddr: 0x121F4, symBinAddr: 0x10001626C, symSize: 0xD0 }
  - { offsetInCU: 0x2689F4, offset: 0x2689F4, size: 0x8, addend: 0x0, symName: __ZN5Eigen7MapBaseINS_5BlockINS_6MatrixIfLi3ELi3ELi0ELi3ELi3EEELi3ELi1ELb1EEELi1EE4dataEv, symObjAddr: 0x122C4, symBinAddr: 0x10001633C, symSize: 0x18 }
  - { offsetInCU: 0x268A1A, offset: 0x268A1A, size: 0x8, addend: 0x0, symName: __ZNK5Eigen8internal15BlockImpl_denseINS_6MatrixIfLi3ELi3ELi0ELi3ELi3EEELi3ELi1ELb1ELb1EE11innerStrideEv, symObjAddr: 0x122DC, symBinAddr: 0x100016354, symSize: 0x28 }
  - { offsetInCU: 0x268A40, offset: 0x268A40, size: 0x8, addend: 0x0, symName: __ZNK5Eigen8internal15BlockImpl_denseINS_6MatrixIfLi3ELi3ELi0ELi3ELi3EEELi3ELi1ELb1ELb1EE11outerStrideEv, symObjAddr: 0x12304, symBinAddr: 0x10001637C, symSize: 0x28 }
  - { offsetInCU: 0x268A66, offset: 0x268A66, size: 0x8, addend: 0x0, symName: __ZN5Eigen7MapBaseINS_5BlockINS1_INS_6MatrixIfLi3ELi3ELi0ELi3ELi3EEELi3ELi1ELb1EEELin1ELi1ELb0EEELi1EEC2EPfll, symObjAddr: 0x1232C, symBinAddr: 0x1000163A4, symSize: 0x44 }
  - { offsetInCU: 0x268ABD, offset: 0x268ABD, size: 0x8, addend: 0x0, symName: __ZN5Eigen8internal19variable_if_dynamicIlLi0EEC1El, symObjAddr: 0x12370, symBinAddr: 0x1000163E8, symSize: 0x34 }
  - { offsetInCU: 0x268AF5, offset: 0x268AF5, size: 0x8, addend: 0x0, symName: __ZN5Eigen8internal15BlockImpl_denseINS_5BlockINS_6MatrixIfLi3ELi3ELi0ELi3ELi3EEELi3ELi1ELb1EEELin1ELi1ELb0ELb1EE4initEv, symObjAddr: 0x123A4, symBinAddr: 0x10001641C, symSize: 0x34 }
  - { offsetInCU: 0x268B1B, offset: 0x268B1B, size: 0x8, addend: 0x0, symName: __ZNK5Eigen6MatrixIfLi3ELi3ELi0ELi3ELi3EE11innerStrideEv, symObjAddr: 0x123D8, symBinAddr: 0x100016450, symSize: 0x14 }
  - { offsetInCU: 0x268B41, offset: 0x268B41, size: 0x8, addend: 0x0, symName: __ZN5Eigen7MapBaseINS_5BlockINS1_INS_6MatrixIfLi3ELi3ELi0ELi3ELi3EEELi3ELi1ELb1EEELin1ELi1ELb0EEELi0EEC2EPfll, symObjAddr: 0x123EC, symBinAddr: 0x100016464, symSize: 0x11C }
  - { offsetInCU: 0x268B95, offset: 0x268B95, size: 0x8, addend: 0x0, symName: __ZN5Eigen10MatrixBaseINS_5BlockINS1_INS_6MatrixIfLi3ELi3ELi0ELi3ELi3EEELi3ELi1ELb1EEELin1ELi1ELb0EEEEC2Ev, symObjAddr: 0x12508, symBinAddr: 0x100016580, symSize: 0x2C }
  - { offsetInCU: 0x268BBF, offset: 0x268BBF, size: 0x8, addend: 0x0, symName: __ZNK5Eigen7MapBaseINS_5BlockINS1_INS_6MatrixIfLi3ELi3ELi0ELi3ELi3EEELi3ELi1ELb1EEELin1ELi1ELb0EEELi0EE11checkSanityIS5_EEvNS_8internal9enable_ifIXeqsr8internal6traitsIT_EE9AlignmentLi0EEPvE4typeE, symObjAddr: 0x12534, symBinAddr: 0x1000165AC, symSize: 0x14 }
  - { offsetInCU: 0x268BF9, offset: 0x268BF9, size: 0x8, addend: 0x0, symName: __ZN5Eigen9DenseBaseINS_5BlockINS1_INS_6MatrixIfLi3ELi3ELi0ELi3ELi3EEELi3ELi1ELb1EEELin1ELi1ELb0EEEEC2Ev, symObjAddr: 0x12548, symBinAddr: 0x1000165C0, symSize: 0x14 }
  - { offsetInCU: 0x268C23, offset: 0x268C23, size: 0x8, addend: 0x0, symName: __ZN5Eigen8internal19variable_if_dynamicIlLi0EEC2El, symObjAddr: 0x1255C, symBinAddr: 0x1000165D4, symSize: 0x64 }
  - { offsetInCU: 0x268C5B, offset: 0x268C5B, size: 0x8, addend: 0x0, symName: __ZN5Eigen9EigenBaseINS_5BlockINS1_INS_6MatrixIfLi3ELi3ELi0ELi3ELi3EEELi3ELi1ELb1EEELin1ELi1ELb0EEEE7derivedEv, symObjAddr: 0x125C0, symBinAddr: 0x100016638, symSize: 0x14 }
  - { offsetInCU: 0x268C81, offset: 0x268C81, size: 0x8, addend: 0x0, symName: __ZNK5Eigen9EigenBaseINS_5BlockINS1_INS_6MatrixIfLi3ELi3ELi0ELi3ELi3EEELi3ELi1ELb1EEELin1ELi1ELb0EEEE4sizeEv, symObjAddr: 0x125D4, symBinAddr: 0x10001664C, symSize: 0x44 }
  - { offsetInCU: 0x268CAC, offset: 0x268CAC, size: 0x8, addend: 0x0, symName: __ZN5Eigen11VectorBlockINS_5BlockINS1_INS_6MatrixIfLi3ELi3ELi0ELi3ELi3EEELi3ELi1ELb1EEELin1ELi1ELb0EEELin1EEC1ERS5_ll, symObjAddr: 0x12618, symBinAddr: 0x100016690, symSize: 0x44 }
  - { offsetInCU: 0x268D05, offset: 0x268D05, size: 0x8, addend: 0x0, symName: __ZNK5Eigen10MatrixBaseINS_5BlockINS1_INS_6MatrixIfLi3ELi3ELi0ELi3ELi3EEELi3ELi1ELb1EEELin1ELi1ELb0EEEE15makeHouseholderINS_11VectorBlockIS5_Lin1EEEEEvRT_RfSC_, symObjAddr: 0x1265C, symBinAddr: 0x1000166D4, symSize: 0x1F4 }
  - { offsetInCU: 0x268DA6, offset: 0x268DA6, size: 0x8, addend: 0x0, symName: __ZNK5Eigen9EigenBaseINS_5BlockINS1_INS_6MatrixIfLi3ELi3ELi0ELi3ELi3EEELi3ELi1ELb1EEELin1ELi1ELb0EEEE4rowsEv, symObjAddr: 0x12850, symBinAddr: 0x1000168C8, symSize: 0x38 }
  - { offsetInCU: 0x268DCC, offset: 0x268DCC, size: 0x8, addend: 0x0, symName: __ZNK5Eigen9EigenBaseINS_5BlockINS1_INS_6MatrixIfLi3ELi3ELi0ELi3ELi3EEELi3ELi1ELb1EEELin1ELi1ELb0EEEE4colsEv, symObjAddr: 0x12888, symBinAddr: 0x100016900, symSize: 0x28 }
  - { offsetInCU: 0x268DF2, offset: 0x268DF2, size: 0x8, addend: 0x0, symName: __ZNK5Eigen9EigenBaseINS_5BlockINS1_INS_6MatrixIfLi3ELi3ELi0ELi3ELi3EEELi3ELi1ELb1EEELin1ELi1ELb0EEEE7derivedEv, symObjAddr: 0x128B0, symBinAddr: 0x100016928, symSize: 0x14 }
  - { offsetInCU: 0x268E18, offset: 0x268E18, size: 0x8, addend: 0x0, symName: __ZNK5Eigen7MapBaseINS_5BlockINS1_INS_6MatrixIfLi3ELi3ELi0ELi3ELi3EEELi3ELi1ELb1EEELin1ELi1ELb0EEELi0EE4rowsEv, symObjAddr: 0x128C4, symBinAddr: 0x10001693C, symSize: 0x38 }
  - { offsetInCU: 0x268E3E, offset: 0x268E3E, size: 0x8, addend: 0x0, symName: __ZNK5Eigen8internal19variable_if_dynamicIlLin1EE5valueEv, symObjAddr: 0x128FC, symBinAddr: 0x100016974, symSize: 0x18 }
  - { offsetInCU: 0x268E64, offset: 0x268E64, size: 0x8, addend: 0x0, symName: __ZNK5Eigen7MapBaseINS_5BlockINS1_INS_6MatrixIfLi3ELi3ELi0ELi3ELi3EEELi3ELi1ELb1EEELin1ELi1ELb0EEELi0EE4colsEv, symObjAddr: 0x12914, symBinAddr: 0x10001698C, symSize: 0x20 }
  - { offsetInCU: 0x268E8A, offset: 0x268E8A, size: 0x8, addend: 0x0, symName: __ZN5Eigen11VectorBlockINS_5BlockINS1_INS_6MatrixIfLi3ELi3ELi0ELi3ELi3EEELi3ELi1ELb1EEELin1ELi1ELb0EEELin1EEC2ERS5_ll, symObjAddr: 0x12934, symBinAddr: 0x1000169AC, symSize: 0x4C }
  - { offsetInCU: 0x268EDE, offset: 0x268EDE, size: 0x8, addend: 0x0, symName: __ZN5Eigen5BlockINS0_INS0_INS_6MatrixIfLi3ELi3ELi0ELi3ELi3EEELi3ELi1ELb1EEELin1ELi1ELb0EEELin1ELi1ELb0EEC2ERS4_llll, symObjAddr: 0x12980, symBinAddr: 0x1000169F8, symSize: 0x190 }
  - { offsetInCU: 0x268F4E, offset: 0x268F4E, size: 0x8, addend: 0x0, symName: __ZN5Eigen9BlockImplINS_5BlockINS1_INS_6MatrixIfLi3ELi3ELi0ELi3ELi3EEELi3ELi1ELb1EEELin1ELi1ELb0EEELin1ELi1ELb0ENS_5DenseEEC2ERS5_llll, symObjAddr: 0x12B10, symBinAddr: 0x100016B88, symSize: 0x54 }
  - { offsetInCU: 0x268FBE, offset: 0x268FBE, size: 0x8, addend: 0x0, symName: __ZN5Eigen8internal15BlockImpl_denseINS_5BlockINS2_INS_6MatrixIfLi3ELi3ELi0ELi3ELi3EEELi3ELi1ELb1EEELin1ELi1ELb0EEELin1ELi1ELb0ELb1EEC2ERS6_llll, symObjAddr: 0x12B64, symBinAddr: 0x100016BDC, symSize: 0xD0 }
  - { offsetInCU: 0x269033, offset: 0x269033, size: 0x8, addend: 0x0, symName: __ZN5Eigen7MapBaseINS_5BlockINS1_INS_6MatrixIfLi3ELi3ELi0ELi3ELi3EEELi3ELi1ELb1EEELin1ELi1ELb0EEELi1EE4dataEv, symObjAddr: 0x12C34, symBinAddr: 0x100016CAC, symSize: 0x18 }
  - { offsetInCU: 0x269059, offset: 0x269059, size: 0x8, addend: 0x0, symName: __ZNK5Eigen8internal15BlockImpl_denseINS_5BlockINS_6MatrixIfLi3ELi3ELi0ELi3ELi3EEELi3ELi1ELb1EEELin1ELi1ELb0ELb1EE11innerStrideEv, symObjAddr: 0x12C4C, symBinAddr: 0x100016CC4, symSize: 0x28 }
  - { offsetInCU: 0x26907F, offset: 0x26907F, size: 0x8, addend: 0x0, symName: __ZNK5Eigen8internal15BlockImpl_denseINS_5BlockINS_6MatrixIfLi3ELi3ELi0ELi3ELi3EEELi3ELi1ELb1EEELin1ELi1ELb0ELb1EE11outerStrideEv, symObjAddr: 0x12C74, symBinAddr: 0x100016CEC, symSize: 0x28 }
  - { offsetInCU: 0x2690A5, offset: 0x2690A5, size: 0x8, addend: 0x0, symName: __ZN5Eigen7MapBaseINS_5BlockINS1_INS1_INS_6MatrixIfLi3ELi3ELi0ELi3ELi3EEELi3ELi1ELb1EEELin1ELi1ELb0EEELin1ELi1ELb0EEELi1EEC2EPfll, symObjAddr: 0x12C9C, symBinAddr: 0x100016D14, symSize: 0x44 }
  - { offsetInCU: 0x2690FC, offset: 0x2690FC, size: 0x8, addend: 0x0, symName: __ZN5Eigen8internal15BlockImpl_denseINS_5BlockINS2_INS_6MatrixIfLi3ELi3ELi0ELi3ELi3EEELi3ELi1ELb1EEELin1ELi1ELb0EEELin1ELi1ELb0ELb1EE4initEv, symObjAddr: 0x12CE0, symBinAddr: 0x100016D58, symSize: 0x34 }
  - { offsetInCU: 0x269122, offset: 0x269122, size: 0x8, addend: 0x0, symName: __ZN5Eigen7MapBaseINS_5BlockINS1_INS1_INS_6MatrixIfLi3ELi3ELi0ELi3ELi3EEELi3ELi1ELb1EEELin1ELi1ELb0EEELin1ELi1ELb0EEELi0EEC2EPfll, symObjAddr: 0x12D14, symBinAddr: 0x100016D8C, symSize: 0x11C }
  - { offsetInCU: 0x269176, offset: 0x269176, size: 0x8, addend: 0x0, symName: __ZN5Eigen10MatrixBaseINS_5BlockINS1_INS1_INS_6MatrixIfLi3ELi3ELi0ELi3ELi3EEELi3ELi1ELb1EEELin1ELi1ELb0EEELin1ELi1ELb0EEEEC2Ev, symObjAddr: 0x12E30, symBinAddr: 0x100016EA8, symSize: 0x2C }
  - { offsetInCU: 0x2691A0, offset: 0x2691A0, size: 0x8, addend: 0x0, symName: __ZNK5Eigen7MapBaseINS_5BlockINS1_INS1_INS_6MatrixIfLi3ELi3ELi0ELi3ELi3EEELi3ELi1ELb1EEELin1ELi1ELb0EEELin1ELi1ELb0EEELi0EE11checkSanityIS6_EEvNS_8internal9enable_ifIXeqsr8internal6traitsIT_EE9AlignmentLi0EEPvE4typeE, symObjAddr: 0x12E5C, symBinAddr: 0x100016ED4, symSize: 0x14 }
  - { offsetInCU: 0x2691DA, offset: 0x2691DA, size: 0x8, addend: 0x0, symName: __ZN5Eigen9DenseBaseINS_5BlockINS1_INS1_INS_6MatrixIfLi3ELi3ELi0ELi3ELi3EEELi3ELi1ELb1EEELin1ELi1ELb0EEELin1ELi1ELb0EEEEC2Ev, symObjAddr: 0x12E70, symBinAddr: 0x100016EE8, symSize: 0x14 }
  - { offsetInCU: 0x269209, offset: 0x269209, size: 0x8, addend: 0x0, symName: __ZN5Eigen11VectorBlockIKNS_5BlockINS1_INS_6MatrixIfLi3ELi3ELi0ELi3ELi3EEELi3ELi1ELb1EEELin1ELi1ELb0EEELin1EEC1ERS6_ll, symObjAddr: 0x12E84, symBinAddr: 0x100016EFC, symSize: 0x44 }
  - { offsetInCU: 0x26925D, offset: 0x26925D, size: 0x8, addend: 0x0, symName: __ZNK5Eigen10MatrixBaseINS_5BlockIKNS1_INS1_INS_6MatrixIfLi3ELi3ELi0ELi3ELi3EEELi3ELi1ELb1EEELin1ELi1ELb0EEELin1ELi1ELb0EEEE11squaredNormEv, symObjAddr: 0x12EC8, symBinAddr: 0x100016F40, symSize: 0x40 }
  - { offsetInCU: 0x269285, offset: 0x269285, size: 0x8, addend: 0x0, symName: __ZNK5Eigen15DenseCoeffsBaseINS_5BlockINS1_INS_6MatrixIfLi3ELi3ELi0ELi3ELi3EEELi3ELi1ELb1EEELin1ELi1ELb0EEELi0EE5coeffEl, symObjAddr: 0x12F08, symBinAddr: 0x100016F80, symSize: 0x78 }
  - { offsetInCU: 0x2692B9, offset: 0x2692B9, size: 0x8, addend: 0x0, symName: __ZN5Eigen9DenseBaseINS_5BlockINS1_INS1_INS_6MatrixIfLi3ELi3ELi0ELi3ELi3EEELi3ELi1ELb1EEELin1ELi1ELb0EEELin1ELi1ELb0EEEE7setZeroEv, symObjAddr: 0x12FEC, symBinAddr: 0x100017064, symSize: 0x30 }
  - { offsetInCU: 0x2692E2, offset: 0x2692E2, size: 0x8, addend: 0x0, symName: __ZNK5Eigen10MatrixBaseINS_5BlockIKNS1_INS1_INS_6MatrixIfLi3ELi3ELi0ELi3ELi3EEELi3ELi1ELb1EEELin1ELi1ELb0EEELin1ELi1ELb0EEEEdvIfEEKNS_13CwiseBinaryOpINS_8internal18scalar_quotient_opIfNSB_18promote_scalar_argIfT_Xsr5Eigen8internal14has_ReturnTypeINS_20ScalarBinaryOpTraitsIfSE_NSC_IfSE_EEEEEE5valueEE4typeEEEKS7_KNSB_19plain_constant_typeIS7_SJ_E4typeEEERKSE_, symObjAddr: 0x1301C, symBinAddr: 0x100017094, symSize: 0xA8 }
  - { offsetInCU: 0x26931F, offset: 0x26931F, size: 0x8, addend: 0x0, symName: __ZN5Eigen5BlockINS0_INS0_INS_6MatrixIfLi3ELi3ELi0ELi3ELi3EEELi3ELi1ELb1EEELin1ELi1ELb0EEELin1ELi1ELb0EEaSINS_13CwiseBinaryOpINS_8internal18scalar_quotient_opIffEEKNS0_IKS4_Lin1ELi1ELb0EEEKNS_14CwiseNullaryOpINS8_18scalar_constant_opIfEEKNS1_IfLin1ELi1ELi0ELi3ELi1EEEEEEEEERS5_RKNS_9DenseBaseIT_EE, symObjAddr: 0x130C4, symBinAddr: 0x10001713C, symSize: 0x40 }
  - { offsetInCU: 0x26935C, offset: 0x26935C, size: 0x8, addend: 0x0, symName: __ZN5Eigen11VectorBlockIKNS_5BlockINS1_INS_6MatrixIfLi3ELi3ELi0ELi3ELi3EEELi3ELi1ELb1EEELin1ELi1ELb0EEELin1EEC2ERS6_ll, symObjAddr: 0x13104, symBinAddr: 0x10001717C, symSize: 0x4C }
  - { offsetInCU: 0x2693B0, offset: 0x2693B0, size: 0x8, addend: 0x0, symName: __ZN5Eigen5BlockIKNS0_INS0_INS_6MatrixIfLi3ELi3ELi0ELi3ELi3EEELi3ELi1ELb1EEELin1ELi1ELb0EEELin1ELi1ELb0EEC2ERS5_llll, symObjAddr: 0x13150, symBinAddr: 0x1000171C8, symSize: 0x190 }
  - { offsetInCU: 0x269420, offset: 0x269420, size: 0x8, addend: 0x0, symName: __ZN5Eigen9BlockImplIKNS_5BlockINS1_INS_6MatrixIfLi3ELi3ELi0ELi3ELi3EEELi3ELi1ELb1EEELin1ELi1ELb0EEELin1ELi1ELb0ENS_5DenseEEC2ERS6_llll, symObjAddr: 0x132E0, symBinAddr: 0x100017358, symSize: 0x54 }
  - { offsetInCU: 0x269490, offset: 0x269490, size: 0x8, addend: 0x0, symName: __ZN5Eigen8internal15BlockImpl_denseIKNS_5BlockINS2_INS_6MatrixIfLi3ELi3ELi0ELi3ELi3EEELi3ELi1ELb1EEELin1ELi1ELb0EEELin1ELi1ELb0ELb1EEC2ERS7_llll, symObjAddr: 0x13334, symBinAddr: 0x1000173AC, symSize: 0xD0 }
  - { offsetInCU: 0x269505, offset: 0x269505, size: 0x8, addend: 0x0, symName: __ZNK5Eigen7MapBaseINS_5BlockINS1_INS_6MatrixIfLi3ELi3ELi0ELi3ELi3EEELi3ELi1ELb1EEELin1ELi1ELb0EEELi1EE4dataEv, symObjAddr: 0x13404, symBinAddr: 0x10001747C, symSize: 0x18 }
  - { offsetInCU: 0x26952B, offset: 0x26952B, size: 0x8, addend: 0x0, symName: __ZN5Eigen7MapBaseINS_5BlockIKNS1_INS1_INS_6MatrixIfLi3ELi3ELi0ELi3ELi3EEELi3ELi1ELb1EEELin1ELi1ELb0EEELin1ELi1ELb0EEELi0EEC2EPKfll, symObjAddr: 0x1341C, symBinAddr: 0x100017494, symSize: 0x11C }
  - { offsetInCU: 0x26957F, offset: 0x26957F, size: 0x8, addend: 0x0, symName: __ZN5Eigen8internal15BlockImpl_denseIKNS_5BlockINS2_INS_6MatrixIfLi3ELi3ELi0ELi3ELi3EEELi3ELi1ELb1EEELin1ELi1ELb0EEELin1ELi1ELb0ELb1EE4initEv, symObjAddr: 0x13538, symBinAddr: 0x1000175B0, symSize: 0x34 }
  - { offsetInCU: 0x2695A5, offset: 0x2695A5, size: 0x8, addend: 0x0, symName: __ZN5Eigen10MatrixBaseINS_5BlockIKNS1_INS1_INS_6MatrixIfLi3ELi3ELi0ELi3ELi3EEELi3ELi1ELb1EEELin1ELi1ELb0EEELin1ELi1ELb0EEEEC2Ev, symObjAddr: 0x1356C, symBinAddr: 0x1000175E4, symSize: 0x2C }
  - { offsetInCU: 0x2695CF, offset: 0x2695CF, size: 0x8, addend: 0x0, symName: __ZNK5Eigen7MapBaseINS_5BlockIKNS1_INS1_INS_6MatrixIfLi3ELi3ELi0ELi3ELi3EEELi3ELi1ELb1EEELin1ELi1ELb0EEELin1ELi1ELb0EEELi0EE11checkSanityIS7_EEvNS_8internal9enable_ifIXeqsr8internal6traitsIT_EE9AlignmentLi0EEPvE4typeE, symObjAddr: 0x13598, symBinAddr: 0x100017610, symSize: 0x14 }
  - { offsetInCU: 0x269609, offset: 0x269609, size: 0x8, addend: 0x0, symName: __ZN5Eigen9DenseBaseINS_5BlockIKNS1_INS1_INS_6MatrixIfLi3ELi3ELi0ELi3ELi3EEELi3ELi1ELb1EEELin1ELi1ELb0EEELin1ELi1ELb0EEEEC2Ev, symObjAddr: 0x135AC, symBinAddr: 0x100017624, symSize: 0x14 }
  - { offsetInCU: 0x269633, offset: 0x269633, size: 0x8, addend: 0x0, symName: __ZNK5Eigen10MatrixBaseINS_5BlockIKNS1_INS1_INS_6MatrixIfLi3ELi3ELi0ELi3ELi3EEELi3ELi1ELb1EEELin1ELi1ELb0EEELin1ELi1ELb0EEEE9cwiseAbs2Ev, symObjAddr: 0x135C0, symBinAddr: 0x100017638, symSize: 0x4C }
  - { offsetInCU: 0x269659, offset: 0x269659, size: 0x8, addend: 0x0, symName: __ZNK5Eigen9DenseBaseINS_12CwiseUnaryOpINS_8internal14scalar_abs2_opIfEEKNS_5BlockIKNS5_INS5_INS_6MatrixIfLi3ELi3ELi0ELi3ELi3EEELi3ELi1ELb1EEELin1ELi1ELb0EEELin1ELi1ELb0EEEEEE3sumEv, symObjAddr: 0x1360C, symBinAddr: 0x100017684, symSize: 0x74 }
  - { offsetInCU: 0x269682, offset: 0x269682, size: 0x8, addend: 0x0, symName: __ZNK5Eigen9EigenBaseINS_5BlockIKNS1_INS1_INS_6MatrixIfLi3ELi3ELi0ELi3ELi3EEELi3ELi1ELb1EEELin1ELi1ELb0EEELin1ELi1ELb0EEEE7derivedEv, symObjAddr: 0x13680, symBinAddr: 0x1000176F8, symSize: 0x14 }
  - { offsetInCU: 0x2696A8, offset: 0x2696A8, size: 0x8, addend: 0x0, symName: __ZN5Eigen8internal14scalar_abs2_opIfEC1Ev, symObjAddr: 0x13694, symBinAddr: 0x10001770C, symSize: 0x2C }
  - { offsetInCU: 0x2696D2, offset: 0x2696D2, size: 0x8, addend: 0x0, symName: __ZN5Eigen12CwiseUnaryOpINS_8internal14scalar_abs2_opIfEEKNS_5BlockIKNS4_INS4_INS_6MatrixIfLi3ELi3ELi0ELi3ELi3EEELi3ELi1ELb1EEELin1ELi1ELb0EEELin1ELi1ELb0EEEEC1ERSB_RKS3_, symObjAddr: 0x136C0, symBinAddr: 0x100017738, symSize: 0x3C }
  - { offsetInCU: 0x269718, offset: 0x269718, size: 0x8, addend: 0x0, symName: __ZN5Eigen8internal14scalar_abs2_opIfEC2Ev, symObjAddr: 0x136FC, symBinAddr: 0x100017774, symSize: 0x14 }
  - { offsetInCU: 0x269742, offset: 0x269742, size: 0x8, addend: 0x0, symName: __ZN5Eigen12CwiseUnaryOpINS_8internal14scalar_abs2_opIfEEKNS_5BlockIKNS4_INS4_INS_6MatrixIfLi3ELi3ELi0ELi3ELi3EEELi3ELi1ELb1EEELin1ELi1ELb0EEELin1ELi1ELb0EEEEC2ERSB_RKS3_, symObjAddr: 0x13710, symBinAddr: 0x100017788, symSize: 0x54 }
  - { offsetInCU: 0x26978D, offset: 0x26978D, size: 0x8, addend: 0x0, symName: __ZN5Eigen16CwiseUnaryOpImplINS_8internal14scalar_abs2_opIfEEKNS_5BlockIKNS4_INS4_INS_6MatrixIfLi3ELi3ELi0ELi3ELi3EEELi3ELi1ELb1EEELin1ELi1ELb0EEELin1ELi1ELb0EEENS_5DenseEEC2Ev, symObjAddr: 0x13764, symBinAddr: 0x1000177DC, symSize: 0x2C }
  - { offsetInCU: 0x2697B9, offset: 0x2697B9, size: 0x8, addend: 0x0, symName: __ZN5Eigen8internal14scalar_abs2_opIfEC1ERKS2_, symObjAddr: 0x13790, symBinAddr: 0x100017808, symSize: 0x34 }
  - { offsetInCU: 0x2697EE, offset: 0x2697EE, size: 0x8, addend: 0x0, symName: __ZN5Eigen10MatrixBaseINS_12CwiseUnaryOpINS_8internal14scalar_abs2_opIfEEKNS_5BlockIKNS5_INS5_INS_6MatrixIfLi3ELi3ELi0ELi3ELi3EEELi3ELi1ELb1EEELin1ELi1ELb0EEELin1ELi1ELb0EEEEEEC2Ev, symObjAddr: 0x137C4, symBinAddr: 0x10001783C, symSize: 0x2C }
  - { offsetInCU: 0x269818, offset: 0x269818, size: 0x8, addend: 0x0, symName: __ZN5Eigen9DenseBaseINS_12CwiseUnaryOpINS_8internal14scalar_abs2_opIfEEKNS_5BlockIKNS5_INS5_INS_6MatrixIfLi3ELi3ELi0ELi3ELi3EEELi3ELi1ELb1EEELin1ELi1ELb0EEELin1ELi1ELb0EEEEEEC2Ev, symObjAddr: 0x137F0, symBinAddr: 0x100017868, symSize: 0x14 }
  - { offsetInCU: 0x269842, offset: 0x269842, size: 0x8, addend: 0x0, symName: __ZN5Eigen8internal14scalar_abs2_opIfEC2ERKS2_, symObjAddr: 0x13804, symBinAddr: 0x10001787C, symSize: 0x18 }
  - { offsetInCU: 0x269877, offset: 0x269877, size: 0x8, addend: 0x0, symName: __ZNK5Eigen9EigenBaseINS_12CwiseUnaryOpINS_8internal14scalar_abs2_opIfEEKNS_5BlockIKNS5_INS5_INS_6MatrixIfLi3ELi3ELi0ELi3ELi3EEELi3ELi1ELb1EEELin1ELi1ELb0EEELin1ELi1ELb0EEEEEE4sizeEv, symObjAddr: 0x1381C, symBinAddr: 0x100017894, symSize: 0x44 }
  - { offsetInCU: 0x26989D, offset: 0x26989D, size: 0x8, addend: 0x0, symName: __ZNK5Eigen9EigenBaseINS_12CwiseUnaryOpINS_8internal14scalar_abs2_opIfEEKNS_5BlockIKNS5_INS5_INS_6MatrixIfLi3ELi3ELi0ELi3ELi3EEELi3ELi1ELb1EEELin1ELi1ELb0EEELin1ELi1ELb0EEEEEE7derivedEv, symObjAddr: 0x13860, symBinAddr: 0x1000178D8, symSize: 0x14 }
  - { offsetInCU: 0x2698C3, offset: 0x2698C3, size: 0x8, addend: 0x0, symName: __ZNK5Eigen9DenseBaseINS_12CwiseUnaryOpINS_8internal14scalar_abs2_opIfEEKNS_5BlockIKNS5_INS5_INS_6MatrixIfLi3ELi3ELi0ELi3ELi3EEELi3ELi1ELb1EEELin1ELi1ELb0EEELin1ELi1ELb0EEEEEE5reduxINS2_13scalar_sum_opIffEEEEfRKT_, symObjAddr: 0x13874, symBinAddr: 0x1000178EC, symSize: 0x10C }
  - { offsetInCU: 0x26991F, offset: 0x26991F, size: 0x8, addend: 0x0, symName: __ZNK5Eigen9EigenBaseINS_12CwiseUnaryOpINS_8internal14scalar_abs2_opIfEEKNS_5BlockIKNS5_INS5_INS_6MatrixIfLi3ELi3ELi0ELi3ELi3EEELi3ELi1ELb1EEELin1ELi1ELb0EEELin1ELi1ELb0EEEEEE4rowsEv, symObjAddr: 0x13980, symBinAddr: 0x1000179F8, symSize: 0x38 }
  - { offsetInCU: 0x269945, offset: 0x269945, size: 0x8, addend: 0x0, symName: __ZNK5Eigen9EigenBaseINS_12CwiseUnaryOpINS_8internal14scalar_abs2_opIfEEKNS_5BlockIKNS5_INS5_INS_6MatrixIfLi3ELi3ELi0ELi3ELi3EEELi3ELi1ELb1EEELin1ELi1ELb0EEELin1ELi1ELb0EEEEEE4colsEv, symObjAddr: 0x139B8, symBinAddr: 0x100017A30, symSize: 0x38 }
  - { offsetInCU: 0x26996B, offset: 0x26996B, size: 0x8, addend: 0x0, symName: __ZNK5Eigen12CwiseUnaryOpINS_8internal14scalar_abs2_opIfEEKNS_5BlockIKNS4_INS4_INS_6MatrixIfLi3ELi3ELi0ELi3ELi3EEELi3ELi1ELb1EEELin1ELi1ELb0EEELin1ELi1ELb0EEEE4rowsEv, symObjAddr: 0x139F0, symBinAddr: 0x100017A68, symSize: 0x24 }
  - { offsetInCU: 0x269991, offset: 0x269991, size: 0x8, addend: 0x0, symName: __ZNK5Eigen7MapBaseINS_5BlockIKNS1_INS1_INS_6MatrixIfLi3ELi3ELi0ELi3ELi3EEELi3ELi1ELb1EEELin1ELi1ELb0EEELin1ELi1ELb0EEELi0EE4rowsEv, symObjAddr: 0x13A14, symBinAddr: 0x100017A8C, symSize: 0x28 }
  - { offsetInCU: 0x2699B7, offset: 0x2699B7, size: 0x8, addend: 0x0, symName: __ZNK5Eigen12CwiseUnaryOpINS_8internal14scalar_abs2_opIfEEKNS_5BlockIKNS4_INS4_INS_6MatrixIfLi3ELi3ELi0ELi3ELi3EEELi3ELi1ELb1EEELin1ELi1ELb0EEELin1ELi1ELb0EEEE4colsEv, symObjAddr: 0x13A3C, symBinAddr: 0x100017AB4, symSize: 0x24 }
  - { offsetInCU: 0x2699DD, offset: 0x2699DD, size: 0x8, addend: 0x0, symName: __ZNK5Eigen7MapBaseINS_5BlockIKNS1_INS1_INS_6MatrixIfLi3ELi3ELi0ELi3ELi3EEELi3ELi1ELb1EEELin1ELi1ELb0EEELin1ELi1ELb0EEELi0EE4colsEv, symObjAddr: 0x13A60, symBinAddr: 0x100017AD8, symSize: 0x20 }
  - { offsetInCU: 0x269A58, offset: 0x269A58, size: 0x8, addend: 0x0, symName: __ZN5Eigen8internal15redux_evaluatorINS_12CwiseUnaryOpINS0_14scalar_abs2_opIfEEKNS_5BlockIKNS5_INS5_INS_6MatrixIfLi3ELi3ELi0ELi3ELi3EEELi3ELi1ELb1EEELin1ELi1ELb0EEELin1ELi1ELb0EEEEEEC1ERKSD_, symObjAddr: 0x13A80, symBinAddr: 0x100017AF8, symSize: 0x34 }
  - { offsetInCU: 0x269A96, offset: 0x269A96, size: 0x8, addend: 0x0, symName: __ZN5Eigen8internal10redux_implINS0_13scalar_sum_opIffEENS0_15redux_evaluatorINS_12CwiseUnaryOpINS0_14scalar_abs2_opIfEEKNS_5BlockIKNS8_INS8_INS_6MatrixIfLi3ELi3ELi0ELi3ELi3EEELi3ELi1ELb1EEELin1ELi1ELb0EEELin1ELi1ELb0EEEEEEELi3ELi0EE3runISG_EEfRKSH_RKS3_RKT_, symObjAddr: 0x13AB4, symBinAddr: 0x100017B2C, symSize: 0x3A4 }
  - { offsetInCU: 0x269C13, offset: 0x269C13, size: 0x8, addend: 0x0, symName: __ZN5Eigen8internal15redux_evaluatorINS_12CwiseUnaryOpINS0_14scalar_abs2_opIfEEKNS_5BlockIKNS5_INS5_INS_6MatrixIfLi3ELi3ELi0ELi3ELi3EEELi3ELi1ELb1EEELin1ELi1ELb0EEELin1ELi1ELb0EEEEEED1Ev, symObjAddr: 0x13E58, symBinAddr: 0x100017ED0, symSize: 0x2C }
  - { offsetInCU: 0x269C40, offset: 0x269C40, size: 0x8, addend: 0x0, symName: __ZN5Eigen8internal15redux_evaluatorINS_12CwiseUnaryOpINS0_14scalar_abs2_opIfEEKNS_5BlockIKNS5_INS5_INS_6MatrixIfLi3ELi3ELi0ELi3ELi3EEELi3ELi1ELb1EEELin1ELi1ELb0EEELin1ELi1ELb0EEEEEEC2ERKSD_, symObjAddr: 0x13E84, symBinAddr: 0x100017EFC, symSize: 0x34 }
  - { offsetInCU: 0x269C79, offset: 0x269C79, size: 0x8, addend: 0x0, symName: __ZN5Eigen8internal9evaluatorINS_12CwiseUnaryOpINS0_14scalar_abs2_opIfEEKNS_5BlockIKNS5_INS5_INS_6MatrixIfLi3ELi3ELi0ELi3ELi3EEELi3ELi1ELb1EEELin1ELi1ELb0EEELin1ELi1ELb0EEEEEEC2ERKSD_, symObjAddr: 0x13EB8, symBinAddr: 0x100017F30, symSize: 0x34 }
  - { offsetInCU: 0x269CB1, offset: 0x269CB1, size: 0x8, addend: 0x0, symName: __ZN5Eigen8internal15unary_evaluatorINS_12CwiseUnaryOpINS0_14scalar_abs2_opIfEEKNS_5BlockIKNS5_INS5_INS_6MatrixIfLi3ELi3ELi0ELi3ELi3EEELi3ELi1ELb1EEELin1ELi1ELb0EEELin1ELi1ELb0EEEEENS0_10IndexBasedEfEC2ERKSD_, symObjAddr: 0x13EEC, symBinAddr: 0x100017F64, symSize: 0x64 }
  - { offsetInCU: 0x269CEA, offset: 0x269CEA, size: 0x8, addend: 0x0, symName: __ZN5Eigen8internal14evaluator_baseINS_12CwiseUnaryOpINS0_14scalar_abs2_opIfEEKNS_5BlockIKNS5_INS5_INS_6MatrixIfLi3ELi3ELi0ELi3ELi3EEELi3ELi1ELb1EEELin1ELi1ELb0EEELin1ELi1ELb0EEEEEEC2Ev, symObjAddr: 0x13F50, symBinAddr: 0x100017FC8, symSize: 0x14 }
  - { offsetInCU: 0x269D14, offset: 0x269D14, size: 0x8, addend: 0x0, symName: __ZN5Eigen8internal15unary_evaluatorINS_12CwiseUnaryOpINS0_14scalar_abs2_opIfEEKNS_5BlockIKNS5_INS5_INS_6MatrixIfLi3ELi3ELi0ELi3ELi3EEELi3ELi1ELb1EEELin1ELi1ELb0EEELin1ELi1ELb0EEEEENS0_10IndexBasedEfE4DataC1ERKSD_, symObjAddr: 0x13F64, symBinAddr: 0x100017FDC, symSize: 0x34 }
  - { offsetInCU: 0x269D4D, offset: 0x269D4D, size: 0x8, addend: 0x0, symName: __ZN5Eigen8internal14evaluator_baseINS_12CwiseUnaryOpINS0_14scalar_abs2_opIfEEKNS_5BlockIKNS5_INS5_INS_6MatrixIfLi3ELi3ELi0ELi3ELi3EEELi3ELi1ELb1EEELin1ELi1ELb0EEELin1ELi1ELb0EEEEEED2Ev, symObjAddr: 0x13F98, symBinAddr: 0x100018010, symSize: 0x14 }
  - { offsetInCU: 0x269D77, offset: 0x269D77, size: 0x8, addend: 0x0, symName: __ZN5Eigen8internal15unary_evaluatorINS_12CwiseUnaryOpINS0_14scalar_abs2_opIfEEKNS_5BlockIKNS5_INS5_INS_6MatrixIfLi3ELi3ELi0ELi3ELi3EEELi3ELi1ELb1EEELin1ELi1ELb0EEELin1ELi1ELb0EEEEENS0_10IndexBasedEfE4DataC2ERKSD_, symObjAddr: 0x13FAC, symBinAddr: 0x100018024, symSize: 0x58 }
  - { offsetInCU: 0x269DB0, offset: 0x269DB0, size: 0x8, addend: 0x0, symName: __ZNK5Eigen12CwiseUnaryOpINS_8internal14scalar_abs2_opIfEEKNS_5BlockIKNS4_INS4_INS_6MatrixIfLi3ELi3ELi0ELi3ELi3EEELi3ELi1ELb1EEELin1ELi1ELb0EEELin1ELi1ELb0EEEE7functorEv, symObjAddr: 0x14004, symBinAddr: 0x10001807C, symSize: 0x18 }
  - { offsetInCU: 0x269DD6, offset: 0x269DD6, size: 0x8, addend: 0x0, symName: __ZNK5Eigen12CwiseUnaryOpINS_8internal14scalar_abs2_opIfEEKNS_5BlockIKNS4_INS4_INS_6MatrixIfLi3ELi3ELi0ELi3ELi3EEELi3ELi1ELb1EEELin1ELi1ELb0EEELin1ELi1ELb0EEEE16nestedExpressionEv, symObjAddr: 0x1401C, symBinAddr: 0x100018094, symSize: 0x14 }
  - { offsetInCU: 0x269DFC, offset: 0x269DFC, size: 0x8, addend: 0x0, symName: __ZN5Eigen8internal9evaluatorIKNS_5BlockIKNS2_INS2_INS_6MatrixIfLi3ELi3ELi0ELi3ELi3EEELi3ELi1ELb1EEELin1ELi1ELb0EEELin1ELi1ELb0EEEEC1ERS9_, symObjAddr: 0x14030, symBinAddr: 0x1000180A8, symSize: 0x34 }
  - { offsetInCU: 0x269E34, offset: 0x269E34, size: 0x8, addend: 0x0, symName: __ZN5Eigen8internal9evaluatorIKNS_5BlockIKNS2_INS2_INS_6MatrixIfLi3ELi3ELi0ELi3ELi3EEELi3ELi1ELb1EEELin1ELi1ELb0EEELin1ELi1ELb0EEEEC2ERS9_, symObjAddr: 0x14064, symBinAddr: 0x1000180DC, symSize: 0x34 }
  - { offsetInCU: 0x269E6C, offset: 0x269E6C, size: 0x8, addend: 0x0, symName: __ZN5Eigen8internal9evaluatorINS_5BlockIKNS2_INS2_INS_6MatrixIfLi3ELi3ELi0ELi3ELi3EEELi3ELi1ELb1EEELin1ELi1ELb0EEELin1ELi1ELb0EEEEC2ERKS8_, symObjAddr: 0x14098, symBinAddr: 0x100018110, symSize: 0x34 }
  - { offsetInCU: 0x269EA5, offset: 0x269EA5, size: 0x8, addend: 0x0, symName: __ZN5Eigen8internal15block_evaluatorIKNS_5BlockINS2_INS_6MatrixIfLi3ELi3ELi0ELi3ELi3EEELi3ELi1ELb1EEELin1ELi1ELb0EEELin1ELi1ELb0ELb1EEC2ERKNS2_IS7_Lin1ELi1ELb0EEE, symObjAddr: 0x140CC, symBinAddr: 0x100018144, symSize: 0xDC }
  - { offsetInCU: 0x269EDE, offset: 0x269EDE, size: 0x8, addend: 0x0, symName: __ZN5Eigen8internal17mapbase_evaluatorINS_5BlockIKNS2_INS2_INS_6MatrixIfLi3ELi3ELi0ELi3ELi3EEELi3ELi1ELb1EEELin1ELi1ELb0EEELin1ELi1ELb0EEENS3_IfLin1ELi1ELi0ELi3ELi1EEEEC2ERKS8_, symObjAddr: 0x141A8, symBinAddr: 0x100018220, symSize: 0xB4 }
  - { offsetInCU: 0x269F17, offset: 0x269F17, size: 0x8, addend: 0x0, symName: __ZNK5Eigen7MapBaseINS_5BlockIKNS1_INS1_INS_6MatrixIfLi3ELi3ELi0ELi3ELi3EEELi3ELi1ELb1EEELin1ELi1ELb0EEELin1ELi1ELb0EEELi0EE4dataEv, symObjAddr: 0x1425C, symBinAddr: 0x1000182D4, symSize: 0x18 }
  - { offsetInCU: 0x269F3D, offset: 0x269F3D, size: 0x8, addend: 0x0, symName: __ZN5Eigen8internal17mapbase_evaluatorINS_5BlockIKNS2_INS2_INS_6MatrixIfLi3ELi3ELi0ELi3ELi3EEELi3ELi1ELb1EEELin1ELi1ELb0EEELin1ELi1ELb0EEENS3_IfLin1ELi1ELi0ELi3ELi1EEEED2Ev, symObjAddr: 0x14274, symBinAddr: 0x1000182EC, symSize: 0x2C }
  - { offsetInCU: 0x269F6A, offset: 0x269F6A, size: 0x8, addend: 0x0, symName: __ZN5Eigen8internal14evaluator_baseINS_5BlockIKNS2_INS2_INS_6MatrixIfLi3ELi3ELi0ELi3ELi3EEELi3ELi1ELb1EEELin1ELi1ELb0EEELin1ELi1ELb0EEEEC2Ev, symObjAddr: 0x142A0, symBinAddr: 0x100018318, symSize: 0x14 }
  - { offsetInCU: 0x269F94, offset: 0x269F94, size: 0x8, addend: 0x0, symName: __ZNK5Eigen8internal15BlockImpl_denseIKNS_5BlockINS2_INS_6MatrixIfLi3ELi3ELi0ELi3ELi3EEELi3ELi1ELb1EEELin1ELi1ELb0EEELin1ELi1ELb0ELb1EE11innerStrideEv, symObjAddr: 0x142B4, symBinAddr: 0x10001832C, symSize: 0x28 }
  - { offsetInCU: 0x269FBA, offset: 0x269FBA, size: 0x8, addend: 0x0, symName: __ZNK5Eigen8internal15BlockImpl_denseIKNS_5BlockINS2_INS_6MatrixIfLi3ELi3ELi0ELi3ELi3EEELi3ELi1ELb1EEELin1ELi1ELb0EEELin1ELi1ELb0ELb1EE11outerStrideEv, symObjAddr: 0x142DC, symBinAddr: 0x100018354, symSize: 0x28 }
  - { offsetInCU: 0x269FE0, offset: 0x269FE0, size: 0x8, addend: 0x0, symName: __ZN5Eigen8internal14evaluator_baseINS_5BlockIKNS2_INS2_INS_6MatrixIfLi3ELi3ELi0ELi3ELi3EEELi3ELi1ELb1EEELin1ELi1ELb0EEELin1ELi1ELb0EEEED2Ev, symObjAddr: 0x14304, symBinAddr: 0x10001837C, symSize: 0x14 }
  - { offsetInCU: 0x26A00A, offset: 0x26A00A, size: 0x8, addend: 0x0, symName: __ZNK5Eigen8internal15unary_evaluatorINS_12CwiseUnaryOpINS0_14scalar_abs2_opIfEEKNS_5BlockIKNS5_INS5_INS_6MatrixIfLi3ELi3ELi0ELi3ELi3EEELi3ELi1ELb1EEELin1ELi1ELb0EEELin1ELi1ELb0EEEEENS0_10IndexBasedEfE6packetILi0E19__simd128_float32_tEET0_l, symObjAddr: 0x1433C, symBinAddr: 0x1000183B4, symSize: 0x50 }
  - { offsetInCU: 0x26A05C, offset: 0x26A05C, size: 0x8, addend: 0x0, symName: __ZNK5Eigen8internal13scalar_sum_opIffE8packetOpI19__simd128_float32_tEET_RKS5_S7_, symObjAddr: 0x1438C, symBinAddr: 0x100018404, symSize: 0x30 }
  - { offsetInCU: 0x26A0A7, offset: 0x26A0A7, size: 0x8, addend: 0x0, symName: __ZNK5Eigen8internal13scalar_sum_opIffE6preduxI19__simd128_float32_tEEfRKT_, symObjAddr: 0x143BC, symBinAddr: 0x100018434, symSize: 0x28 }
  - { offsetInCU: 0x26A0E4, offset: 0x26A0E4, size: 0x8, addend: 0x0, symName: __ZNK5Eigen8internal15unary_evaluatorINS_12CwiseUnaryOpINS0_14scalar_abs2_opIfEEKNS_5BlockIKNS5_INS5_INS_6MatrixIfLi3ELi3ELi0ELi3ELi3EEELi3ELi1ELb1EEELin1ELi1ELb0EEELin1ELi1ELb0EEEEENS0_10IndexBasedEfE5coeffEl, symObjAddr: 0x143E4, symBinAddr: 0x10001845C, symSize: 0x50 }
  - { offsetInCU: 0x26A119, offset: 0x26A119, size: 0x8, addend: 0x0, symName: __ZN5Eigen8internal18first_aligned_implILi16ENS_12CwiseUnaryOpINS0_14scalar_abs2_opIfEEKNS_5BlockIKNS5_INS5_INS_6MatrixIfLi3ELi3ELi0ELi3ELi3EEELi3ELi1ELb1EEELin1ELi1ELb0EEELin1ELi1ELb0EEEEELb1EE3runERKSD_, symObjAddr: 0x1445C, symBinAddr: 0x1000184D4, symSize: 0x14 }
  - { offsetInCU: 0x26A139, offset: 0x26A139, size: 0x8, addend: 0x0, symName: __ZNK5Eigen8internal15unary_evaluatorINS_12CwiseUnaryOpINS0_14scalar_abs2_opIfEEKNS_5BlockIKNS5_INS5_INS_6MatrixIfLi3ELi3ELi0ELi3ELi3EEELi3ELi1ELb1EEELin1ELi1ELb0EEELin1ELi1ELb0EEEEENS0_10IndexBasedEfE4Data4funcEv, symObjAddr: 0x14470, symBinAddr: 0x1000184E8, symSize: 0x14 }
  - { offsetInCU: 0x26A15F, offset: 0x26A15F, size: 0x8, addend: 0x0, symName: __ZNK5Eigen8internal14scalar_abs2_opIfE8packetOpI19__simd128_float32_tEEKT_RS6_, symObjAddr: 0x14484, symBinAddr: 0x1000184FC, symSize: 0x2C }
  - { offsetInCU: 0x26A1A6, offset: 0x26A1A6, size: 0x8, addend: 0x0, symName: __ZNK5Eigen8internal17mapbase_evaluatorINS_5BlockIKNS2_INS2_INS_6MatrixIfLi3ELi3ELi0ELi3ELi3EEELi3ELi1ELb1EEELin1ELi1ELb0EEELin1ELi1ELb0EEENS3_IfLin1ELi1ELi0ELi3ELi1EEEE6packetILi0E19__simd128_float32_tEET0_l, symObjAddr: 0x144B0, symBinAddr: 0x100018528, symSize: 0x54 }
  - { offsetInCU: 0x26A20C, offset: 0x26A20C, size: 0x8, addend: 0x0, symName: __ZNK5Eigen8internal14scalar_abs2_opIfEclERKf, symObjAddr: 0x14658, symBinAddr: 0x1000186D0, symSize: 0x28 }
  - { offsetInCU: 0x26A240, offset: 0x26A240, size: 0x8, addend: 0x0, symName: __ZNK5Eigen8internal17mapbase_evaluatorINS_5BlockIKNS2_INS2_INS_6MatrixIfLi3ELi3ELi0ELi3ELi3EEELi3ELi1ELb1EEELin1ELi1ELb0EEELin1ELi1ELb0EEENS3_IfLin1ELi1ELi0ELi3ELi1EEEE5coeffEl, symObjAddr: 0x14680, symBinAddr: 0x1000186F8, symSize: 0x48 }
  - { offsetInCU: 0x26A275, offset: 0x26A275, size: 0x8, addend: 0x0, symName: __ZN5Eigen8internal15redux_evaluatorINS_12CwiseUnaryOpINS0_14scalar_abs2_opIfEEKNS_5BlockIKNS5_INS5_INS_6MatrixIfLi3ELi3ELi0ELi3ELi3EEELi3ELi1ELb1EEELin1ELi1ELb0EEELin1ELi1ELb0EEEEEED2Ev, symObjAddr: 0x146C8, symBinAddr: 0x100018740, symSize: 0x2C }
  - { offsetInCU: 0x26A2A2, offset: 0x26A2A2, size: 0x8, addend: 0x0, symName: __ZN5Eigen8internal9evaluatorINS_12CwiseUnaryOpINS0_14scalar_abs2_opIfEEKNS_5BlockIKNS5_INS5_INS_6MatrixIfLi3ELi3ELi0ELi3ELi3EEELi3ELi1ELb1EEELin1ELi1ELb0EEELin1ELi1ELb0EEEEEED2Ev, symObjAddr: 0x146F4, symBinAddr: 0x10001876C, symSize: 0x2C }
  - { offsetInCU: 0x26A2CE, offset: 0x26A2CE, size: 0x8, addend: 0x0, symName: __ZN5Eigen8internal15unary_evaluatorINS_12CwiseUnaryOpINS0_14scalar_abs2_opIfEEKNS_5BlockIKNS5_INS5_INS_6MatrixIfLi3ELi3ELi0ELi3ELi3EEELi3ELi1ELb1EEELin1ELi1ELb0EEELin1ELi1ELb0EEEEENS0_10IndexBasedEfED2Ev, symObjAddr: 0x14720, symBinAddr: 0x100018798, symSize: 0x34 }
  - { offsetInCU: 0x26A2FA, offset: 0x26A2FA, size: 0x8, addend: 0x0, symName: __ZN5Eigen8internal15unary_evaluatorINS_12CwiseUnaryOpINS0_14scalar_abs2_opIfEEKNS_5BlockIKNS5_INS5_INS_6MatrixIfLi3ELi3ELi0ELi3ELi3EEELi3ELi1ELb1EEELin1ELi1ELb0EEELin1ELi1ELb0EEEEENS0_10IndexBasedEfE4DataD1Ev, symObjAddr: 0x14754, symBinAddr: 0x1000187CC, symSize: 0x2C }
  - { offsetInCU: 0x26A327, offset: 0x26A327, size: 0x8, addend: 0x0, symName: __ZN5Eigen8internal15unary_evaluatorINS_12CwiseUnaryOpINS0_14scalar_abs2_opIfEEKNS_5BlockIKNS5_INS5_INS_6MatrixIfLi3ELi3ELi0ELi3ELi3EEELi3ELi1ELb1EEELin1ELi1ELb0EEELin1ELi1ELb0EEEEENS0_10IndexBasedEfE4DataD2Ev, symObjAddr: 0x14780, symBinAddr: 0x1000187F8, symSize: 0x30 }
  - { offsetInCU: 0x26A354, offset: 0x26A354, size: 0x8, addend: 0x0, symName: __ZN5Eigen8internal9evaluatorIKNS_5BlockIKNS2_INS2_INS_6MatrixIfLi3ELi3ELi0ELi3ELi3EEELi3ELi1ELb1EEELin1ELi1ELb0EEELin1ELi1ELb0EEEED1Ev, symObjAddr: 0x147B0, symBinAddr: 0x100018828, symSize: 0x2C }
  - { offsetInCU: 0x26A380, offset: 0x26A380, size: 0x8, addend: 0x0, symName: __ZN5Eigen8internal9evaluatorIKNS_5BlockIKNS2_INS2_INS_6MatrixIfLi3ELi3ELi0ELi3ELi3EEELi3ELi1ELb1EEELin1ELi1ELb0EEELin1ELi1ELb0EEEED2Ev, symObjAddr: 0x147DC, symBinAddr: 0x100018854, symSize: 0x2C }
  - { offsetInCU: 0x26A3AC, offset: 0x26A3AC, size: 0x8, addend: 0x0, symName: __ZN5Eigen8internal9evaluatorINS_5BlockIKNS2_INS2_INS_6MatrixIfLi3ELi3ELi0ELi3ELi3EEELi3ELi1ELb1EEELin1ELi1ELb0EEELin1ELi1ELb0EEEED2Ev, symObjAddr: 0x14808, symBinAddr: 0x100018880, symSize: 0x2C }
  - { offsetInCU: 0x26A3D9, offset: 0x26A3D9, size: 0x8, addend: 0x0, symName: __ZN5Eigen8internal15block_evaluatorIKNS_5BlockINS2_INS_6MatrixIfLi3ELi3ELi0ELi3ELi3EEELi3ELi1ELb1EEELin1ELi1ELb0EEELin1ELi1ELb0ELb1EED2Ev, symObjAddr: 0x14834, symBinAddr: 0x1000188AC, symSize: 0x2C }
  - { offsetInCU: 0x26A406, offset: 0x26A406, size: 0x8, addend: 0x0, symName: __ZN5Eigen8internal9evaluatorINS_5BlockINS2_INS_6MatrixIfLi3ELi3ELi0ELi3ELi3EEELi3ELi1ELb1EEELin1ELi1ELb0EEEEC1ERKS6_, symObjAddr: 0x14860, symBinAddr: 0x1000188D8, symSize: 0x34 }
  - { offsetInCU: 0x26A43F, offset: 0x26A43F, size: 0x8, addend: 0x0, symName: __ZNK5Eigen8internal17mapbase_evaluatorINS_5BlockINS2_INS_6MatrixIfLi3ELi3ELi0ELi3ELi3EEELi3ELi1ELb1EEELin1ELi1ELb0EEENS3_IfLin1ELi1ELi0ELi3ELi1EEEE5coeffEl, symObjAddr: 0x14894, symBinAddr: 0x10001890C, symSize: 0x48 }
  - { offsetInCU: 0x26A474, offset: 0x26A474, size: 0x8, addend: 0x0, symName: __ZN5Eigen8internal9evaluatorINS_5BlockINS2_INS_6MatrixIfLi3ELi3ELi0ELi3ELi3EEELi3ELi1ELb1EEELin1ELi1ELb0EEEED1Ev, symObjAddr: 0x148DC, symBinAddr: 0x100018954, symSize: 0x2C }
  - { offsetInCU: 0x26A4A1, offset: 0x26A4A1, size: 0x8, addend: 0x0, symName: __ZN5Eigen8internal9evaluatorINS_5BlockINS2_INS_6MatrixIfLi3ELi3ELi0ELi3ELi3EEELi3ELi1ELb1EEELin1ELi1ELb0EEEEC2ERKS6_, symObjAddr: 0x14908, symBinAddr: 0x100018980, symSize: 0x34 }
  - { offsetInCU: 0x26A4DA, offset: 0x26A4DA, size: 0x8, addend: 0x0, symName: __ZN5Eigen8internal15block_evaluatorINS_5BlockINS_6MatrixIfLi3ELi3ELi0ELi3ELi3EEELi3ELi1ELb1EEELin1ELi1ELb0ELb1EEC2ERKNS2_IS5_Lin1ELi1ELb0EEE, symObjAddr: 0x1493C, symBinAddr: 0x1000189B4, symSize: 0xD0 }
  - { offsetInCU: 0x26A513, offset: 0x26A513, size: 0x8, addend: 0x0, symName: __ZN5Eigen8internal17mapbase_evaluatorINS_5BlockINS2_INS_6MatrixIfLi3ELi3ELi0ELi3ELi3EEELi3ELi1ELb1EEELin1ELi1ELb0EEENS3_IfLin1ELi1ELi0ELi3ELi1EEEEC2ERKS6_, symObjAddr: 0x14A0C, symBinAddr: 0x100018A84, symSize: 0xA4 }
  - { offsetInCU: 0x26A54C, offset: 0x26A54C, size: 0x8, addend: 0x0, symName: __ZN5Eigen8internal17mapbase_evaluatorINS_5BlockINS2_INS_6MatrixIfLi3ELi3ELi0ELi3ELi3EEELi3ELi1ELb1EEELin1ELi1ELb0EEENS3_IfLin1ELi1ELi0ELi3ELi1EEEED2Ev, symObjAddr: 0x14AB0, symBinAddr: 0x100018B28, symSize: 0x2C }
  - { offsetInCU: 0x26A579, offset: 0x26A579, size: 0x8, addend: 0x0, symName: __ZN5Eigen8internal14evaluator_baseINS_5BlockINS2_INS_6MatrixIfLi3ELi3ELi0ELi3ELi3EEELi3ELi1ELb1EEELin1ELi1ELb0EEEEC2Ev, symObjAddr: 0x14ADC, symBinAddr: 0x100018B54, symSize: 0x14 }
  - { offsetInCU: 0x26A5A3, offset: 0x26A5A3, size: 0x8, addend: 0x0, symName: __ZN5Eigen8internal14evaluator_baseINS_5BlockINS2_INS_6MatrixIfLi3ELi3ELi0ELi3ELi3EEELi3ELi1ELb1EEELin1ELi1ELb0EEEED2Ev, symObjAddr: 0x14AF0, symBinAddr: 0x100018B68, symSize: 0x14 }
  - { offsetInCU: 0x26A5CD, offset: 0x26A5CD, size: 0x8, addend: 0x0, symName: __ZN5Eigen8internal9evaluatorINS_5BlockINS2_INS_6MatrixIfLi3ELi3ELi0ELi3ELi3EEELi3ELi1ELb1EEELin1ELi1ELb0EEEED2Ev, symObjAddr: 0x14B04, symBinAddr: 0x100018B7C, symSize: 0x2C }
  - { offsetInCU: 0x26A5FA, offset: 0x26A5FA, size: 0x8, addend: 0x0, symName: __ZN5Eigen8internal15block_evaluatorINS_5BlockINS_6MatrixIfLi3ELi3ELi0ELi3ELi3EEELi3ELi1ELb1EEELin1ELi1ELb0ELb1EED2Ev, symObjAddr: 0x14B30, symBinAddr: 0x100018BA8, symSize: 0x2C }
  - { offsetInCU: 0x26A627, offset: 0x26A627, size: 0x8, addend: 0x0, symName: __ZN5Eigen8internal9abs2_implIfE3runERKf, symObjAddr: 0x14B5C, symBinAddr: 0x100018BD4, symSize: 0x24 }
  - { offsetInCU: 0x26A64B, offset: 0x26A64B, size: 0x8, addend: 0x0, symName: __ZN5Eigen8internal17abs2_impl_defaultIfLb0EE3runERKf, symObjAddr: 0x14B80, symBinAddr: 0x100018BF8, symSize: 0x24 }
  - { offsetInCU: 0x26A66F, offset: 0x26A66F, size: 0x8, addend: 0x0, symName: __ZN5Eigen8internal17imag_default_implIfLb0EE3runERKf, symObjAddr: 0x14BA4, symBinAddr: 0x100018C1C, symSize: 0x14 }
  - { offsetInCU: 0x26A68F, offset: 0x26A68F, size: 0x8, addend: 0x0, symName: __ZN5Eigen8internal17real_default_implIfLb0EE3runERKf, symObjAddr: 0x14BB8, symBinAddr: 0x100018C30, symSize: 0x18 }
  - { offsetInCU: 0x26A6B2, offset: 0x26A6B2, size: 0x8, addend: 0x0, symName: __ZN5Eigen9DenseBaseINS_5BlockINS1_INS1_INS_6MatrixIfLi3ELi3ELi0ELi3ELi3EEELi3ELi1ELb1EEELin1ELi1ELb0EEELin1ELi1ELb0EEEE11setConstantERKf, symObjAddr: 0x14BD0, symBinAddr: 0x100018C48, symSize: 0x64 }
  - { offsetInCU: 0x26A6EA, offset: 0x26A6EA, size: 0x8, addend: 0x0, symName: __ZN5Eigen9DenseBaseINS_5BlockINS1_INS1_INS_6MatrixIfLi3ELi3ELi0ELi3ELi3EEELi3ELi1ELb1EEELin1ELi1ELb0EEELin1ELi1ELb0EEEE8ConstantEllRKf, symObjAddr: 0x14C34, symBinAddr: 0x100018CAC, symSize: 0x60 }
  - { offsetInCU: 0x26A72E, offset: 0x26A72E, size: 0x8, addend: 0x0, symName: __ZNK5Eigen9EigenBaseINS_5BlockINS1_INS1_INS_6MatrixIfLi3ELi3ELi0ELi3ELi3EEELi3ELi1ELb1EEELin1ELi1ELb0EEELin1ELi1ELb0EEEE4rowsEv, symObjAddr: 0x14C94, symBinAddr: 0x100018D0C, symSize: 0x38 }
  - { offsetInCU: 0x26A754, offset: 0x26A754, size: 0x8, addend: 0x0, symName: __ZNK5Eigen9EigenBaseINS_5BlockINS1_INS1_INS_6MatrixIfLi3ELi3ELi0ELi3ELi3EEELi3ELi1ELb1EEELin1ELi1ELb0EEELin1ELi1ELb0EEEE4colsEv, symObjAddr: 0x14CCC, symBinAddr: 0x100018D44, symSize: 0x28 }
  - { offsetInCU: 0x26A77A, offset: 0x26A77A, size: 0x8, addend: 0x0, symName: __ZN5Eigen9EigenBaseINS_5BlockINS1_INS1_INS_6MatrixIfLi3ELi3ELi0ELi3ELi3EEELi3ELi1ELb1EEELin1ELi1ELb0EEELin1ELi1ELb0EEEE7derivedEv, symObjAddr: 0x14CF4, symBinAddr: 0x100018D6C, symSize: 0x14 }
  - { offsetInCU: 0x26A7A0, offset: 0x26A7A0, size: 0x8, addend: 0x0, symName: __ZN5Eigen5BlockINS0_INS0_INS_6MatrixIfLi3ELi3ELi0ELi3ELi3EEELi3ELi1ELb1EEELin1ELi1ELb0EEELin1ELi1ELb0EEaSINS_14CwiseNullaryOpINS_8internal18scalar_constant_opIfEENS1_IfLin1ELi1ELi0ELi3ELi1EEEEEEERS5_RKNS_9DenseBaseIT_EE, symObjAddr: 0x14D08, symBinAddr: 0x100018D80, symSize: 0x40 }
  - { offsetInCU: 0x26A7DD, offset: 0x26A7DD, size: 0x8, addend: 0x0, symName: __ZN5Eigen9DenseBaseINS_5BlockINS1_INS1_INS_6MatrixIfLi3ELi3ELi0ELi3ELi3EEELi3ELi1ELb1EEELin1ELi1ELb0EEELin1ELi1ELb0EEEE11NullaryExprINS_8internal18scalar_constant_opIfEEEEKNS_14CwiseNullaryOpIT_NS2_IfLin1ELi1ELi0ELi3ELi1EEEEEllRKSD_, symObjAddr: 0x14D48, symBinAddr: 0x100018DC0, symSize: 0x48 }
  - { offsetInCU: 0x26A82A, offset: 0x26A82A, size: 0x8, addend: 0x0, symName: __ZN5Eigen14CwiseNullaryOpINS_8internal18scalar_constant_opIfEENS_6MatrixIfLin1ELi1ELi0ELi3ELi1EEEEC1EllRKS3_, symObjAddr: 0x14D90, symBinAddr: 0x100018E08, symSize: 0x44 }
  - { offsetInCU: 0x26A87E, offset: 0x26A87E, size: 0x8, addend: 0x0, symName: __ZN5Eigen14CwiseNullaryOpINS_8internal18scalar_constant_opIfEENS_6MatrixIfLin1ELi1ELi0ELi3ELi1EEEEC2EllRKS3_, symObjAddr: 0x14DD4, symBinAddr: 0x100018E4C, symSize: 0xE8 }
  - { offsetInCU: 0x26A8D2, offset: 0x26A8D2, size: 0x8, addend: 0x0, symName: __ZN5Eigen10MatrixBaseINS_14CwiseNullaryOpINS_8internal18scalar_constant_opIfEENS_6MatrixIfLin1ELi1ELi0ELi3ELi1EEEEEEC2Ev, symObjAddr: 0x14EBC, symBinAddr: 0x100018F34, symSize: 0x2C }
  - { offsetInCU: 0x26A8FC, offset: 0x26A8FC, size: 0x8, addend: 0x0, symName: __ZN5Eigen9DenseBaseINS_14CwiseNullaryOpINS_8internal18scalar_constant_opIfEENS_6MatrixIfLin1ELi1ELi0ELi3ELi1EEEEEEC2Ev, symObjAddr: 0x14EE8, symBinAddr: 0x100018F60, symSize: 0x14 }
  - { offsetInCU: 0x26A926, offset: 0x26A926, size: 0x8, addend: 0x0, symName: __ZNK5Eigen9EigenBaseINS_5BlockINS1_INS1_INS_6MatrixIfLi3ELi3ELi0ELi3ELi3EEELi3ELi1ELb1EEELin1ELi1ELb0EEELin1ELi1ELb0EEEE7derivedEv, symObjAddr: 0x14EFC, symBinAddr: 0x100018F74, symSize: 0x14 }
  - { offsetInCU: 0x26A94C, offset: 0x26A94C, size: 0x8, addend: 0x0, symName: __ZNK5Eigen7MapBaseINS_5BlockINS1_INS1_INS_6MatrixIfLi3ELi3ELi0ELi3ELi3EEELi3ELi1ELb1EEELin1ELi1ELb0EEELin1ELi1ELb0EEELi0EE4rowsEv, symObjAddr: 0x14F10, symBinAddr: 0x100018F88, symSize: 0x28 }
  - { offsetInCU: 0x26A972, offset: 0x26A972, size: 0x8, addend: 0x0, symName: __ZNK5Eigen7MapBaseINS_5BlockINS1_INS1_INS_6MatrixIfLi3ELi3ELi0ELi3ELi3EEELi3ELi1ELb1EEELin1ELi1ELb0EEELin1ELi1ELb0EEELi0EE4colsEv, symObjAddr: 0x14F38, symBinAddr: 0x100018FB0, symSize: 0x20 }
  - { offsetInCU: 0x26A998, offset: 0x26A998, size: 0x8, addend: 0x0, symName: __ZN5Eigen9BlockImplINS_5BlockINS1_INS_6MatrixIfLi3ELi3ELi0ELi3ELi3EEELi3ELi1ELb1EEELin1ELi1ELb0EEELin1ELi1ELb0ENS_5DenseEEaSINS_14CwiseNullaryOpINS_8internal18scalar_constant_opIfEENS2_IfLin1ELi1ELi0ELi3ELi1EEEEEEERS7_RKNS_9DenseBaseIT_EE, symObjAddr: 0x14F58, symBinAddr: 0x100018FD0, symSize: 0x40 }
  - { offsetInCU: 0x26A9D5, offset: 0x26A9D5, size: 0x8, addend: 0x0, symName: __ZNK5Eigen9EigenBaseINS_14CwiseNullaryOpINS_8internal18scalar_constant_opIfEENS_6MatrixIfLin1ELi1ELi0ELi3ELi1EEEEEE7derivedEv, symObjAddr: 0x14F98, symBinAddr: 0x100019010, symSize: 0x14 }
  - { offsetInCU: 0x26A9FB, offset: 0x26A9FB, size: 0x8, addend: 0x0, symName: __ZN5Eigen8internal15BlockImpl_denseINS_5BlockINS2_INS_6MatrixIfLi3ELi3ELi0ELi3ELi3EEELi3ELi1ELb1EEELin1ELi1ELb0EEELin1ELi1ELb0ELb1EEaSINS_14CwiseNullaryOpINS0_18scalar_constant_opIfEENS3_IfLin1ELi1ELi0ELi3ELi1EEEEEEERS7_RKNS_9DenseBaseIT_EE, symObjAddr: 0x14FAC, symBinAddr: 0x100019024, symSize: 0x40 }
  - { offsetInCU: 0x26AA39, offset: 0x26AA39, size: 0x8, addend: 0x0, symName: __ZN5Eigen10MatrixBaseINS_5BlockINS1_INS1_INS_6MatrixIfLi3ELi3ELi0ELi3ELi3EEELi3ELi1ELb1EEELin1ELi1ELb0EEELin1ELi1ELb0EEEEaSINS_14CwiseNullaryOpINS_8internal18scalar_constant_opIfEENS2_IfLin1ELi1ELi0ELi3ELi1EEEEEEERS6_RKNS_9DenseBaseIT_EE, symObjAddr: 0x14FEC, symBinAddr: 0x100019064, symSize: 0x4C }
  - { offsetInCU: 0x26AA78, offset: 0x26AA78, size: 0x8, addend: 0x0, symName: __ZN5Eigen8internal10AssignmentINS_5BlockINS2_INS2_INS_6MatrixIfLi3ELi3ELi0ELi3ELi3EEELi3ELi1ELb1EEELin1ELi1ELb0EEELin1ELi1ELb0EEENS_14CwiseNullaryOpINS0_18scalar_constant_opIfEENS3_IfLin1ELi1ELi0ELi3ELi1EEEEENS0_9assign_opIffEENS0_11Dense2DenseEvE3runERS7_RKSC_RKSE_, symObjAddr: 0x150FC, symBinAddr: 0x100019174, symSize: 0x40 }
  - { offsetInCU: 0x26AABA, offset: 0x26AABA, size: 0x8, addend: 0x0, symName: __ZN5Eigen8internal9evaluatorINS_14CwiseNullaryOpINS0_18scalar_constant_opIfEENS_6MatrixIfLin1ELi1ELi0ELi3ELi1EEEEEEC1ERKS7_, symObjAddr: 0x15230, symBinAddr: 0x1000192A8, symSize: 0x34 }
  - { offsetInCU: 0x26AAF3, offset: 0x26AAF3, size: 0x8, addend: 0x0, symName: __ZN5Eigen8internal9evaluatorINS_5BlockINS2_INS2_INS_6MatrixIfLi3ELi3ELi0ELi3ELi3EEELi3ELi1ELb1EEELin1ELi1ELb0EEELin1ELi1ELb0EEEEC1ERKS7_, symObjAddr: 0x1535C, symBinAddr: 0x1000193D4, symSize: 0x34 }
  - { offsetInCU: 0x26AB2C, offset: 0x26AB2C, size: 0x8, addend: 0x0, symName: __ZNK5Eigen9EigenBaseINS_5BlockINS1_INS1_INS_6MatrixIfLi3ELi3ELi0ELi3ELi3EEELi3ELi1ELb1EEELin1ELi1ELb0EEELin1ELi1ELb0EEEE18const_cast_derivedEv, symObjAddr: 0x15390, symBinAddr: 0x100019408, symSize: 0x14 }
  - { offsetInCU: 0x26AB52, offset: 0x26AB52, size: 0x8, addend: 0x0, symName: __ZN5Eigen8internal31generic_dense_assignment_kernelINS0_9evaluatorINS_5BlockINS3_INS3_INS_6MatrixIfLi3ELi3ELi0ELi3ELi3EEELi3ELi1ELb1EEELin1ELi1ELb0EEELin1ELi1ELb0EEEEENS2_INS_14CwiseNullaryOpINS0_18scalar_constant_opIfEENS4_IfLin1ELi1ELi0ELi3ELi1EEEEEEENS0_9assign_opIffEELi0EEC1ERS9_RKSF_RKSH_RS8_, symObjAddr: 0x153A4, symBinAddr: 0x10001941C, symSize: 0x4C }
  - { offsetInCU: 0x26ABB8, offset: 0x26ABB8, size: 0x8, addend: 0x0, symName: __ZN5Eigen8internal9evaluatorINS_5BlockINS2_INS2_INS_6MatrixIfLi3ELi3ELi0ELi3ELi3EEELi3ELi1ELb1EEELin1ELi1ELb0EEELin1ELi1ELb0EEEED1Ev, symObjAddr: 0x154B0, symBinAddr: 0x100019528, symSize: 0x2C }
  - { offsetInCU: 0x26ABE5, offset: 0x26ABE5, size: 0x8, addend: 0x0, symName: __ZN5Eigen8internal9evaluatorINS_14CwiseNullaryOpINS0_18scalar_constant_opIfEENS_6MatrixIfLin1ELi1ELi0ELi3ELi1EEEEEED1Ev, symObjAddr: 0x154DC, symBinAddr: 0x100019554, symSize: 0x2C }
  - { offsetInCU: 0x26AC11, offset: 0x26AC11, size: 0x8, addend: 0x0, symName: __ZN5Eigen8internal9evaluatorINS_14CwiseNullaryOpINS0_18scalar_constant_opIfEENS_6MatrixIfLin1ELi1ELi0ELi3ELi1EEEEEEC2ERKS7_, symObjAddr: 0x15508, symBinAddr: 0x100019580, symSize: 0x74 }
  - { offsetInCU: 0x26AC4A, offset: 0x26AC4A, size: 0x8, addend: 0x0, symName: __ZN5Eigen8internal14evaluator_baseINS_14CwiseNullaryOpINS0_18scalar_constant_opIfEENS_6MatrixIfLin1ELi1ELi0ELi3ELi1EEEEEEC2Ev, symObjAddr: 0x1557C, symBinAddr: 0x1000195F4, symSize: 0x14 }
  - { offsetInCU: 0x26AC74, offset: 0x26AC74, size: 0x8, addend: 0x0, symName: __ZNK5Eigen14CwiseNullaryOpINS_8internal18scalar_constant_opIfEENS_6MatrixIfLin1ELi1ELi0ELi3ELi1EEEE7functorEv, symObjAddr: 0x15590, symBinAddr: 0x100019608, symSize: 0x18 }
  - { offsetInCU: 0x26AC9A, offset: 0x26AC9A, size: 0x8, addend: 0x0, symName: __ZN5Eigen8internal14evaluator_baseINS_14CwiseNullaryOpINS0_18scalar_constant_opIfEENS_6MatrixIfLin1ELi1ELi0ELi3ELi1EEEEEED2Ev, symObjAddr: 0x155A8, symBinAddr: 0x100019620, symSize: 0x14 }
  - { offsetInCU: 0x26ACC4, offset: 0x26ACC4, size: 0x8, addend: 0x0, symName: __ZNK5Eigen14CwiseNullaryOpINS_8internal18scalar_constant_opIfEENS_6MatrixIfLin1ELi1ELi0ELi3ELi1EEEE4rowsEv, symObjAddr: 0x155BC, symBinAddr: 0x100019634, symSize: 0x24 }
  - { offsetInCU: 0x26ACEA, offset: 0x26ACEA, size: 0x8, addend: 0x0, symName: __ZNK5Eigen14CwiseNullaryOpINS_8internal18scalar_constant_opIfEENS_6MatrixIfLin1ELi1ELi0ELi3ELi1EEEE4colsEv, symObjAddr: 0x155E0, symBinAddr: 0x100019658, symSize: 0x20 }
  - { offsetInCU: 0x26AD10, offset: 0x26AD10, size: 0x8, addend: 0x0, symName: __ZN5Eigen9DenseBaseINS_5BlockINS1_INS1_INS_6MatrixIfLi3ELi3ELi0ELi3ELi3EEELi3ELi1ELb1EEELin1ELi1ELb0EEELin1ELi1ELb0EEEE6resizeEll, symObjAddr: 0x15600, symBinAddr: 0x100019678, symSize: 0xBC }
  - { offsetInCU: 0x26AD54, offset: 0x26AD54, size: 0x8, addend: 0x0, symName: __ZN5Eigen8internal9evaluatorINS_5BlockINS2_INS2_INS_6MatrixIfLi3ELi3ELi0ELi3ELi3EEELi3ELi1ELb1EEELin1ELi1ELb0EEELin1ELi1ELb0EEEEC2ERKS7_, symObjAddr: 0x156BC, symBinAddr: 0x100019734, symSize: 0x34 }
  - { offsetInCU: 0x26AD8D, offset: 0x26AD8D, size: 0x8, addend: 0x0, symName: __ZN5Eigen8internal15block_evaluatorINS_5BlockINS2_INS_6MatrixIfLi3ELi3ELi0ELi3ELi3EEELi3ELi1ELb1EEELin1ELi1ELb0EEELin1ELi1ELb0ELb1EEC2ERKNS2_IS6_Lin1ELi1ELb0EEE, symObjAddr: 0x156F0, symBinAddr: 0x100019768, symSize: 0xDC }
  - { offsetInCU: 0x26ADC6, offset: 0x26ADC6, size: 0x8, addend: 0x0, symName: __ZN5Eigen8internal17mapbase_evaluatorINS_5BlockINS2_INS2_INS_6MatrixIfLi3ELi3ELi0ELi3ELi3EEELi3ELi1ELb1EEELin1ELi1ELb0EEELin1ELi1ELb0EEENS3_IfLin1ELi1ELi0ELi3ELi1EEEEC2ERKS7_, symObjAddr: 0x157CC, symBinAddr: 0x100019844, symSize: 0xB4 }
  - { offsetInCU: 0x26ADFF, offset: 0x26ADFF, size: 0x8, addend: 0x0, symName: __ZNK5Eigen7MapBaseINS_5BlockINS1_INS1_INS_6MatrixIfLi3ELi3ELi0ELi3ELi3EEELi3ELi1ELb1EEELin1ELi1ELb0EEELin1ELi1ELb0EEELi1EE4dataEv, symObjAddr: 0x15880, symBinAddr: 0x1000198F8, symSize: 0x18 }
  - { offsetInCU: 0x26AE25, offset: 0x26AE25, size: 0x8, addend: 0x0, symName: __ZN5Eigen8internal17mapbase_evaluatorINS_5BlockINS2_INS2_INS_6MatrixIfLi3ELi3ELi0ELi3ELi3EEELi3ELi1ELb1EEELin1ELi1ELb0EEELin1ELi1ELb0EEENS3_IfLin1ELi1ELi0ELi3ELi1EEEED2Ev, symObjAddr: 0x15898, symBinAddr: 0x100019910, symSize: 0x2C }
  - { offsetInCU: 0x26AE52, offset: 0x26AE52, size: 0x8, addend: 0x0, symName: __ZN5Eigen8internal14evaluator_baseINS_5BlockINS2_INS2_INS_6MatrixIfLi3ELi3ELi0ELi3ELi3EEELi3ELi1ELb1EEELin1ELi1ELb0EEELin1ELi1ELb0EEEEC2Ev, symObjAddr: 0x158C4, symBinAddr: 0x10001993C, symSize: 0x14 }
